 21365.hotload.zt_blocks

 Timestamp is 581bab61 (Thu Nov 03 17:25:53 2016)

 Preferred load address is 10000000

 Start         Length     Name                   Class
 0001:00000000 00000d0fH .text$di                CODE
 0001:00000d10 000a01d8H .text$mn                CODE
 0001:000a0ef0 000000a3H .text$x                 CODE
 0002:00000000 00000288H .idata$5                DATA
 0002:00000288 00000004H .CRT$XCA                DATA
 0002:0000028c 00000154H .CRT$XCU                DATA
 0002:000003e0 00000004H .CRT$XCZ                DATA
 0002:000003e4 00000004H .CRT$XIA                DATA
 0002:000003e8 00000014H .CRT$XIC                DATA
 0002:000003fc 00000004H .CRT$XIZ                DATA
 0002:00000400 00000004H .CRT$XPA                DATA
 0002:00000404 00000008H .CRT$XPX                DATA
 0002:0000040c 00000004H .CRT$XPXA               DATA
 0002:00000410 00000004H .CRT$XPZ                DATA
 0002:00000414 00000004H .CRT$XTA                DATA
 0002:00000418 00000004H .CRT$XTZ                DATA
 0002:00000420 00046e80H .rdata                  DATA
 0002:000472a0 00000078H .rdata$debug            DATA
 0002:00047318 000000dcH .rdata$r                DATA
 0002:00047400 00000024H .rdata$sxdata           DATA
 0002:00047424 00000004H .rtc$IAA                DATA
 0002:00047428 00000004H .rtc$IZZ                DATA
 0002:0004742c 00000004H .rtc$TAA                DATA
 0002:00047430 00000004H .rtc$TZZ                DATA
 0002:00047438 000008a4H .xdata$x                DATA
 0002:00047ce0 0000015dH .edata                  DATA
 0002:00047e40 00000064H .idata$2                DATA
 0002:00047ea4 00000014H .idata$3                DATA
 0002:00047eb8 00000288H .idata$4                DATA
 0002:00048140 00000b1cH .idata$6                DATA
 0003:00000000 000032e0H .data                   DATA
 0003:000032e0 00000054H .data$r                 DATA
 0003:00003340 00122f8cH .bss                    DATA

  Address         Publics by Value              Rva+Base       Lib:Object

 0000:00000000       __except_list              00000000     <absolute>
 0000:00000000       ___guard_flags             00000000     <absolute>
 0000:00000000       ___guard_fids_table        00000000     <absolute>
 0000:00000000       ___guard_fids_count        00000000     <absolute>
 0000:00000009       ___safe_se_handler_count   00000009     <absolute>
 0000:00000000       ___ImageBase               10000000     <linker-defined>
 0001:00000d20       ?rotateEuler@ztMat4@@QAEXABUztVec3@@@Z 10001d20 f   unity_dll.obj
 0001:00000d60       ?rotateEuler@ztMat4@@QAEXMMM@Z 10001d60 f   unity_dll.obj
 0001:00001130       ?getRotateEuler@ztMat4@@QBE?AU1@ABUztVec3@@@Z 10002130 f   unity_dll.obj
 0001:00001170       ?getRotateEuler@ztMat4@@QBE?AU1@MMM@Z 10002170 f   unity_dll.obj
 0001:000011d0       ?multiply@ztMat4@@QAEXABU1@@Z 100021d0 f   unity_dll.obj
 0001:00001b30       ?getMultiply@ztMat4@@QBE?AU1@ABU1@@Z 10002b30 f   unity_dll.obj
 0001:00001b70       ?getMultiply@ztMat4@@QBE?AUztVec3@@ABU2@@Z 10002b70 f   unity_dll.obj
 0001:00001cc0       ?transpose@ztMat4@@QAEXXZ  10002cc0 f   unity_dll.obj
 0001:00001e80       ?getTranspose@ztMat4@@QBE?AU1@XZ 10002e80 f   unity_dll.obj
 0001:00001ec0       ?inverse@ztMat4@@QAEXXZ    10002ec0 f   unity_dll.obj
 0001:00003240       ?getInverse@ztMat4@@QBE?AU1@XZ 10004240 f   unity_dll.obj
 0001:00003280       ?lookAt@ztMat4@@QAEXUztVec3@@00@Z 10004280 f   unity_dll.obj
 0001:000034e0       ?getLookAt@ztMat4@@QBE?AU1@UztVec3@@00@Z 100044e0 f   unity_dll.obj
 0001:00003560       ?extract@ztMat4@@QAEXPAUztVec3@@00@Z 10004560 f   unity_dll.obj
 0001:00003890       ??XztMat4@@QAEAAU0@ABU0@@Z 10004890 f   unity_dll.obj
 0001:000038b0       ?makeOrthoProjection@ztMat4@@SA?AU1@MMMMMM@Z 100048b0 f   unity_dll.obj
 0001:00003a60       ?makePerspectiveProjection@ztMat4@@SA?AU1@MMMMM@Z 10004a60 f   unity_dll.obj
 0001:00003c60       ?makeFromMat4@ztQuat@@SA?AU1@ABUztMat4@@@Z 10004c60 f   unity_dll.obj
 0001:000040d0       ?zt_sin@@YAMM@Z            100050d0 f   unity_dll.obj
 0001:000040f0       ?zt_asin@@YAMM@Z           100050f0 f   unity_dll.obj
 0001:00004110       ?zt_cos@@YAMM@Z            10005110 f   unity_dll.obj
 0001:00004130       ?zt_acos@@YAMM@Z           10005130 f   unity_dll.obj
 0001:00004150       ?zt_tan@@YAMM@Z            10005150 f   unity_dll.obj
 0001:00004170       ?zt_atan2@@YAMMM@Z         10005170 f   unity_dll.obj
 0001:000041a0       ?zt_sqrt@@YAMM@Z           100051a0 f   unity_dll.obj
 0001:000041c0       ?zt_pow@@YAMMM@Z           100051c0 f   unity_dll.obj
 0001:000041f0       ?zt_registerFunctionPointer@@YAHPBDPAX@Z 100051f0 f   unity_dll.obj
 0001:000042b0       ?zt_functionPointer@@YAPAXH@Z 100052b0 f   unity_dll.obj
 0001:00004340       ?zt_logMessage@@YAXW4ztLogMessageLevel_Enum@@PBDZZ 10005340 f   unity_dll.obj
 0001:000043a0       ?zt_logVerbose@@YAXPBDZZ   100053a0 f   unity_dll.obj
 0001:00004400       ?zt_logDebug@@YAXPBDZZ     10005400 f   unity_dll.obj
 0001:00004460       ?zt_logInfo@@YAXPBDZZ      10005460 f   unity_dll.obj
 0001:000044c0       ?zt_logCritical@@YAXPBDZZ  100054c0 f   unity_dll.obj
 0001:00004520       ?zt_logFatal@@YAXPBDZZ     10005520 f   unity_dll.obj
 0001:00004580       ?zt_logAddCallback@@YAXP6AXW4ztLogMessageLevel_Enum@@PBD@Z0@Z 10005580 f   unity_dll.obj
 0001:000045f0       ?zt_logRemoveCallback@@YAXP6AXW4ztLogMessageLevel_Enum@@PBD@Z@Z 100055f0 f   unity_dll.obj
 0001:000046b0       ?zt_memSet@@YAXPAXHE@Z     100056b0 f   unity_dll.obj
 0001:000046f0       ?zt_memCpy@@YAXPAXHPBXH@Z  100056f0 f   unity_dll.obj
 0001:00004820       ?zt_memCmp@@YAHPBX0H@Z     10005820 f   unity_dll.obj
 0001:00004890       ?zt_memMakeArena@@YAPAUztMemoryArena@@HPAU1@@Z 10005890 f   unity_dll.obj
 0001:00004960       ?zt_memFreeArena@@YAXPAUztMemoryArena@@@Z 10005960 f   unity_dll.obj
 0001:000049b0       ?zt_memAllocFromArena@@YAPAXPAUztMemoryArena@@H@Z 100059b0 f   unity_dll.obj
 0001:00004e40       ?zt_memAllocFromArena@@YAPAXPAUztMemoryArena@@HPBDH@Z 10005e40 f   unity_dll.obj
 0001:00004e90       ?zt_memRealloc@@YAPAXPAUztMemoryArena@@PAXH@Z 10005e90 f   unity_dll.obj
 0001:00005060       ?zt_memFree@@YAXPAUztMemoryArena@@PAX@Z 10006060 f   unity_dll.obj
 0001:000052f0       ?zt_memArenaClearAllocations@@YAXPAUztMemoryArena@@_N@Z 100062f0 f   unity_dll.obj
 0001:00005350       ?zt_memDumpArena@@YAXPAUztMemoryArena@@PBDW4ztLogMessageLevel_Enum@@@Z 10006350 f   unity_dll.obj
 0001:000054d0       ?zt_memDumpArenaDiagnostics@@YAXPAUztMemoryArena@@PBDW4ztLogMessageLevel_Enum@@@Z 100064d0 f   unity_dll.obj
 0001:00005530       ?zt_memArenaValidate@@YA_NPAUztMemoryArena@@@Z 10006530 f   unity_dll.obj
 0001:000055d0       ?zt_memPushGlobalArena@@YA_NPAUztMemoryArena@@@Z 100065d0 f   unity_dll.obj
 0001:00005650       ?zt_memPopGlobalArena@@YAXXZ 10006650 f   unity_dll.obj
 0001:000056a0       ?zt_memGetGlobalArena@@YAPAUztMemoryArena@@XZ 100066a0 f   unity_dll.obj
 0001:000056d0       ?zt_memSetDefaultMallocFree@@YAXP6APAXI@ZP6AXPAX@Z@Z 100066d0 f   unity_dll.obj
 0001:00005700       ?zt_memAllocGlobalFull@@YAPAXHPBDH@Z 10006700 f   unity_dll.obj
 0001:00005750       ?zt_memFreeGlobal@@YAXPAX@Z 10006750 f   unity_dll.obj
 0001:00005790       ?zt_strValid@@YA_NPBDPAPBD@Z 10006790 f   unity_dll.obj
 0001:00005a60       ?zt_strCodepoint@@YAPBDPBDPAH@Z 10006a60 f   unity_dll.obj
 0001:00005bd0       ?zt_strCodepoint@@YAHPBDH@Z 10006bd0 f   unity_dll.obj
 0001:00005c10       ?zt_strEquals@@YA_NPBD0_N@Z 10006c10 f   unity_dll.obj
 0001:00005c80       ?zt_strLen@@YAHPBD@Z       10006c80 f   unity_dll.obj
 0001:00005d20       ?zt_strSize@@YAHPBD@Z      10006d20 f   unity_dll.obj
 0001:00005d60       ?zt_strMoveForward@@YAPBDPBDH@Z 10006d60 f   unity_dll.obj
 0001:00005e10       ?zt_strCmp@@YAHPBD0@Z      10006e10 f   unity_dll.obj
 0001:00005f00       ?zt_striCmp@@YAHPBD0@Z     10006f00 f   unity_dll.obj
 0001:00006030       ?zt_strCpy@@YAHPADHPBD@Z   10007030 f   unity_dll.obj
 0001:00006060       ?zt_strCpy@@YAHPADHPBDH@Z  10007060 f   unity_dll.obj
 0001:00006100       ?zt_strToInt@@YAHPBDHPA_N@Z 10007100 f   unity_dll.obj
 0001:00006130       ?zt_strToInt@@YAHPBDHHPA_N@Z 10007130 f   unity_dll.obj
 0001:00006300       ?zt_strToIntHex@@YAIPBDIPA_N@Z 10007300 f   unity_dll.obj
 0001:00006330       ?zt_strToIntHex@@YAIPBDHIPA_N@Z 10007330 f   unity_dll.obj
 0001:00006560       ?zt_strToReal32@@YAMPBDMPA_N@Z 10007560 f   unity_dll.obj
 0001:00006590       ?zt_strToReal32@@YAMPBDHMPA_N@Z 10007590 f   unity_dll.obj
 0001:000066c0       ?zt_strToReal64@@YANPBDNPA_N@Z 100076c0 f   unity_dll.obj
 0001:000066f0       ?zt_strToReal64@@YANPBDHNPA_N@Z 100076f0 f   unity_dll.obj
 0001:00006830       ?zt_strHash@@YAIPBD@Z      10007830 f   unity_dll.obj
 0001:00006970       ?zt_strFind@@YAPBDPBD0@Z   10007970 f   unity_dll.obj
 0001:000069a0       ?zt_strFind@@YAPBDPBDH0@Z  100079a0 f   unity_dll.obj
 0001:00006a70       ?zt_strFindPos@@YAHPBD0H@Z 10007a70 f   unity_dll.obj
 0001:00006aa0       ?zt_strFindPos@@YAHPBDH0H@Z 10007aa0 f   unity_dll.obj
 0001:00006ba0       ?zt_strFindLast@@YAPBDPBD0@Z 10007ba0 f   unity_dll.obj
 0001:00006bd0       ?zt_strFindLast@@YAPBDPBDH0@Z 10007bd0 f   unity_dll.obj
 0001:00006c60       ?zt_strFindLastPos@@YAHPBD0H@Z 10007c60 f   unity_dll.obj
 0001:00006c90       ?zt_strFindLastPos@@YAHPBDH0H@Z 10007c90 f   unity_dll.obj
 0001:00006d60       ?zt_striFind@@YAPBDPBD0@Z  10007d60 f   unity_dll.obj
 0001:00006d90       ?zt_striFind@@YAPBDPBDH0@Z 10007d90 f   unity_dll.obj
 0001:00006ec0       ?zt_striFindPos@@YAHPBD0H@Z 10007ec0 f   unity_dll.obj
 0001:00006ef0       ?zt_striFindPos@@YAHPBDH0H@Z 10007ef0 f   unity_dll.obj
 0001:00007050       ?zt_striFindLast@@YAPBDPBD0@Z 10008050 f   unity_dll.obj
 0001:00007080       ?zt_striFindLast@@YAPBDPBDH0@Z 10008080 f   unity_dll.obj
 0001:00007110       ?zt_striFindLastPos@@YAHPBD0H@Z 10008110 f   unity_dll.obj
 0001:00007140       ?zt_striFindLastPos@@YAHPBDH0H@Z 10008140 f   unity_dll.obj
 0001:00007270       ?zt_strCount@@YAHPBD0@Z    10008270 f   unity_dll.obj
 0001:000072a0       ?zt_strCount@@YAHPBDH0@Z   100082a0 f   unity_dll.obj
 0001:00007300       ?zt_striCount@@YAHPBD0@Z   10008300 f   unity_dll.obj
 0001:00007330       ?zt_striCount@@YAHPBDH0@Z  10008330 f   unity_dll.obj
 0001:00007390       ?zt_strStartsWith@@YA_NPBD0@Z 10008390 f   unity_dll.obj
 0001:000073c0       ?zt_strStartsWith@@YA_NPBDH0H@Z 100083c0 f   unity_dll.obj
 0001:00007430       ?zt_strEndsWith@@YA_NPBD0@Z 10008430 f   unity_dll.obj
 0001:00007460       ?zt_strEndsWith@@YA_NPBDH0H@Z 10008460 f   unity_dll.obj
 0001:000074e0       ?zt_striStartsWith@@YA_NPBD0@Z 100084e0 f   unity_dll.obj
 0001:00007510       ?zt_striStartsWith@@YA_NPBDH0H@Z 10008510 f   unity_dll.obj
 0001:000075f0       ?zt_striEndsWith@@YA_NPBD0@Z 100085f0 f   unity_dll.obj
 0001:00007620       ?zt_striEndsWith@@YA_NPBDH0H@Z 10008620 f   unity_dll.obj
 0001:00007710       ?zt_strJumpToNextToken@@YAPBDPBD@Z 10008710 f   unity_dll.obj
 0001:00007730       ?zt_strJumpToNextToken@@YAPBDPBDH@Z 10008730 f   unity_dll.obj
 0001:000077c0       ?zt_strGetNextTokenPos@@YAHPBD@Z 100087c0 f   unity_dll.obj
 0001:000077e0       ?zt_strGetNextTokenPos@@YAHPBDH@Z 100087e0 f   unity_dll.obj
 0001:00007860       ?zt_strJumpToNextLine@@YAPBDPBD@Z 10008860 f   unity_dll.obj
 0001:00007880       ?zt_strJumpToNextLine@@YAPBDPBDH@Z 10008880 f   unity_dll.obj
 0001:000078e0       ?zt_strGetNextLinePos@@YAHPBD@Z 100088e0 f   unity_dll.obj
 0001:00007900       ?zt_strGetNextLinePos@@YAHPBDH@Z 10008900 f   unity_dll.obj
 0001:00007960       ?zt_strGetBetween@@YAHPADHPBD11HH@Z 10008960 f   unity_dll.obj
 0001:000079a0       ?zt_strGetBetween@@YAHPADHPBDH11HH@Z 100089a0 f   unity_dll.obj
 0001:00007ab0       ?zt_strTokenize@@YAHPBD0PAUztToken@@HH@Z 10008ab0 f   unity_dll.obj
 0001:00007ae0       ?zt_strTokenize@@YAHPBDH0PAUztToken@@HH@Z 10008ae0 f   unity_dll.obj
 0001:00007fa0       ?zt_strPrintf@@YAHPADHPBDZZ 10008fa0 f   unity_dll.obj
 0001:00007fd0       ?zt_strBytesToString@@YAHPADHH@Z 10008fd0 f   unity_dll.obj
 0001:000080a0       ?zt_strNumberToString@@YAHPADH_J@Z 100090a0 f   unity_dll.obj
 0001:00008210       ?zt_strConvertToUTF16@@YAHPBDHPAGH@Z 10009210 f   unity_dll.obj
 0001:000082b0       ?zt_stringMake@@YAPADHPAUztMemoryArena@@@Z 100092b0 f   unity_dll.obj
 0001:00008300       ?zt_stringResize@@YAPADPADHPAUztMemoryArena@@@Z 10009300 f   unity_dll.obj
 0001:00008360       ?zt_stringMakeFrom@@YAPADPBDPAUztMemoryArena@@@Z 10009360 f   unity_dll.obj
 0001:000083b0       ?zt_stringOverwrite@@YAPADPADPBDPAUztMemoryArena@@@Z 100093b0 f   unity_dll.obj
 0001:00008410       ?zt_stringFree@@YAXPADPAUztMemoryArena@@@Z 10009410 f   unity_dll.obj
 0001:00008440       ?zt_stringSize@@YAHPAD@Z   10009440 f   unity_dll.obj
 0001:00008460       ?zt_fileOpen@@YA_NPAUztFile@@PBDW4ztFileOpenMethod_Enum@@PAUztMemoryArena@@@Z 10009460 f   unity_dll.obj
 0001:00008670       ?zt_fileClose@@YAXPAUztFile@@@Z 10009670 f   unity_dll.obj
 0001:000086f0       ?zt_fileGetReadPos@@YAHPAUztFile@@@Z 100096f0 f   unity_dll.obj
 0001:00008730       ?zt_fileSetReadPos@@YA_NPAUztFile@@H@Z 10009730 f   unity_dll.obj
 0001:000087c0       ?zt_fileGetFullPath@@YAHPAUztFile@@PADH@Z 100097c0 f   unity_dll.obj
 0001:00008810       ?zt_fileGetFileName@@YAHPAUztFile@@PADH@Z 10009810 f   unity_dll.obj
 0001:00008860       ?zt_fileGetFileExt@@YAHPAUztFile@@PADH@Z 10009860 f   unity_dll.obj
 0001:000088b0       ?zt_fileGetFullPath@@YAHPBDPADH@Z 100098b0 f   unity_dll.obj
 0001:00008940       ?zt_fileGetFileName@@YAHPBDPADH@Z 10009940 f   unity_dll.obj
 0001:000089f0       ?zt_fileGetFileExt@@YAHPBDPADH@Z 100099f0 f   unity_dll.obj
 0001:00008a60       ?zt_fileGetAppBin@@YAHPADH@Z 10009a60 f   unity_dll.obj
 0001:00008ad0       ?zt_fileGetAppPath@@YAHPADH@Z 10009ad0 f   unity_dll.obj
 0001:00008b70       ?zt_fileGetUserPath@@YAHPADH0@Z 10009b70 f   unity_dll.obj
 0001:00008cb0       ?zt_fileGetCurrentPath@@YAHPADH@Z 10009cb0 f   unity_dll.obj
 0001:00008cf0       ?zt_fileSetCurrentPath@@YAXPBD@Z 10009cf0 f   unity_dll.obj
 0001:00008d00       ?zt_fileGetFileInOtherFileDirectory@@YAHPADH00@Z 10009d00 f   unity_dll.obj
 0001:00008df0       ?zt_fileConcatFileToPath@@YAHPADHPBD1@Z 10009df0 f   unity_dll.obj
 0001:00008f90       ?zt_fileExists@@YA_NPBD@Z  10009f90 f   unity_dll.obj
 0001:00008ff0       ?zt_fileDelete@@YA_NPBD@Z  10009ff0 f   unity_dll.obj
 0001:00009030       ?zt_fileCopy@@YA_NPBD0@Z   1000a030 f   unity_dll.obj
 0001:00009070       ?zt_fileRename@@YA_NPBD0@Z 1000a070 f   unity_dll.obj
 0001:000090b0       ?zt_fileSize@@YAHPBD@Z     1000a0b0 f   unity_dll.obj
 0001:00009130       ?zt_fileModified@@YA_NPBDPAH111111@Z 1000a130 f   unity_dll.obj
 0001:00009250       ?zt_fileModified@@YA_NPBDPA_J@Z 1000a250 f   unity_dll.obj
 0001:00009330       ?zt_fileRead@@YAHPAUztFile@@PAXH@Z 1000a330 f   unity_dll.obj
 0001:000093f0       ?zt_fileWrite@@YAHPAUztFile@@PBXH@Z 1000a3f0 f   unity_dll.obj
 0001:000094c0       ?zt_fileWritef@@YA_NPAUztFile@@PBDZZ 1000a4c0 f   unity_dll.obj
 0001:00009530       ?zt_fileFlush@@YAXPAUztFile@@@Z 1000a530 f   unity_dll.obj
 0001:00009570       ?zt_readEntireFile@@YAPAXPBDPAH_NPAUztMemoryArena@@@Z 1000a570 f   unity_dll.obj
 0001:00009720       ?zt_readEntireFile@@YAHPBDPAXH_N@Z 1000a720 f   unity_dll.obj
 0001:000098b0       ?zt_writeEntireFile@@YAHPBDPAXHPAUztMemoryArena@@@Z 1000a8b0 f   unity_dll.obj
 0001:00009980       ?zt_directoryExists@@YA_NPBD@Z 1000a980 f   unity_dll.obj
 0001:000099c0       ?zt_directoryMake@@YA_NPBD@Z 1000a9c0 f   unity_dll.obj
 0001:000099f0       ?zt_directoryDelete@@YA_NPBD_N@Z 1000a9f0 f   unity_dll.obj
 0001:00009c00       ?zt_getDirectorySubs@@YAHPBDPADH_N@Z 1000ac00 f   unity_dll.obj
 0001:00009f40       ?zt_getDirectoryFiles@@YAHPBDPADH_N@Z 1000af40 f   unity_dll.obj
 0001:0000a290       ?zt_directoryMonitor@@YA_NPAUztDirectoryMonitor@@PBD_NH@Z 1000b290 f   unity_dll.obj
 0001:0000a4b0       ?zt_directoryStopMonitor@@YAXPAUztDirectoryMonitor@@@Z 1000b4b0 f   unity_dll.obj
 0001:0000a520       ?zt_directoryMonitorHasChanged@@YA_NPAUztDirectoryMonitor@@@Z 1000b520 f   unity_dll.obj
 0001:0000a650       ?zt_serialMakeWriter@@YA_NPAUztSerial@@PBD1H@Z 1000b650 f   unity_dll.obj
 0001:0000a730       ?zt_serialMakeWriter@@YA_NPAUztSerial@@PAUztFile@@PBDH@Z 1000b730 f   unity_dll.obj
 0001:0000a830       ?zt_serialMakeReader@@YA_NPAUztSerial@@PBD1@Z 1000b830 f   unity_dll.obj
 0001:0000a910       ?zt_serialMakeReader@@YA_NPAUztSerial@@PAXHPBD@Z 1000b910 f   unity_dll.obj
 0001:0000a9e0       ?zt_serialMakeReader@@YA_NPAUztSerial@@PAUztFile@@PBD@Z 1000b9e0 f   unity_dll.obj
 0001:0000aad0       ?zt_serialClose@@YAXPAUztSerial@@@Z 1000bad0 f   unity_dll.obj
 0001:0000aba0       ?zt_serialGroupPush@@YA_NPAUztSerial@@@Z 1000bba0 f   unity_dll.obj
 0001:0000ae50       ?zt_serialGroupPop@@YA_NPAUztSerial@@@Z 1000be50 f   unity_dll.obj
 0001:0000b180       ?zt_serialWrite@@YA_NPAUztSerial@@C@Z 1000c180 f   unity_dll.obj
 0001:0000b1a0       ?zt_serialWrite@@YA_NPAUztSerial@@F@Z 1000c1a0 f   unity_dll.obj
 0001:0000b1c0       ?zt_serialWrite@@YA_NPAUztSerial@@H@Z 1000c1c0 f   unity_dll.obj
 0001:0000b1e0       ?zt_serialWrite@@YA_NPAUztSerial@@_J@Z 1000c1e0 f   unity_dll.obj
 0001:0000b200       ?zt_serialWrite@@YA_NPAUztSerial@@E@Z 1000c200 f   unity_dll.obj
 0001:0000b220       ?zt_serialWrite@@YA_NPAUztSerial@@G@Z 1000c220 f   unity_dll.obj
 0001:0000b240       ?zt_serialWrite@@YA_NPAUztSerial@@I@Z 1000c240 f   unity_dll.obj
 0001:0000b260       ?zt_serialWrite@@YA_NPAUztSerial@@_K@Z 1000c260 f   unity_dll.obj
 0001:0000b280       ?zt_serialWrite@@YA_NPAUztSerial@@M@Z 1000c280 f   unity_dll.obj
 0001:0000b2a0       ?zt_serialWrite@@YA_NPAUztSerial@@N@Z 1000c2a0 f   unity_dll.obj
 0001:0000b2c0       ?zt_serialWrite@@YA_NPAUztSerial@@_N@Z 1000c2c0 f   unity_dll.obj
 0001:0000b300       ?zt_serialWrite@@YA_NPAUztSerial@@PBDH@Z 1000c300 f   unity_dll.obj
 0001:0000b3b0       ?zt_serialWrite@@YA_NPAUztSerial@@PAXH@Z 1000c3b0 f   unity_dll.obj
 0001:0000b470       ?zt_serialRead@@YA_NPAUztSerial@@PAC@Z 1000c470 f   unity_dll.obj
 0001:0000b490       ?zt_serialRead@@YA_NPAUztSerial@@PAF@Z 1000c490 f   unity_dll.obj
 0001:0000b4b0       ?zt_serialRead@@YA_NPAUztSerial@@PAH@Z 1000c4b0 f   unity_dll.obj
 0001:0000b4d0       ?zt_serialRead@@YA_NPAUztSerial@@PA_J@Z 1000c4d0 f   unity_dll.obj
 0001:0000b4f0       ?zt_serialRead@@YA_NPAUztSerial@@PAE@Z 1000c4f0 f   unity_dll.obj
 0001:0000b510       ?zt_serialRead@@YA_NPAUztSerial@@PAG@Z 1000c510 f   unity_dll.obj
 0001:0000b530       ?zt_serialRead@@YA_NPAUztSerial@@PAI@Z 1000c530 f   unity_dll.obj
 0001:0000b550       ?zt_serialRead@@YA_NPAUztSerial@@PA_K@Z 1000c550 f   unity_dll.obj
 0001:0000b570       ?zt_serialRead@@YA_NPAUztSerial@@PAM@Z 1000c570 f   unity_dll.obj
 0001:0000b590       ?zt_serialRead@@YA_NPAUztSerial@@PAN@Z 1000c590 f   unity_dll.obj
 0001:0000b5b0       ?zt_serialRead@@YA_NPAUztSerial@@PA_N@Z 1000c5b0 f   unity_dll.obj
 0001:0000b600       ?zt_serialRead@@YA_NPAUztSerial@@PADHPAH@Z 1000c600 f   unity_dll.obj
 0001:0000b760       ?zt_serialRead@@YA_NPAUztSerial@@PAXHPAH@Z 1000c760 f   unity_dll.obj
 0001:0000b8b0       ?zt_randomInit@@YAXPAUztRandom@@H@Z 1000c8b0 f   unity_dll.obj
 0001:0000b900       ?zt_randomInt@@YAHPAUztRandom@@HH@Z 1000c900 f   unity_dll.obj
 0001:0000baa0       ?zt_randomVal@@YAMPAUztRandom@@@Z 1000caa0 f   unity_dll.obj
 0001:0000bad0       ?zt_randomVal@@YAMPAUztRandom@@MM@Z 1000cad0 f   unity_dll.obj
 0001:0000bb10       ?zt_iniFileGetValue@@YAHPBD000PADH@Z 1000cb10 f   unity_dll.obj
 0001:0000bb40       ?zt_iniFileGetValue@@YAHPBD00H@Z 1000cb40 f   unity_dll.obj
 0001:0000bc40       ?zt_iniFileGetValue@@YAMPBD00M@Z 1000cc40 f   unity_dll.obj
 0001:0000bd20       ?zt_iniFileSetValue@@YA_NPBD000@Z 1000cd20 f   unity_dll.obj
 0001:0000bd60       ?zt_cmdHasArg@@YA_NPAPBDHPBD1@Z 1000cd60 f   unity_dll.obj
 0001:0000be20       ?zt_cmdGetArg@@YA_NPAPBDHPBD1PADH@Z 1000ce20 f   unity_dll.obj
 0001:0000bfa0       ?zt_processRun@@YAHPBD@Z   1000cfa0 f   unity_dll.obj
 0001:0000bfc0       ?zt_processRun@@YAHPBDPADHPAH@Z 1000cfc0 f   unity_dll.obj
 0001:0000c2d0       ?zt_getTime@@YANXZ         1000d2d0 f   unity_dll.obj
 0001:0000c350       ?zt_sleep@@YAXM@Z          1000d350 f   unity_dll.obj
 0001:0000c380       ?zt_getDate@@YAXPAH00000@Z 1000d380 f   unity_dll.obj
 0001:0000c420       ?zt_getDate@@YA?AUztDate@@XZ 1000d420 f   unity_dll.obj
 0001:0000c490       ??M@YA_NAAUztDate@@0@Z     1000d490 f   unity_dll.obj
 0001:0000c580       ??O@YA_NAAUztDate@@0@Z     1000d580 f   unity_dll.obj
 0001:0000c5d0       ??8@YA_NAAUztDate@@0@Z     1000d5d0 f   unity_dll.obj
 0001:0000c640       ??9@YA_NAAUztDate@@0@Z     1000d640 f   unity_dll.obj
 0001:0000c680       ?ztgl_contextMake@@YAPAUztContextGL@@PAXHHHH@Z 1000d680 f   unity_dll.obj
 0001:0000c6b0       ?ztgl_contextMake@@YAPAUztContextGL@@PAUztMemoryArena@@PAXHHHH@Z 1000d6b0 f   unity_dll.obj
 0001:0000c6e0       ?ztgl_contextFree@@YAXPAUztContextGL@@@Z 1000d6e0 f   unity_dll.obj
 0001:0000c720       ?ztgl_contextDisplay@@YAXPAUztContextGL@@@Z 1000d720 f   unity_dll.obj
 0001:0000c740       ?ztgl_contextGetSize@@YA?AUztPoint2@@PAUztContextGL@@@Z 1000d740 f   unity_dll.obj
 0001:0000c790       ?ztgl_contextSetSize@@YA_NPAUztContextGL@@HH@Z 1000d790 f   unity_dll.obj
 0001:0000c7b0       ?ztgl_contextIsFullscreen@@YA_NPAUztContextGL@@@Z 1000d7b0 f   unity_dll.obj
 0001:0000c800       ?ztgl_contextToggleFullscreen@@YA_NPAUztContextGL@@_N@Z 1000d800 f   unity_dll.obj
 0001:0000c840       ?ztgl_setViewport@@YA_NHH@Z 1000d840 f   unity_dll.obj
 0001:0000c880       ?ztgl_setViewport@@YA_NPAUztContextGL@@@Z 1000d880 f   unity_dll.obj
 0001:0000c8a0       ?ztgl_cullFront@@YAXXZ     1000d8a0 f   unity_dll.obj
 0001:0000c8c0       ?ztgl_cullBack@@YAXXZ      1000d8c0 f   unity_dll.obj
 0001:0000c8e0       ?ztgl_cullNone@@YAXXZ      1000d8e0 f   unity_dll.obj
 0001:0000c8f0       ?ztgl_depthTestOff@@YAXXZ  1000d8f0 f   unity_dll.obj
 0001:0000c900       ?ztgl_depthTestNever@@YAXXZ 1000d900 f   unity_dll.obj
 0001:0000c920       ?ztgl_depthTestLess@@YAXXZ 1000d920 f   unity_dll.obj
 0001:0000c940       ?ztgl_depthTestLessEqual@@YAXXZ 1000d940 f   unity_dll.obj
 0001:0000c960       ?ztgl_depthTestEqual@@YAXXZ 1000d960 f   unity_dll.obj
 0001:0000c980       ?ztgl_depthTestGreater@@YAXXZ 1000d980 f   unity_dll.obj
 0001:0000c9a0       ?ztgl_depthTestNotEqual@@YAXXZ 1000d9a0 f   unity_dll.obj
 0001:0000c9c0       ?ztgl_depthTestGreaterEqual@@YAXXZ 1000d9c0 f   unity_dll.obj
 0001:0000c9e0       ?ztgl_depthTestAlways@@YAXXZ 1000d9e0 f   unity_dll.obj
 0001:0000ca00       ?ztgl_checkAndReportError@@YA_NPBD@Z 1000da00 f   unity_dll.obj
 0001:0000ca70       ?ztgl_clearErrors@@YAHXZ   1000da70 f   unity_dll.obj
 0001:0000cab0       ?ztgl_shaderMake@@YAPAUztShaderGL@@PBD00@Z 1000dab0 f   unity_dll.obj
 0001:0000cad0       ?ztgl_shaderMake@@YAPAUztShaderGL@@PAUztMemoryArena@@PBD11@Z 1000dad0 f   unity_dll.obj
 0001:0000ce40       ?ztgl_shaderFree@@YAXPAUztShaderGL@@@Z 1000de40 f   unity_dll.obj
 0001:0000cf70       ?ztgl_shaderBegin@@YAXPAUztShaderGL@@@Z 1000df70 f   unity_dll.obj
 0001:0000cfc0       ?ztgl_shaderEnd@@YAXPAUztShaderGL@@@Z 1000dfc0 f   unity_dll.obj
 0001:0000d010       ?ztgl_shaderHasVariable@@YA_NPAUztShaderGL@@I@Z 1000e010 f   unity_dll.obj
 0001:0000d080       ?ztgl_shaderVariableFloat@@YAXPAUztShaderGL@@IM@Z 1000e080 f   unity_dll.obj
 0001:0000d0c0       ?ztgl_shaderVariableInt@@YAXPAUztShaderGL@@IH@Z 1000e0c0 f   unity_dll.obj
 0001:0000d0f0       ?ztgl_shaderVariableVec2@@YAXPAUztShaderGL@@IQAM@Z 1000e0f0 f   unity_dll.obj
 0001:0000d130       ?ztgl_shaderVariableVec3@@YAXPAUztShaderGL@@IQAM@Z 1000e130 f   unity_dll.obj
 0001:0000d170       ?ztgl_shaderVariableVec4@@YAXPAUztShaderGL@@IQAM@Z 1000e170 f   unity_dll.obj
 0001:0000d1b0       ?ztgl_shaderVariableMat4@@YAXPAUztShaderGL@@IQAM@Z 1000e1b0 f   unity_dll.obj
 0001:0000d1f0       ?ztgl_shaderVariableMat3@@YAXPAUztShaderGL@@IQAM@Z 1000e1f0 f   unity_dll.obj
 0001:0000d230       ?ztgl_shaderVariableTex@@YAXPAUztShaderGL@@IPAUztTextureGL@@@Z 1000e230 f   unity_dll.obj
 0001:0000d290       ?ztgl_textureMakeFromPixelData@@YAPAUztTextureGL@@PAEHHHH@Z 1000e290 f   unity_dll.obj
 0001:0000d2c0       ?ztgl_textureMakeFromPixelData@@YAPAUztTextureGL@@PAUztMemoryArena@@PAEHHHH@Z 1000e2c0 f   unity_dll.obj
 0001:0000d2f0       ?ztgl_textureMakeCubeMapFromPixelData@@YAPAUztTextureGL@@PAPAEHHH@Z 1000e2f0 f   unity_dll.obj
 0001:0000d320       ?ztgl_textureMakeCubeMapFromPixelData@@YAPAUztTextureGL@@PAUztMemoryArena@@PAPAEHHH@Z 1000e320 f   unity_dll.obj
 0001:0000d3e0       ?ztgl_textureMakeRenderTarget@@YAPAUztTextureGL@@HHH@Z 1000e3e0 f   unity_dll.obj
 0001:0000d400       ?ztgl_textureMakeRenderTarget@@YAPAUztTextureGL@@PAUztMemoryArena@@HHH@Z 1000e400 f   unity_dll.obj
 0001:0000d430       ?ztgl_textureMakeDepthRenderTarget@@YAPAUztTextureGL@@HH@Z 1000e430 f   unity_dll.obj
 0001:0000d450       ?ztgl_textureMakeDepthRenderTarget@@YAPAUztTextureGL@@PAUztMemoryArena@@HH@Z 1000e450 f   unity_dll.obj
 0001:0000d470       ?ztgl_textureFree@@YAXPAUztTextureGL@@@Z 1000e470 f   unity_dll.obj
 0001:0000d540       ?ztgl_textureBindReset@@YAXPAUztShaderGL@@@Z 1000e540 f   unity_dll.obj
 0001:0000d590       ?ztgl_textureBind@@YAXPAUztTextureGL@@H@Z 1000e590 f   unity_dll.obj
 0001:0000d5e0       ?ztgl_textureRenderTargetPrepare@@YAXPAUztTextureGL@@@Z 1000e5e0 f   unity_dll.obj
 0001:0000d6a0       ?ztgl_textureRenderTargetCommit@@YAXPAUztTextureGL@@PAUztContextGL@@@Z 1000e6a0 f   unity_dll.obj
 0001:0000d760       ?ztgl_textureIsRenderTarget@@YA_NPAUztTextureGL@@@Z 1000e760 f   unity_dll.obj
 0001:0000d7b0       ?ztgl_drawVertices@@YAXIPAUztVertexEntryGL@@HPAXH@Z 1000e7b0 f   unity_dll.obj
 0001:0000d8e0       ?ztgl_vertexArrayMake@@YAPAUztVertexArrayGL@@PAUztVertexEntryGL@@HPAXH@Z 1000e8e0 f   unity_dll.obj
 0001:0000d910       ?ztgl_vertexArrayMake@@YAPAUztVertexArrayGL@@PAUztMemoryArena@@PAUztVertexEntryGL@@HPAXH@Z 1000e910 f   unity_dll.obj
 0001:0000dc00       ?ztgl_vertexArrayFree@@YAXPAUztVertexArrayGL@@@Z 1000ec00 f   unity_dll.obj
 0001:0000dc70       ?ztgl_vertexArrayUpdate@@YA_NPAUztVertexArrayGL@@PAXH@Z 1000ec70 f   unity_dll.obj
 0001:0000de80       ?ztgl_vertexArrayDraw@@YAXPAUztVertexArrayGL@@I@Z 1000ee80 f   unity_dll.obj
 0001:0000deb0       ?ztds_contextMake@@YAPAUztDirectSoundContext@@PAUHWND__@@PAW4ztDirectSoundContextError_Enum@@@Z 1000eeb0 f   unity_dll.obj
 0001:0000e110       ?ztds_contextFree@@YAXPAUztDirectSoundContext@@@Z 1000f110 f   unity_dll.obj
 0001:0000e190       ?ztds_bufferMake@@YAPAUztDirectSoundBuffer@@PAUztDirectSoundContext@@PAEHPAW4ztDirectSoundBufferError_Enum@@@Z 1000f190 f   unity_dll.obj
 0001:0000e590       ?ztds_bufferFree@@YAXPAUztDirectSoundBuffer@@@Z 1000f590 f   unity_dll.obj
 0001:0000e630       ?ztds_bufferGetDetails@@YAXPAUztDirectSoundBuffer@@PAH11PAM@Z 1000f630 f   unity_dll.obj
 0001:0000e6b0       ?ztds_bufferPlay@@YAXPAUztDirectSoundBuffer@@@Z 1000f6b0 f   unity_dll.obj
 0001:0000e6d0       ?ztds_bufferPlayLooping@@YAXPAUztDirectSoundBuffer@@@Z 1000f6d0 f   unity_dll.obj
 0001:0000e6f0       ?ztds_bufferStop@@YAXPAUztDirectSoundBuffer@@@Z 1000f6f0 f   unity_dll.obj
 0001:0000e810       ?zt_currentRenderer@@YA?AW4ztRenderer_Enum@@XZ 1000f810 f   unity_dll.obj
 0001:0000e830       ?zt_pixelsPerUnit@@YAMXZ   1000f830 f   unity_dll.obj
 0001:0000e860       ?zt_inputThisFrame@@YA_NXZ 1000f860 f   unity_dll.obj
 0001:0000e870       ?zt_inputKeysAccessState@@YAPAUztInputKeys@@XZ 1000f870 f   unity_dll.obj
 0001:0000e880       ?zt_inputKeysCopyState@@YAXQAUztInputKeys@@@Z 1000f880 f   unity_dll.obj
 0001:0000e8b0       ?zt_inputGetKeyStrokes@@YAXQAW4ztInputKeys_Enum@@@Z 1000f8b0 f   unity_dll.obj
 0001:0000e8e0       ?zt_inputMouseAccessState@@YAPAUztInputMouse@@XZ 1000f8e0 f   unity_dll.obj
 0001:0000e8f0       ?zt_inputMouseCopyState@@YAXPAUztInputMouse@@@Z 1000f8f0 f   unity_dll.obj
 0001:0000e910       ?zt_inputMouseLook@@YAX_N@Z 1000f910 f   unity_dll.obj
 0001:0000e930       ?zt_inputMouseIsLook@@YA_NXZ 1000f930 f   unity_dll.obj
 0001:0000e940       ?zt_inputMouseSetCursor@@YAXW4ztInputMouseCursor_Enum@@@Z 1000f940 f   unity_dll.obj
 0001:0000ea00       ?zt_inputControllerAccessState@@YAPAUztInputController@@H@Z 1000fa00 f   unity_dll.obj
 0001:0000ea40       ?zt_inputControllerCopyState@@YAXPAUztInputController@@H@Z 1000fa40 f   unity_dll.obj
 0001:0000eaa0       ?zt_inputControllerTriggerHapticFeedback@@YAXHMM@Z 1000faa0 f   unity_dll.obj
 0001:0000ead0       ?zt_assetMakePackedFile@@YA_NPBD0PAUztMemoryArena@@@Z 1000fad0 f   unity_dll.obj
 0001:0000eae0       ?zt_assetManagerLoadDirectory@@YA_NPAUztAssetManager@@PBDPAUztMemoryArena@@@Z 1000fae0 f   unity_dll.obj
 0001:0000ef40       ?zt_assetManagerLoadPackedFile@@YA_NPAUztAssetManager@@PBDPAUztMemoryArena@@@Z 1000ff40 f   unity_dll.obj
 0001:0000ef50       ?zt_assetManagerFree@@YAXPAUztAssetManager@@@Z 1000ff50 f   unity_dll.obj
 0001:0000eff0       ?zt_assetExists@@YA_NPAUztAssetManager@@PBD@Z 1000fff0 f   unity_dll.obj
 0001:0000f010       ?zt_assetExists@@YA_NPAUztAssetManager@@H@Z 10010010 f   unity_dll.obj
 0001:0000f080       ?zt_assetFileExistsAsAsset@@YA_NPAUztAssetManager@@PBDPAH@Z 10010080 f   unity_dll.obj
 0001:0000f1b0       ?zt_assetLoad@@YAHPAUztAssetManager@@PBD@Z 100101b0 f   unity_dll.obj
 0001:0000f1d0       ?zt_assetLoad@@YAHPAUztAssetManager@@H@Z 100101d0 f   unity_dll.obj
 0001:0000f240       ?zt_assetLoad@@YAHPAUztAssetManager@@PBDH@Z 10010240 f   unity_dll.obj
 0001:0000f360       ?zt_assetSize@@YAHPAUztAssetManager@@H@Z 10010360 f   unity_dll.obj
 0001:0000f3d0       ?zt_assetLoadData@@YA_NPAUztAssetManager@@HPAXH@Z 100103d0 f   unity_dll.obj
 0001:0000f520       ?zt_assetClearCache@@YA_NPAUztAssetManager@@H@Z 10010520 f   unity_dll.obj
 0001:0000f5f0       ?zt_assetAddReloadCallback@@YAXPAUztAssetManager@@HP6AX0HPAX@Z1@Z 100105f0 f   unity_dll.obj
 0001:0000f710       ?zt_assetRemoveReloadCallback@@YAXPAUztAssetManager@@HPAX@Z 10010710 f   unity_dll.obj
 0001:0000f8d0       ?zt_assetManagerCheckForChanges@@YAXPAUztAssetManager@@@Z 100108d0 f   unity_dll.obj
 0001:0000fc70       ?zt_shaderMake@@YAHPAUztAssetManager@@H@Z 10010c70 f   unity_dll.obj
 0001:0000fe50       ?zt_shaderFree@@YAXH@Z     10010e50 f   unity_dll.obj
 0001:0000ff00       ?zt_shaderSetCameraMatrices@@YAXHABUztMat4@@0@Z 10010f00 f   unity_dll.obj
 0001:0000ffc0       ?zt_shaderSetModelMatrices@@YAXHABUztMat4@@@Z 10010fc0 f   unity_dll.obj
 0001:00010030       ?zt_shaderBegin@@YAXH@Z    10011030 f   unity_dll.obj
 0001:000100b0       ?zt_shaderEnd@@YAXH@Z      100110b0 f   unity_dll.obj
 0001:00010140       ?zt_shaderPopulateVariables@@YAXHPAUztShaderVariableValues@@@Z 10011140 f   unity_dll.obj
 0001:00010200       ?zt_shaderApplyVariables@@YAXHPAUztShaderVariableValues@@@Z 10011200 f   unity_dll.obj
 0001:00010380       ?zt_shaderApplyVariables@@YAXH@Z 10011380 f   unity_dll.obj
 0001:000105a0       ?zt_shaderHasVariable@@YA_NHPBDPAW4ztShaderVariable_Enum@@@Z 100115a0 f   unity_dll.obj
 0001:00010600       ?zt_shaderSetVariableFloat@@YAXHPBDM@Z 10011600 f   unity_dll.obj
 0001:00010630       ?zt_shaderSetVariableInt@@YAXHPBDH@Z 10011630 f   unity_dll.obj
 0001:00010660       ?zt_shaderSetVariableVec2@@YAXHPBDABUztVec2@@@Z 10011660 f   unity_dll.obj
 0001:00010690       ?zt_shaderSetVariableVec3@@YAXHPBDABUztVec3@@@Z 10011690 f   unity_dll.obj
 0001:000106c0       ?zt_shaderSetVariableVec4@@YAXHPBDABUztVec4@@@Z 100116c0 f   unity_dll.obj
 0001:000106f0       ?zt_shaderSetVariableMat4@@YAXHPBDABUztMat4@@@Z 100116f0 f   unity_dll.obj
 0001:00010720       ?zt_shaderSetVariableMat3@@YAXHPBDQAM@Z 10011720 f   unity_dll.obj
 0001:00010750       ?zt_shaderSetVariableTex@@YAXHPBDH@Z 10011750 f   unity_dll.obj
 0001:00010780       ?zt_shaderSetVariableTexCube@@YAXHPBDH@Z 10011780 f   unity_dll.obj
 0001:000107b0       ?zt_shaderHasVariable@@YA_NHIPAW4ztShaderVariable_Enum@@@Z 100117b0 f   unity_dll.obj
 0001:00010810       ?zt_shaderSetVariableFloat@@YAXHIM@Z 10011810 f   unity_dll.obj
 0001:00010880       ?zt_shaderSetVariableInt@@YAXHIH@Z 10011880 f   unity_dll.obj
 0001:000108f0       ?zt_shaderSetVariableVec2@@YAXHIABUztVec2@@@Z 100118f0 f   unity_dll.obj
 0001:00010960       ?zt_shaderSetVariableVec3@@YAXHIABUztVec3@@@Z 10011960 f   unity_dll.obj
 0001:000109d0       ?zt_shaderSetVariableVec4@@YAXHIABUztVec4@@@Z 100119d0 f   unity_dll.obj
 0001:00010a40       ?zt_shaderSetVariableMat4@@YAXHIABUztMat4@@@Z 10011a40 f   unity_dll.obj
 0001:00010ab0       ?zt_shaderSetVariableMat3@@YAXHIQAM@Z 10011ab0 f   unity_dll.obj
 0001:00010b20       ?zt_shaderSetVariableTex@@YAXHIH@Z 10011b20 f   unity_dll.obj
 0001:00010b90       ?zt_shaderSetVariableTexCube@@YAXHIH@Z 10011b90 f   unity_dll.obj
 0001:00010c00       ?zt_shaderHasVariable@@YA_NPAUztShaderVariableValues@@PBDPAW4ztShaderVariable_Enum@@@Z 10011c00 f   unity_dll.obj
 0001:00010c30       ?zt_shaderSetVariableFloat@@YAXPAUztShaderVariableValues@@PBDM@Z 10011c30 f   unity_dll.obj
 0001:00010c60       ?zt_shaderSetVariableInt@@YAXPAUztShaderVariableValues@@PBDH@Z 10011c60 f   unity_dll.obj
 0001:00010c90       ?zt_shaderSetVariableVec2@@YAXPAUztShaderVariableValues@@PBDABUztVec2@@@Z 10011c90 f   unity_dll.obj
 0001:00010cc0       ?zt_shaderSetVariableVec3@@YAXPAUztShaderVariableValues@@PBDABUztVec3@@@Z 10011cc0 f   unity_dll.obj
 0001:00010cf0       ?zt_shaderSetVariableVec4@@YAXPAUztShaderVariableValues@@PBDABUztVec4@@@Z 10011cf0 f   unity_dll.obj
 0001:00010d20       ?zt_shaderSetVariableMat4@@YAXPAUztShaderVariableValues@@PBDABUztMat4@@@Z 10011d20 f   unity_dll.obj
 0001:00010d50       ?zt_shaderSetVariableMat3@@YAXPAUztShaderVariableValues@@PBDQAM@Z 10011d50 f   unity_dll.obj
 0001:00010d80       ?zt_shaderSetVariableTex@@YAXPAUztShaderVariableValues@@PBDH@Z 10011d80 f   unity_dll.obj
 0001:00010db0       ?zt_shaderSetVariableTexCube@@YAXPAUztShaderVariableValues@@PBDH@Z 10011db0 f   unity_dll.obj
 0001:00010de0       ?zt_shaderHasVariable@@YA_NPAUztShaderVariableValues@@IPAW4ztShaderVariable_Enum@@@Z 10011de0 f   unity_dll.obj
 0001:00010e80       ?zt_shaderSetVariableFloat@@YAXPAUztShaderVariableValues@@IM@Z 10011e80 f   unity_dll.obj
 0001:00010f20       ?zt_shaderSetVariableInt@@YAXPAUztShaderVariableValues@@IH@Z 10011f20 f   unity_dll.obj
 0001:00010fc0       ?zt_shaderSetVariableVec2@@YAXPAUztShaderVariableValues@@IABUztVec2@@@Z 10011fc0 f   unity_dll.obj
 0001:000110a0       ?zt_shaderSetVariableVec3@@YAXPAUztShaderVariableValues@@IABUztVec3@@@Z 100120a0 f   unity_dll.obj
 0001:000111a0       ?zt_shaderSetVariableVec4@@YAXPAUztShaderVariableValues@@IABUztVec4@@@Z 100121a0 f   unity_dll.obj
 0001:000112c0       ?zt_shaderSetVariableMat4@@YAXPAUztShaderVariableValues@@IABUztMat4@@@Z 100122c0 f   unity_dll.obj
 0001:00011380       ?zt_shaderSetVariableMat3@@YAXPAUztShaderVariableValues@@IQAM@Z 10012380 f   unity_dll.obj
 0001:00011440       ?zt_shaderSetVariableTex@@YAXPAUztShaderVariableValues@@IH@Z 10012440 f   unity_dll.obj
 0001:000114d0       ?zt_shaderSetVariableTexCube@@YAXPAUztShaderVariableValues@@IH@Z 100124d0 f   unity_dll.obj
 0001:00011560       ?zt_shaderGetDefault@@YAHW4ztShaderDefault_Enum@@@Z 10012560 f   unity_dll.obj
 0001:00011580       ?zt_textureMake@@YAHPAUztAssetManager@@HH@Z 10012580 f   unity_dll.obj
 0001:00011850       ?zt_textureMake@@YAHPAEHHH@Z 10012850 f   unity_dll.obj
 0001:000119a0       ?zt_textureMakeFromFile@@YAHPBDH@Z 100129a0 f   unity_dll.obj
 0001:00011a50       ?zt_textureMakeFromFileData@@YAHPAXHH@Z 10012a50 f   unity_dll.obj
 0001:00011ba0       ?zt_textureMakeFromPixelData@@YAHPAXHHH@Z 10012ba0 f   unity_dll.obj
 0001:00011c70       ?zt_textureMakeRenderTarget@@YAHHHH@Z 10012c70 f   unity_dll.obj
 0001:00011ce0       ?zt_textureMakeCubeMap@@YAHPAUztAssetManager@@PBD@Z 10012ce0 f   unity_dll.obj
 0001:00011dc0       ?zt_textureMakeCubeMap@@YAHPAUztAssetManager@@QAH@Z 10012dc0 f   unity_dll.obj
 0001:00012160       ?zt_textureFree@@YAXH@Z    10013160 f   unity_dll.obj
 0001:00012220       ?zt_textureRenderTargetPrepare@@YAXH@Z 10013220 f   unity_dll.obj
 0001:00012260       ?zt_textureRenderTargetCommit@@YAXH@Z 10013260 f   unity_dll.obj
 0001:000122b0       ?zt_textureGetSize@@YA?AUztPoint2@@H@Z 100132b0 f   unity_dll.obj
 0001:00012320       ?zt_materialMake@@YA?AUztMaterial@@HABUztVec4@@HH0HHHM@Z 10013320 f   unity_dll.obj
 0001:00012400       ?zt_materialLoad@@YAHPAUztAssetManager@@HPAUztMaterial@@H@Z 10013400 f   unity_dll.obj
 0001:000125a0       ?zt_materialLoadFromFile@@YAHPADPAUztMaterial@@H@Z 100135a0 f   unity_dll.obj
 0001:00012660       ?zt_materialFree@@YAXPAUztMaterial@@@Z 10013660 f   unity_dll.obj
 0001:000127c0       ?zt_materialIsEmpty@@YA_NPAUztMaterial@@@Z 100137c0 f   unity_dll.obj
 0001:00012820       ?zt_materialPrepare@@YAXPAUztMaterial@@HPAHPAIH@Z 10013820 f   unity_dll.obj
 0001:00012c30       ?zt_meshMake@@YAHPAUztVec3@@PAUztVec2@@0HPAIH@Z 10013c30 f   unity_dll.obj
 0001:000134c0       ?zt_meshFree@@YAXH@Z       100144c0 f   unity_dll.obj
 0001:00013530       ?zt_meshMakePrimitiveBox@@YAHMMM@Z 10014530 f   unity_dll.obj
 0001:000145a0       ?zt_meshMakePrimitivePlane@@YAHMMHH@Z 100155a0 f   unity_dll.obj
 0001:00014bc0       ?zt_meshMakePrimitiveDiamond@@YAHMMMH@Z 10015bc0 f   unity_dll.obj
 0001:00014e80       ?zt_meshMakePrimitiveSphere@@YAHMHW4ztMeshPrimativeSphere_Enum@@@Z 10015e80 f   unity_dll.obj
 0001:000160f0       ?zt_meshLoadOBJ@@YAHPAUztAssetManager@@HPAHPAUztMaterial@@HABUztVec3@@3@Z 100170f0 f   unity_dll.obj
 0001:00017b60       ?zt_meshRender@@YAXH@Z     10018b60 f   unity_dll.obj
 0001:00017c40       ?zt_cameraMakeOrtho@@YAXPAUztCamera@@HHHHMMABUztVec3@@@Z 10018c40 f   unity_dll.obj
 0001:00017e40       ?zt_cameraMakePersp@@YAXPAUztCamera@@HHMMMABUztVec3@@ABUztQuat@@@Z 10018e40 f   unity_dll.obj
 0001:00017f70       ?zt_cameraRecalcMatrices@@YAXPAUztCamera@@@Z 10018f70 f   unity_dll.obj
 0001:000180f0       ?zt_cameraCalcFinalMatrix@@YAXPAUztCamera@@PAUztMat4@@@Z 100190f0 f   unity_dll.obj
 0001:000182f0       ?zt_cameraSetMatrices@@YAXPAUztCamera@@AAUztMat4@@1@Z 100192f0 f   unity_dll.obj
 0001:00018420       ?zt_cameraOrthoGetExtents@@YAXPAUztCamera@@PAUztVec2@@1@Z 10019420 f   unity_dll.obj
 0001:000184e0       ?zt_cameraOrthoGetMaxExtent@@YA?AUztVec2@@PAUztCamera@@@Z 100194e0 f   unity_dll.obj
 0001:00018530       ?zt_cameraOrthoGetMinExtent@@YA?AUztVec2@@PAUztCamera@@@Z 10019530 f   unity_dll.obj
 0001:00018580       ?zt_cameraOrthoGetViewportSize@@YA?AUztVec2@@PAUztCamera@@@Z 10019580 f   unity_dll.obj
 0001:00018640       ?zt_cameraOrthoScreenToWorld@@YA?AUztVec2@@PAUztCamera@@HH@Z 10019640 f   unity_dll.obj
 0001:000187c0       ?zt_cameraOrthoWorldToScreen@@YA?AUztPoint2@@PAUztCamera@@AAUztVec2@@@Z 100197c0 f   unity_dll.obj
 0001:00018930       ?zt_cameraCalcViewFrustum@@YA?AUztFrustum@@PAUztCamera@@@Z 10019930 f   unity_dll.obj
 0001:00018d30       ?zt_cameraControllerMakeFPS@@YA?AUztCameraControllerFPS@@PAUztCamera@@UztVec3@@@Z 10019d30 f   unity_dll.obj
 0001:00018e60       ?zt_cameraControlUpdateFPS@@YAXPAUztCameraControllerFPS@@M@Z 10019e60 f   unity_dll.obj
 0001:000194d0       ?zt_cameraControlUpdateWASD@@YAXPAUztCameraControllerFPS@@PAUztInputMouse@@PAUztInputKeys@@M@Z 1001a4d0 f   unity_dll.obj
 0001:00019670       ?zt_vertexArrayMake@@YAHPAUztVertexArrayEntry@@HPAXH@Z 1001a670 f   unity_dll.obj
 0001:00019800       ?zt_vertexArrayFree@@YAXH@Z 1001a800 f   unity_dll.obj
 0001:00019880       ?zt_vertexArrayUpdate@@YA_NHPAXH@Z 1001a880 f   unity_dll.obj
 0001:000198f0       ?zt_vertexArrayDraw@@YAXHW4ztVertexArrayDrawType_Enum@@@Z 1001a8f0 f   unity_dll.obj
 0001:00019990       ?zt_drawListMake@@YA_NPAUztDrawList@@HHPAUztMemoryArena@@@Z 1001a990 f   unity_dll.obj
 0001:00019a30       ?zt_drawListFree@@YAXPAUztDrawList@@@Z 1001aa30 f   unity_dll.obj
 0001:00019a70       ?zt_drawListAddPoint@@YA_NPAUztDrawList@@ABUztVec3@@@Z 1001aa70 f   unity_dll.obj
 0001:00019b20       ?zt_drawListAddLine@@YA_NPAUztDrawList@@ABUztVec3@@1@Z 1001ab20 f   unity_dll.obj
 0001:00019c00       ?zt_drawListAddLine@@YA_NPAUztDrawList@@QBUztVec3@@@Z 1001ac00 f   unity_dll.obj
 0001:00019cf0       ?zt_drawListAddEmptyTriangle@@YA_NPAUztDrawList@@QBUztVec3@@@Z 1001acf0 f   unity_dll.obj
 0001:00019d50       ?zt_drawListAddEmptyTriangle@@YA_NPAUztDrawList@@ABUztVec3@@11@Z 1001ad50 f   unity_dll.obj
 0001:00019dc0       ?zt_drawListAddEmptyQuad@@YA_NPAUztDrawList@@QBUztVec3@@@Z 1001adc0 f   unity_dll.obj
 0001:00019e20       ?zt_drawListAddEmptyQuad@@YA_NPAUztDrawList@@ABUztVec3@@111@Z 1001ae20 f   unity_dll.obj
 0001:00019eb0       ?zt_drawListAddEmptyRect@@YA_NPAUztDrawList@@ABUztVec2@@1@Z 1001aeb0 f   unity_dll.obj
 0001:00019ef0       ?zt_drawListAddEmptyRect@@YA_NPAUztDrawList@@ABUztVec3@@ABUztVec2@@@Z 1001aef0 f   unity_dll.obj
 0001:0001a100       ?zt_drawListAddFilledTriangle@@YA_NPAUztDrawList@@QBUztVec3@@QBUztVec2@@1@Z 1001b100 f   unity_dll.obj
 0001:0001a270       ?zt_drawListAddFilledQuad@@YA_NPAUztDrawList@@ABUztVec3@@111ABUztVec2@@2221111@Z 1001b270 f   unity_dll.obj
 0001:0001a5f0       ?zt_drawListAddFilledQuad@@YA_NPAUztDrawList@@QBUztVec3@@QBUztVec2@@1@Z 1001b5f0 f   unity_dll.obj
 0001:0001a830       ?zt_drawListAddFilledRect2D@@YA_NPAUztDrawList@@ABUztVec2@@111@Z 1001b830 f   unity_dll.obj
 0001:0001a890       ?zt_drawListAddFilledRect2D@@YA_NPAUztDrawList@@ABUztVec3@@ABUztVec2@@22@Z 1001b890 f   unity_dll.obj
 0001:0001aa70       ?zt_drawListAddBillboard@@YA_NPAUztDrawList@@ABUztVec3@@ABUztVec2@@22H@Z 1001ba70 f   unity_dll.obj
 0001:0001ab90       ?zt_drawListAddFilledPoly@@YA_NPAUztDrawList@@PBUztVec3@@HQBUztVec2@@QBU2@@Z 1001bb90 f   unity_dll.obj
 0001:0001ade0       ?zt_drawListAddDrawList@@YA_NPAUztDrawList@@0ABUztVec3@@@Z 1001bde0 f   unity_dll.obj
 0001:0001b0b0       ?zt_drawListAddFrustum@@YA_NPAUztDrawList@@PAUztFrustum@@@Z 1001c0b0 f   unity_dll.obj
 0001:0001b290       ?zt_drawListAddFloorGrid@@YA_NPAUztDrawList@@ABUztVec3@@MMMM@Z 1001c290 f   unity_dll.obj
 0001:0001b480       ?zt_drawListAddVertexArray@@YA_NPAUztDrawList@@HW4ztVertexArrayDrawType_Enum@@@Z 1001c480 f   unity_dll.obj
 0001:0001b520       ?zt_drawListPushShader@@YA_NPAUztDrawList@@H@Z 1001c520 f   unity_dll.obj
 0001:0001b5d0       ?zt_drawListPopShader@@YA_NPAUztDrawList@@@Z 1001c5d0 f   unity_dll.obj
 0001:0001b690       ?zt_drawListPushColor@@YA_NPAUztDrawList@@ABUztVec4@@@Z 1001c690 f   unity_dll.obj
 0001:0001b750       ?zt_drawListPopColor@@YA_NPAUztDrawList@@@Z 1001c750 f   unity_dll.obj
 0001:0001b920       ?zt_drawListPushTexture@@YA_NPAUztDrawList@@H@Z 1001c920 f   unity_dll.obj
 0001:0001b9e0       ?zt_drawListPushTexture@@YA_NPAUztDrawList@@PAHH@Z 1001c9e0 f   unity_dll.obj
 0001:0001baf0       ?zt_drawListPopTexture@@YA_NPAUztDrawList@@@Z 1001caf0 f   unity_dll.obj
 0001:0001bcb0       ?zt_drawListPushClipRegion@@YA_NPAUztDrawList@@UztVec2@@1@Z 1001ccb0 f   unity_dll.obj
 0001:0001bda0       ?zt_drawListPopClipRegion@@YA_NPAUztDrawList@@@Z 1001cda0 f   unity_dll.obj
 0001:0001be70       ?zt_drawListGetCurrentShader@@YAHPAUztDrawList@@@Z 1001ce70 f   unity_dll.obj
 0001:0001bee0       ?zt_drawListReset@@YAXPAUztDrawList@@@Z 1001cee0 f   unity_dll.obj
 0001:0001bf10       ?zt_renderDrawList@@YAXPAUztCamera@@PAUztDrawList@@ABUztVec4@@HH@Z 1001cf10 f   unity_dll.obj
 0001:0001bf70       ?zt_renderDrawLists@@YAXPAUztCamera@@PAPAUztDrawList@@HABUztVec4@@HH@Z 1001cf70 f   unity_dll.obj
 0001:0001e070       ?zt_lightMakeDirectional@@YA?AUztLight@@ABUztVec3@@0MM_NABUztVec4@@@Z 1001f070 f   unity_dll.obj
 0001:0001e100       ?zt_lightMakeSpot@@YA?AUztLight@@ABUztVec3@@0M_NABUztVec4@@@Z 1001f100 f   unity_dll.obj
 0001:0001e190       ?zt_lightMakeArea@@YA?AUztLight@@ABUztVec3@@M_NABUztVec4@@@Z 1001f190 f   unity_dll.obj
 0001:0001e230       ?zt_modelMake@@YAPAUztModel@@PAUztMemoryArena@@HPAUztMaterial@@HPAUztShaderVariableValues@@HPAU1@@Z 1001f230 f   unity_dll.obj
 0001:0001e680       ?zt_modelFree@@YAXPAUztModel@@@Z 1001f680 f   unity_dll.obj
 0001:0001e710       ?zt_modelMakeSkybox@@YAPAUztModel@@PAUztMemoryArena@@H@Z 1001f710 f   unity_dll.obj
 0001:0001ef40       ?zt_sceneMake@@YAPAUztScene@@PAUztMemoryArena@@H@Z 1001ff40 f   unity_dll.obj
 0001:0001f000       ?zt_sceneFree@@YAXPAUztScene@@@Z 10020000 f   unity_dll.obj
 0001:0001f050       ?zt_sceneFreeAllModels@@YAXPAUztScene@@@Z 10020050 f   unity_dll.obj
 0001:0001f0f0       ?zt_sceneAddLight@@YAXPAUztScene@@PAUztLight@@@Z 100200f0 f   unity_dll.obj
 0001:0001f1a0       ?zt_sceneSetSkybox@@YAXPAUztScene@@PAUztModel@@@Z 100201a0 f   unity_dll.obj
 0001:0001f200       ?zt_sceneAddModel@@YAXPAUztScene@@PAUztModel@@@Z 10020200 f   unity_dll.obj
 0001:0001f360       ?zt_sceneRemoveModel@@YAXPAUztScene@@PAUztModel@@@Z 10020360 f   unity_dll.obj
 0001:0001f470       ?zt_sceneHasModel@@YA_NPAUztScene@@PAUztModel@@@Z 10020470 f   unity_dll.obj
 0001:0001f510       ?zt_sceneCull@@YAXPAUztScene@@PAUztCamera@@@Z 10020510 f   unity_dll.obj
 0001:0001f560       ?zt_sceneLighting@@YAXPAUztScene@@PAUztCamera@@@Z 10020560 f   unity_dll.obj
 0001:0001f6e0       ?zt_sceneRender@@YAXPAUztScene@@PAUztCamera@@@Z 100206e0 f   unity_dll.obj
 0001:0001f8e0       ?zt_rendererSupported@@YA_NW4ztRenderer_Enum@@@Z 100208e0 f   unity_dll.obj
 0001:0001f910       ?zt_rendererSupportedList@@YAHPAW4ztRenderer_Enum@@H@Z 10020910 f   unity_dll.obj
 0001:0001f940       ?zt_rendererVersionSupported@@YA_NW4ztRenderer_Enum@@HH@Z 10020940 f   unity_dll.obj
 0001:0001fa30       ?zt_rendererGetMaxVersionSupported@@YA_NW4ztRenderer_Enum@@PAH1@Z 10020a30 f   unity_dll.obj
 0001:0001fa90       ?zt_rendererClear@@YAXMMMM@Z 10020a90 f   unity_dll.obj
 0001:0001fb00       ?zt_rendererClear@@YAXUztVec4@@@Z 10020b00 f   unity_dll.obj
 0001:0001fb40       ?zt_rendererSetDepthTest@@YAX_NW4ztRendererDepthTestFunction_Enum@@@Z 10020b40 f   unity_dll.obj
 0001:0001fbf0       ?zt_rendererSetFaceCulling@@YAXW4ztRendererFaceCulling_Enum@@@Z 10020bf0 f   unity_dll.obj
 0001:0001fc40       ?zt_rendererRequestChange@@YAXW4ztRenderer_Enum@@@Z 10020c40 f   unity_dll.obj
 0001:0001fca0       ?zt_rendererRequestWindowed@@YAXXZ 10020ca0 f   unity_dll.obj
 0001:0001fd20       ?zt_rendererRequestFullscreen@@YAXXZ 10020d20 f   unity_dll.obj
 0001:0001fdb0       ?zt_alignToPixel@@YAXPAMM0@Z 10020db0 f   unity_dll.obj
 0001:0001ff00       ?zt_alignToPixel@@YAXPAUztVec2@@M@Z 10020f00 f   unity_dll.obj
 0001:0001ff40       ?zt_alignToPixel@@YAXPAUztVec3@@M@Z 10020f40 f   unity_dll.obj
 0001:0001ffa0       ?zt_fontGetCharsetStandard@@YAPBDPAH@Z 10020fa0 f   unity_dll.obj
 0001:0001fff0       ?zt_fontMakeFromTrueTypeAsset@@YAHPAUztAssetManager@@HHPBDH@Z 10020ff0 f   unity_dll.obj
 0001:000200a0       ?zt_fontMakeFromTrueTypeFile@@YAHPBDH0H@Z 100210a0 f   unity_dll.obj
 0001:00020180       ?zt_fontMakeFromBmpFontAsset@@YAHPAUztAssetManager@@HHABUztVec2@@@Z 10021180 f   unity_dll.obj
 0001:000201b0       ?zt_fontMakeFromBmpFontFile@@YAHPBDHABUztVec2@@@Z 100211b0 f   unity_dll.obj
 0001:00020230       ?zt_fontMakeFromBmpFontData@@YAHPBDHABUztVec2@@@Z 10021230 f   unity_dll.obj
 0001:00020250       ?zt_fontFree@@YAXH@Z       10021250 f   unity_dll.obj
 0001:00020320       ?zt_fontGetName@@YAPBDH@Z  10021320 f   unity_dll.obj
 0001:00020370       ?zt_fontGetSizeInPixels@@YAHH@Z 10021370 f   unity_dll.obj
 0001:000203c0       ?zt_fontGetExtents@@YA?AUztVec2@@HPBD@Z 100213c0 f   unity_dll.obj
 0001:000203f0       ?zt_fontGetExtents@@YA?AUztVec2@@HPBDH@Z 100213f0 f   unity_dll.obj
 0001:000204b0       ?zt_drawListAddText2D@@YAXPAUztDrawList@@HPBDUztVec2@@HH@Z 100214b0 f   unity_dll.obj
 0001:000204f0       ?zt_drawListAddText2D@@YAXPAUztDrawList@@HPBDHUztVec2@@HH@Z 100214f0 f   unity_dll.obj
 0001:00020eb0       ?zt_fontGetExtentsFancy@@YA?AUztVec2@@HPBD@Z 10021eb0 f   unity_dll.obj
 0001:00020ee0       ?zt_fontGetExtentsFancy@@YA?AUztVec2@@HPBDH@Z 10021ee0 f   unity_dll.obj
 0001:00020fa0       ?zt_drawListAddFancyText2D@@YAXPAUztDrawList@@HPBDUztVec2@@HH@Z 10021fa0 f   unity_dll.obj
 0001:00020fe0       ?zt_drawListAddFancyText2D@@YAXPAUztDrawList@@HPBDHUztVec2@@HH@Z 10021fe0 f   unity_dll.obj
 0001:00021e20       ?zt_spriteMake@@YA?AUztSprite@@HHHHHHH@Z 10022e20 f   unity_dll.obj
 0001:00021f70       ?zt_spriteMake@@YA?AUztSprite@@HUztPoint2@@00@Z 10022f70 f   unity_dll.obj
 0001:00021fd0       ?zt_spriteMakeFromGrid@@YA?AUztSprite@@HHHHHHH@Z 10022fd0 f   unity_dll.obj
 0001:00022030       ?zt_spriteMakeFromGrid@@YA?AUztSprite@@HUztPoint2@@00@Z 10023030 f   unity_dll.obj
 0001:00022090       ?zt_drawListAddSprite@@YAXPAUztDrawList@@PAUztSprite@@ABUztVec3@@@Z 10023090 f   unity_dll.obj
 0001:00022420       ?zt_drawListAddSprite@@YAXPAUztDrawList@@PAUztSprite@@ABUztVec3@@22@Z 10023420 f   unity_dll.obj
 0001:000228e0       ?zt_spriteNineSliceMake@@YA?AUztSpriteNineSlice@@HHHHHHHHHHHHH@Z 100238e0 f   unity_dll.obj
 0001:00022e20       ?zt_spriteNineSliceMake@@YA?AUztSpriteNineSlice@@HUztPoint2@@000HHHH@Z 10023e20 f   unity_dll.obj
 0001:00022ea0       ?zt_drawListAddSpriteNineSlice@@YAXPAUztDrawList@@PAUztSpriteNineSlice@@ABUztVec2@@2@Z 10023ea0 f   unity_dll.obj
 0001:00023d20       ?zt_collisionPointInRect@@YA_NABUztVec2@@00@Z 10024d20 f   unity_dll.obj
 0001:00023d80       ?zt_collisionPointInRect@@YA_NMMMMMM@Z 10024d80 f   unity_dll.obj
 0001:00023e00       ?zt_collisionPointInRectLL@@YA_NABUztVec2@@00@Z 10024e00 f   unity_dll.obj
 0001:00023e60       ?zt_collisionPointInRectLL@@YA_NMMMMMM@Z 10024e60 f   unity_dll.obj
 0001:00023ec0       ?zt_audioClipMake@@YAHPAUztAssetManager@@H@Z 10024ec0 f   unity_dll.obj
 0001:000240a0       ?zt_audioClipMakeFromFile@@YAHPBD@Z 100250a0 f   unity_dll.obj
 0001:00024150       ?zt_audioClipFree@@YAXH@Z  10025150 f   unity_dll.obj
 0001:000241c0       ?zt_audioClipPlayOnce@@YAXH@Z 100251c0 f   unity_dll.obj
 0001:00024230       ?zt_audioClipPlayLooped@@YAXH@Z 10025230 f   unity_dll.obj
 0001:000242a0       ?zt_audioClipIsPlaying@@YA_NH@Z 100252a0 f   unity_dll.obj
 0001:00024310       ?zt_audioClipStop@@YA_NH@Z 10025310 f   unity_dll.obj
 0001:000243b0       ?zt_guiInitGlobalMemory@@YAXPAUztMemoryArena@@@Z 100253b0 f   unity_dll.obj
 0001:000243c0       ?zt_drawListAddGuiThemeSprite@@YAXPAUztDrawList@@PAUztGuiThemeSprite@@ABUztVec2@@2@Z 100253c0 f   unity_dll.obj
 0001:000245f0       ?zt_drawListAddGuiThemeButtonSprite@@YAXPAUztDrawList@@PAUztGuiThemeButtonSprite@@ABUztVec2@@2_N3@Z 100255f0 f   unity_dll.obj
 0001:00024660       ?zt_guiThemeSpriteGetSize@@YA?AUztVec2@@PAUztGuiThemeSprite@@@Z 10025660 f   unity_dll.obj
 0001:000246e0       ?zt_guiThemeButtonSpriteGetSize@@YA?AUztVec2@@PAUztGuiThemeButtonSprite@@@Z 100256e0 f   unity_dll.obj
 0001:00024810       ?zt_guiManagerMake@@YAHPAUztCamera@@PAUztGuiTheme@@PAUztMemoryArena@@@Z 10025810 f   unity_dll.obj
 0001:00026e30       ?zt_guiManagerFree@@YAXH@Z 10027e30 f   unity_dll.obj
 0001:00026fb0       ?zt_guiManagerUpdate@@YAXHM@Z 10027fb0 f   unity_dll.obj
 0001:000272f0       ?zt_guiManagerHandleInput@@YA_NHQAUztInputKeys@@QAW4ztInputKeys_Enum@@PAUztInputMouse@@@Z 100282f0 f   unity_dll.obj
 0001:00027900       ?zt_guiManagerRender@@YAXHPAUztDrawList@@@Z 10028900 f   unity_dll.obj
 0001:000279d0       ?zt_guiSetActiveManager@@YAXH@Z 100289d0 f   unity_dll.obj
 0001:00027a30       ?zt_guiManagerSetKeyboardFocus@@YAXH_N@Z 10028a30 f   unity_dll.obj
 0001:00027a90       ?zt_guiManagerHasKeyboardFocus@@YA_NH@Z 10028a90 f   unity_dll.obj
 0001:00027af0       ?zt_guiMakeWindow@@YAHPBDH@Z 10028af0 f   unity_dll.obj
 0001:00028090       ?zt_guiMakeScrollWindow@@YAHPBDHH@Z 10029090 f   unity_dll.obj
 0001:000280f0       ?zt_guiMakePanel@@YAHHH@Z  100290f0 f   unity_dll.obj
 0001:00028240       ?zt_guiMakeCollapsingPanel@@YAHHPBD@Z 10029240 f   unity_dll.obj
 0001:00028510       ?zt_guiMakeStaticText@@YAHHPBDHH@Z 10029510 f   unity_dll.obj
 0001:00028740       ?zt_guiMakeButton@@YAHHPBDHPA_N@Z 10029740 f   unity_dll.obj
 0001:00028760       ?zt_guiMakeToggleButton@@YAHHPBDHPA_N@Z 10029760 f   unity_dll.obj
 0001:00028790       ?zt_guiMakeCheckbox@@YAHHPBDHPA_N@Z 10029790 f   unity_dll.obj
 0001:000287c0       ?zt_guiMakeRadioButton@@YAHHPBDHPA_N@Z 100297c0 f   unity_dll.obj
 0001:000287f0       ?zt_guiMakeSlider@@YAHHW4ztGuiItemOrient_Enum@@PAM@Z 100297f0 f   unity_dll.obj
 0001:00028810       ?zt_guiMakeScrollbar@@YAHHW4ztGuiItemOrient_Enum@@PAM@Z 10029810 f   unity_dll.obj
 0001:00028830       ?zt_guiMakeScrollContainer@@YAHHH@Z 10029830 f   unity_dll.obj
 0001:00028b40       ?zt_guiMakeTextEdit@@YAHHPBDHH@Z 10029b40 f   unity_dll.obj
 0001:00028f70       ?zt_guiMakeMenu@@YAHXZ     10029f70 f   unity_dll.obj
 0001:00028f80       ?zt_guiMakeTree@@YAHHH@Z   10029f80 f   unity_dll.obj
 0001:000291b0       ?zt_guiMakeComboBox@@YAHHH@Z 1002a1b0 f   unity_dll.obj
 0001:000293a0       ?zt_guiMakeSpriteDisplay@@YAHHPAUztGuiThemeSprite@@@Z 1002a3a0 f   unity_dll.obj
 0001:000294f0       ?zt_guiMakeSizer@@YAHHW4ztGuiItemOrient_Enum@@@Z 1002a4f0 f   unity_dll.obj
 0001:00029620       ?zt_guiItemFree@@YAXH@Z    1002a620 f   unity_dll.obj
 0001:000297d0       ?zt_guiItemSetSize@@YAXHABUztVec2@@@Z 1002a7d0 f   unity_dll.obj
 0001:000298d0       ?zt_guiItemAutoSize@@YAXH@Z 1002a8d0 f   unity_dll.obj
 0001:00029a70       ?zt_guiItemSetPosition@@YAXHABUztVec2@@@Z 1002aa70 f   unity_dll.obj
 0001:00029b60       ?zt_guiItemSetPosition@@YAXHHHUztVec2@@@Z 1002ab60 f   unity_dll.obj
 0001:00029d20       ?zt_guiItemSetName@@YAXHPBD@Z 1002ad20 f   unity_dll.obj
 0001:00029ec0       ?zt_guiItemSetLabel@@YAXHPBD@Z 1002aec0 f   unity_dll.obj
 0001:0002a070       ?zt_guiItemSetTooltip@@YAXHPBD@Z 1002b070 f   unity_dll.obj
 0001:0002a210       ?zt_guiItemSetThemeType@@YAXHPBD@Z 1002b210 f   unity_dll.obj
 0001:0002a3b0       ?zt_guiItemGetName@@YAPADH@Z 1002b3b0 f   unity_dll.obj
 0001:0002a530       ?zt_guiItemGetLabel@@YAPADH@Z 1002b530 f   unity_dll.obj
 0001:0002a6b0       ?zt_guiItemGetTooltip@@YAPADH@Z 1002b6b0 f   unity_dll.obj
 0001:0002a830       ?zt_guiItemGetThemeType@@YAPADH@Z 1002b830 f   unity_dll.obj
 0001:0002a9b0       ?zt_guiItemSetAlign@@YAXHH@Z 1002b9b0 f   unity_dll.obj
 0001:0002ab50       ?zt_guiItemGetAlign@@YAHH@Z 1002bb50 f   unity_dll.obj
 0001:0002acd0       ?zt_guiItemIsShowing@@YA_NH@Z 1002bcd0 f   unity_dll.obj
 0001:0002add0       ?zt_guiItemShow@@YAXH_N@Z  1002bdd0 f   unity_dll.obj
 0001:0002af70       ?zt_guiItemHide@@YAXH@Z    1002bf70 f   unity_dll.obj
 0001:0002af90       ?zt_guiItemIsVisible@@YA_NH@Z 1002bf90 f   unity_dll.obj
 0001:0002b130       ?zt_guiItemEnable@@YAXH_N@Z 1002c130 f   unity_dll.obj
 0001:0002b220       ?zt_guiItemDisable@@YAXH@Z 1002c220 f   unity_dll.obj
 0001:0002b240       ?zt_guiItemIsEnabled@@YA_NH@Z 1002c240 f   unity_dll.obj
 0001:0002b3e0       ?zt_guiItemBringToFront@@YAXH@Z 1002c3e0 f   unity_dll.obj
 0001:0002b670       ?zt_guiItemGetTopLevelParent@@YAHH@Z 1002c670 f   unity_dll.obj
 0001:0002b760       ?zt_guiItemIsChildOf@@YA_NHH@Z 1002c760 f   unity_dll.obj
 0001:0002b8c0       ?zt_guiItemFindByName@@YAHPBDH@Z 1002c8c0 f   unity_dll.obj
 0001:0002b9b0       ?zt_guiItemPositionLocalToScreen@@YA?AUztVec2@@HABU1@@Z 1002c9b0 f   unity_dll.obj
 0001:0002bae0       ?zt_guiItemPositionScreenToLocal@@YA?AUztVec2@@HABU1@@Z 1002cae0 f   unity_dll.obj
 0001:0002bc10       ?zt_guiItemSetFocus@@YAXHPAH@Z 1002cc10 f   unity_dll.obj
 0001:0002bda0       ?zt_guiItemGetTheme@@YAPAUztGuiTheme@@H@Z 1002cda0 f   unity_dll.obj
 0001:0002bf70       ?zt_guiItemLock@@YAXH@Z    1002cf70 f   unity_dll.obj
 0001:0002c040       ?zt_guiItemUnlock@@YAXH@Z  1002d040 f   unity_dll.obj
 0001:0002c110       ?zt_guiItemReparent@@YAXHH@Z 1002d110 f   unity_dll.obj
 0001:0002c4a0       ?zt_guiWindowGetContentParent@@YAHH@Z 1002d4a0 f   unity_dll.obj
 0001:0002c580       ?zt_guiCollapsingPanelGetContentParent@@YAHH@Z 1002d580 f   unity_dll.obj
 0001:0002c660       ?zt_guiButtonSetIcon@@YAXHPAUztSprite@@@Z 1002d660 f   unity_dll.obj
 0001:0002c8f0       ?zt_guiButtonSetTextPosition@@YAXHH@Z 1002d8f0 f   unity_dll.obj
 0001:0002cae0       ?zt_guiButtonSetCallback@@YAXHHPAX@Z 1002dae0 f   unity_dll.obj
 0001:0002cc00       ?zt_guiToggleButtonGetValue@@YA_NH@Z 1002dc00 f   unity_dll.obj
 0001:0002cd10       ?zt_guiToggleButtonSetValue@@YAXH_N@Z 1002dd10 f   unity_dll.obj
 0001:0002ce20       ?zt_guiCheckboxGetValue@@YA_NH@Z 1002de20 f   unity_dll.obj
 0001:0002cf20       ?zt_guiCheckboxSetValue@@YAXH_N@Z 1002df20 f   unity_dll.obj
 0001:0002d030       ?zt_guiSliderGetValue@@YAMH@Z 1002e030 f   unity_dll.obj
 0001:0002d110       ?zt_guiSliderSetValue@@YAXHM@Z 1002e110 f   unity_dll.obj
 0001:0002d210       ?zt_guiScrollbarGetValue@@YAMH@Z 1002e210 f   unity_dll.obj
 0001:0002d2f0       ?zt_guiScrollbarSetValue@@YAXHM@Z 1002e2f0 f   unity_dll.obj
 0001:0002d3f0       ?zt_guiScrollbarSetSteps@@YAXHMM@Z 1002e3f0 f   unity_dll.obj
 0001:0002d540       ?zt_guiScrollbarStepNeg@@YA_NH@Z 1002e540 f   unity_dll.obj
 0001:0002d6b0       ?zt_guiScrollbarStepPageNeg@@YA_NH@Z 1002e6b0 f   unity_dll.obj
 0001:0002d820       ?zt_guiScrollbarStepPos@@YA_NH@Z 1002e820 f   unity_dll.obj
 0001:0002d990       ?zt_guiScrollbarStepPagePos@@YA_NH@Z 1002e990 f   unity_dll.obj
 0001:0002db00       ?zt_guiScrollbarSetPercent@@YAXHM@Z 1002eb00 f   unity_dll.obj
 0001:0002dc60       ?zt_guiScrollContainerSetItem@@YAXHH@Z 1002ec60 f   unity_dll.obj
 0001:0002de50       ?zt_guiScrollContainerResetScroll@@YAXH@Z 1002ee50 f   unity_dll.obj
 0001:0002df70       ?zt_guiScrollContainerSetScroll@@YAXHW4ztGuiItemOrient_Enum@@M@Z 1002ef70 f   unity_dll.obj
 0001:0002e070       ?zt_guiTextEditGetValue@@YAHHPADH@Z 1002f070 f   unity_dll.obj
 0001:0002e160       ?zt_guiTextEditSetValue@@YAXHPBD@Z 1002f160 f   unity_dll.obj
 0001:0002e2a0       ?zt_guiTextEditSetSelection@@YAXHHH@Z 1002f2a0 f   unity_dll.obj
 0001:0002e480       ?zt_guiTextEditGetSelection@@YAXHPAH0@Z 1002f480 f   unity_dll.obj
 0001:0002e570       ?zt_guiTextEditSelectAll@@YAXH@Z 1002f570 f   unity_dll.obj
 0001:0002e660       ?zt_guiTextEditGetCursorPos@@YAHH@Z 1002f660 f   unity_dll.obj
 0001:0002e740       ?zt_guiTextEditSetCursorPos@@YAXHH@Z 1002f740 f   unity_dll.obj
 0001:0002e8a0       ?zt_guiTextEditSetCallback@@YAXHH@Z 1002f8a0 f   unity_dll.obj
 0001:0002e980       ?zt_guiMenuAppend@@YAXHPBDHPAXPAUztSprite@@@Z 1002f980 f   unity_dll.obj
 0001:0002ec50       ?zt_guiMenuAppendSubmenu@@YAXHPBDHPAUztSprite@@@Z 1002fc50 f   unity_dll.obj
 0001:0002ef20       ?zt_guiMenuPopupAtItem@@YAXHHHABUztVec2@@@Z 1002ff20 f   unity_dll.obj
 0001:0002f080       ?zt_guiMenuPopupAtPosition@@YAXHABUztVec2@@@Z 10030080 f   unity_dll.obj
 0001:0002f2b0       ?zt_guiMenuGetSelected@@YA_NHPAH@Z 100302b0 f   unity_dll.obj
 0001:0002f3f0       ?zt_guiMenuSetCallback@@YAXHH@Z 100303f0 f   unity_dll.obj
 0001:0002f4d0       ?zt_guiTreeAppend@@YAHHPBDPAXH@Z 100304d0 f   unity_dll.obj
 0001:0002f5e0       ?zt_guiTreeAppend@@YAHHHPAXH@Z 100305e0 f   unity_dll.obj
 0001:0002f720       ?zt_guiTreeGetSelected@@YAHH@Z 10030720 f   unity_dll.obj
 0001:0002f820       ?zt_guiTreeSetSelected@@YAXHH@Z 10030820 f   unity_dll.obj
 0001:0002f910       ?zt_guiTreeGetRoot@@YAHH@Z 10030910 f   unity_dll.obj
 0001:0002f9f0       ?zt_guiTreeGetNodeItem@@YAHHH@Z 100309f0 f   unity_dll.obj
 0001:0002fb00       ?zt_guiTreeGetNodeUserData@@YAPAXHH@Z 10030b00 f   unity_dll.obj
 0001:0002fc10       ?zt_guiTreeSetCallback@@YAXHHPAX@Z 10030c10 f   unity_dll.obj
 0001:0002fd00       ?zt_guiTreeClear@@YAXH@Z   10030d00 f   unity_dll.obj
 0001:0002fdf0       ?zt_guiComboBoxSetContents@@YAXHPAPBDHH@Z 10030df0 f   unity_dll.obj
 0001:000300e0       ?zt_guiComboBoxClear@@YAXH@Z 100310e0 f   unity_dll.obj
 0001:000301f0       ?zt_guiComboBoxAppend@@YAXHPBD@Z 100311f0 f   unity_dll.obj
 0001:00030480       ?zt_guiComboBoxGetSelected@@YAHH@Z 10031480 f   unity_dll.obj
 0001:00030560       ?zt_guiComboBoxGetItemCount@@YAHH@Z 10031560 f   unity_dll.obj
 0001:00030640       ?zt_guiComboBoxGetItemText@@YAHHHPADH@Z 10031640 f   unity_dll.obj
 0001:00030750       ?zt_guiComboBoxSetCallback@@YAXHHPAX@Z 10031750 f   unity_dll.obj
 0001:00030840       ?zt_guiSpriteDisplaySetSprite@@YAXHPAUztGuiThemeSprite@@@Z 10031840 f   unity_dll.obj
 0001:00030920       ?zt_guiSizerAddItem@@YAXHHHMHH@Z 10031920 f   unity_dll.obj
 0001:00030d30       ?zt_guiSizerAddStretcher@@YAXHHM@Z 10031d30 f   unity_dll.obj
 0001:00030e60       ?zt_guiSizerSizeToParent@@YAXH_N@Z 10031e60 f   unity_dll.obj
 0001:00030f40       ?zt_guiSizerSizeParent@@YAXH_N0@Z 10031f40 f   unity_dll.obj
 0001:00031030       ?zt_guiSizerRecalc@@YAXH@Z 10032030 f   unity_dll.obj
 0001:000310e0       ?zt_guiSizerRecalcImmediately@@YAXH@Z 100320e0 f   unity_dll.obj
 0001:00031190       ?zt_guiSizerGetMinSize@@YA?AUztVec2@@H@Z 10032190 f   unity_dll.obj
 0001:000312e0       ?zt_guiInitDebug@@YAXH@Z   100322e0 f   unity_dll.obj
 0001:000314f0       ?zt_debugConsoleAddCommand@@YAXPBD0HH@Z 100324f0 f   unity_dll.obj
 0001:00031640       ?zt_debugConsoleRemoveCommand@@YAXPBD@Z 10032640 f   unity_dll.obj
 0001:000316e0       ?zt_debugConsoleLog@@YAXW4ztDebugConsoleLevel_Enum@@PBDZZ 100326e0 f   unity_dll.obj
 0001:00031740       ?zt_debugConsoleLogUser@@YAXPBDZZ 10032740 f   unity_dll.obj
 0001:000317a0       ?zt_debugConsoleLogCommand@@YAXPBDZZ 100327a0 f   unity_dll.obj
 0001:00031800       ?zt_debugConsoleLogHelp@@YAXPBDZZ 10032800 f   unity_dll.obj
 0001:00031860       ?zt_debugConsoleLogWarning@@YAXPBDZZ 10032860 f   unity_dll.obj
 0001:000318c0       ?zt_debugConsoleLogError@@YAXPBDZZ 100328c0 f   unity_dll.obj
 0001:00031920       ?zt_debugConsoleLogSystem@@YAXPBDZZ 10032920 f   unity_dll.obj
 0001:00031980       ?zt_debugConsoleToggle@@YAXPA_N@Z 10032980 f   unity_dll.obj
 0001:00031a40       ?zt_debugLogGuiHierarchy@@YAXH@Z 10032a40 f   unity_dll.obj
 0001:00031af0       ?zt_dllGuiLoad@@YAXXZ      10032af0 f   unity_dll.obj
 0001:00031b00       ?zt_dllGuiUnload@@YAXXZ    10032b00 f   unity_dll.obj
 0001:00031b10       ?boardMake@@YA?AUBoard@@HH@Z 10032b10 f   unity_dll.obj
 0001:00031c00       ?boardFree@@YAXPAUBoard@@@Z 10032c00 f   unity_dll.obj
 0001:00031c30       ?boardUpdate@@YA?AW4BoardState_Enum@@PAUBoard@@MPAUBoardRules@@PAW4BoardInput_Enum@@H@Z 10032c30 f   unity_dll.obj
 0001:00031da0       ?boardRender@@YAXPAUBoard@@PAUztDrawList@@H@Z 10032da0 f   unity_dll.obj
 0001:00031df0       _dll_settings              10032df0 f   unity_dll.obj
 0001:00031e20       _dll_init                  10032e20 f   unity_dll.obj
 0001:00032230       _dll_reload                10033230 f   unity_dll.obj
 0001:00032250       _dll_unload                10033250 f   unity_dll.obj
 0001:00032270       _dll_screenChange          10033270 f   unity_dll.obj
 0001:00032350       _dll_cleanup               10033350 f   unity_dll.obj
 0001:00032830       _dll_gameLoop              10033830 f   unity_dll.obj
 0001:000335f0       ?boardPointFromIndex@@YA?AUztPoint2@@PAUBoard@@H@Z 100345f0 f   unity_dll.obj
 0001:00033650       ?boardIndexFromPoint@@YAHPAUBoard@@HH@Z 10034650 f   unity_dll.obj
 0001:00033670       ?boardIndexAdjust@@YAHPAUBoard@@HHH@Z 10034670 f   unity_dll.obj
 0001:000336e0       ?boardRotateBlockLeft@@YA_NPAUBoard@@@Z 100346e0 f   unity_dll.obj
 0001:000336f0       ?boardRotateBlockRight@@YA_NPAUBoard@@@Z 100346f0 f   unity_dll.obj
 0001:00033700       ?boardGetNextBlock@@YA?AW4BlockType_Enum@@PAUBoard@@@Z 10034700 f   unity_dll.obj
 0001:00033710       ?boardCycleBlocks@@YAXPAUBoard@@HW4BlockType_Enum@@@Z 10034710 f   unity_dll.obj
 0001:00033740       ?boardGetBlockPieces@@YAXW4BlockType_Enum@@HPACPAH@Z 10034740 f   unity_dll.obj
 0001:00034450       ?boardIsValidBlockPosition@@YA_NPAUBoard@@HW4BlockType_Enum@@H@Z 10035450 f   unity_dll.obj
 0001:00034460       ?boardProcessGravityDrop@@YAXPAUBoard@@@Z 10035460 f   unity_dll.obj
 0001:00034490       ?boardRenderBlockPiece@@YAXPAUBoard@@W4BlockType_Enum@@PAUztDrawList@@H@Z 10035490 f   unity_dll.obj
 0001:000348d0       ?boardRenderBlock@@YAXPAUBoard@@W4BlockType_Enum@@PAUztDrawList@@HH@Z 100358d0 f   unity_dll.obj
 0001:000349e0       ?_zt_call_malloc@@YAPAXI@Z 100359e0 f   unity_dll.obj
 0001:00034a00       ?_zt_call_free@@YAXPAX@Z   10035a00 f   unity_dll.obj
 0001:00034a60       _zt_dllSetGlobals          10035a60 f   unity_dll.obj
 0001:00034af0       ?zt_memValidateArena@@YAXPAUztMemoryArena@@@Z 10035af0 f   unity_dll.obj
 0001:00035440       ?_zt_serialMakeWriterDoHeader@@YA_NPAUztSerial@@PBDH@Z 10036440 f   unity_dll.obj
 0001:00035540       ?_zt_serialMakeReaderDoHeader@@YA_NPAUztSerial@@PBD@Z 10036540 f   unity_dll.obj
 0001:000356d0       ?ztgl_loadFunctions@@YAXPAUztOpenGLFunctions@@@Z 100366d0 f   unity_dll.obj
 0001:00035960       ?ztgl_saveFunctions@@YAXPAUztOpenGLFunctions@@@Z 10036960 f   unity_dll.obj
 0001:00035bf0       _zt_dllSetOpenGLGlobals    10036bf0 f   unity_dll.obj
 0001:000367a0       ?ztgl_win_contextDisplay@@YAXPAUztContextGL@@@Z 100377a0 f   unity_dll.obj
 0001:000367c0       ?ztgl_win_contextMake@@YAPAUztContextGL@@PAUztMemoryArena@@PAUHWND__@@HHHH@Z 100377c0 f   unity_dll.obj
 0001:00036aa0       ?ztgl_win_contextFree@@YAXPAUztContextGL@@@Z 10037aa0 f   unity_dll.obj
 0001:00036ae0       ?ztgl_win_contextSetSize@@YA_NPAUztContextGL@@HH@Z 10037ae0 f   unity_dll.obj
 0001:00036b10       ?ztgl_win_contextToggleFullscreen@@YA_NPAUztContextGL@@_N@Z 10037b10 f   unity_dll.obj
 0001:00036ca0       ?ztgl_win_setViewport@@YA_NPAUztContextGL@@@Z 10037ca0 f   unity_dll.obj
 0001:000382d0       ?ztds_bufferPlay@@YAXPAUztDirectSoundBuffer@@_N@Z 100392d0 f   unity_dll.obj
 0001:000384a0       _zt_dllSetGameGlobals      100394a0 f   unity_dll.obj
 0001:000386a0       ?_zt_winControllerInputHapticFeedback@@YAXHMM@Z 100396a0 f   unity_dll.obj
 0001:00038740       ?_zt_inputClearState@@YAX_N@Z 10039740 f   unity_dll.obj
 0001:0003a140       ?_zt_shaderMakeBase@@YAHPBD0HH@Z 1003b140 f   unity_dll.obj
 0001:0003ae10       ?zt_shaderMake@@YAHPBD0H@Z 1003be10 f   unity_dll.obj
 0001:0003af90       ?_zt_fontMakeFromSTB@@YAHPBDPAXHH0H@Z 1003bf90 f   unity_dll.obj
 0001:0003ddf0       ?_zt_winControllerInputUpdate@@YAXM@Z 1003edf0 f   unity_dll.obj
 0001:0003e6d0       ?_zt_winControllerInputInit@@YAXXZ 1003f6d0 f   unity_dll.obj
 0001:0003e8b0       ?_zt_winControllerInputCleanup@@YAXXZ 1003f8b0 f   unity_dll.obj
 0001:0003e8d0       ?_zt_win_processMessages@@YAXXZ 1003f8d0 f   unity_dll.obj
 0001:0003e920       _stbi_load                 1003f920 f   unity_dll.obj
 0001:0003e9a0       _stbi_load_from_callbacks  1003f9a0 f   unity_dll.obj
 0001:0003ea00       _stbi_load_from_file       1003fa00 f   unity_dll.obj
 0001:0003ea80       _stbi_loadf                1003fa80 f   unity_dll.obj
 0001:0003eb00       _stbi_loadf_from_memory    1003fb00 f   unity_dll.obj
 0001:0003eb60       _stbi_loadf_from_callbacks 1003fb60 f   unity_dll.obj
 0001:0003ebc0       _stbi_loadf_from_file      1003fbc0 f   unity_dll.obj
 0001:0003ec20       _stbi_hdr_to_ldr_gamma     1003fc20 f   unity_dll.obj
 0001:0003ec40       _stbi_hdr_to_ldr_scale     1003fc40 f   unity_dll.obj
 0001:0003ec60       _stbi_ldr_to_hdr_gamma     1003fc60 f   unity_dll.obj
 0001:0003ec80       _stbi_ldr_to_hdr_scale     1003fc80 f   unity_dll.obj
 0001:0003eca0       _stbi_is_hdr_from_callbacks 1003fca0 f   unity_dll.obj
 0001:0003ecf0       _stbi_is_hdr_from_memory   1003fcf0 f   unity_dll.obj
 0001:0003ed40       _stbi_is_hdr               1003fd40 f   unity_dll.obj
 0001:0003ed90       _stbi_is_hdr_from_file     1003fd90 f   unity_dll.obj
 0001:0003ede0       _stbi_info_from_memory     1003fde0 f   unity_dll.obj
 0001:0003ee40       _stbi_info_from_callbacks  1003fe40 f   unity_dll.obj
 0001:0003eea0       _stbi_info                 1003fea0 f   unity_dll.obj
 0001:0003ef00       _stbi_info_from_file       1003ff00 f   unity_dll.obj
 0001:0003ef90       _stbi_set_unpremultiply_on_load 1003ff90 f   unity_dll.obj
 0001:0003efa0       _stbi_convert_iphone_png_to_rgb 1003ffa0 f   unity_dll.obj
 0001:0003efb0       _stbi_set_flip_vertically_on_load 1003ffb0 f   unity_dll.obj
 0001:0003efc0       _stbi_zlib_decode_malloc_guesssize 1003ffc0 f   unity_dll.obj
 0001:0003f070       _stbi_zlib_decode_malloc_guesssize_headerflag 10040070 f   unity_dll.obj
 0001:0003f120       _stbi_zlib_decode_malloc   10040120 f   unity_dll.obj
 0001:0003f140       _stbi_zlib_decode_buffer   10040140 f   unity_dll.obj
 0001:0003f1b0       _stbi_zlib_decode_noheader_malloc 100401b0 f   unity_dll.obj
 0001:0003f260       _stbi_zlib_decode_noheader_buffer 10040260 f   unity_dll.obj
 0001:0004fa20       ?stbi__tga_read_rgb16@@YAXPAUstbi__context@@PAE@Z 10050a20 f   unity_dll.obj
 0001:00051710       _stbtt_BakeFontBitmap      10052710 f   unity_dll.obj
 0001:00051990       _stbtt_GetBakedQuad        10052990 f   unity_dll.obj
 0001:00051b40       _stbtt_PackBegin           10052b40 f   unity_dll.obj
 0001:00051c60       _stbtt_PackEnd             10052c60 f   unity_dll.obj
 0001:00051c90       _stbtt_PackFontRange       10052c90 f   unity_dll.obj
 0001:00051ce0       _stbtt_PackFontRanges      10052ce0 f   unity_dll.obj
 0001:00051e70       _stbtt_PackSetOversampling 10052e70 f   unity_dll.obj
 0001:00051ed0       _stbtt_GetPackedQuad       10052ed0 f   unity_dll.obj
 0001:000520c0       _stbtt_PackFontRangesGatherRects 100530c0 f   unity_dll.obj
 0001:000522f0       _stbtt_PackFontRangesPackRects 100532f0 f   unity_dll.obj
 0001:00052310       _stbtt_PackFontRangesRenderIntoRects 10053310 f   unity_dll.obj
 0001:00052870       _stbtt_GetFontOffsetForIndex 10053870 f   unity_dll.obj
 0001:000529a0       _stbtt_InitFont            100539a0 f   unity_dll.obj
 0001:00052c10       _stbtt_FindGlyphIndex      10053c10 f   unity_dll.obj
 0001:00053070       _stbtt_ScaleForPixelHeight 10054070 f   unity_dll.obj
 0001:000530d0       _stbtt_ScaleForMappingEmToPixels 100540d0 f   unity_dll.obj
 0001:00053110       _stbtt_GetFontVMetrics     10054110 f   unity_dll.obj
 0001:00053190       _stbtt_GetFontBoundingBox  10054190 f   unity_dll.obj
 0001:00053220       _stbtt_GetCodepointHMetrics 10054220 f   unity_dll.obj
 0001:00053250       _stbtt_GetCodepointKernAdvance 10054250 f   unity_dll.obj
 0001:00053290       _stbtt_GetCodepointBox     10054290 f   unity_dll.obj
 0001:000532d0       _stbtt_GetGlyphHMetrics    100542d0 f   unity_dll.obj
 0001:000533c0       _stbtt_GetGlyphKernAdvance 100543c0 f   unity_dll.obj
 0001:000534c0       _stbtt_GetGlyphBox         100544c0 f   unity_dll.obj
 0001:00053580       _stbtt_IsGlyphEmpty        10054580 f   unity_dll.obj
 0001:000535e0       _stbtt_GetCodepointShape   100545e0 f   unity_dll.obj
 0001:00053610       _stbtt_GetGlyphShape       10054610 f   unity_dll.obj
 0001:00054400       _stbtt_FreeShape           10055400 f   unity_dll.obj
 0001:00054420       _stbtt_FreeBitmap          10055420 f   unity_dll.obj
 0001:00054440       _stbtt_GetCodepointBitmap  10055440 f   unity_dll.obj
 0001:000544a0       _stbtt_GetCodepointBitmapSubpixel 100554a0 f   unity_dll.obj
 0001:00054500       _stbtt_MakeCodepointBitmap 10055500 f   unity_dll.obj
 0001:00054560       _stbtt_MakeCodepointBitmapSubpixel 10055560 f   unity_dll.obj
 0001:000545c0       _stbtt_GetCodepointBitmapBox 100555c0 f   unity_dll.obj
 0001:00054620       _stbtt_GetCodepointBitmapBoxSubpixel 10055620 f   unity_dll.obj
 0001:00054680       _stbtt_GetGlyphBitmap      10055680 f   unity_dll.obj
 0001:000546e0       _stbtt_GetGlyphBitmapSubpixel 100556e0 f   unity_dll.obj
 0001:000548a0       _stbtt_MakeGlyphBitmap     100558a0 f   unity_dll.obj
 0001:00054900       _stbtt_MakeGlyphBitmapSubpixel 10055900 f   unity_dll.obj
 0001:00054a00       _stbtt_GetGlyphBitmapBox   10055a00 f   unity_dll.obj
 0001:00054a60       _stbtt_GetGlyphBitmapBoxSubpixel 10055a60 f   unity_dll.obj
 0001:00054ba0       _stbtt_Rasterize           10055ba0 f   unity_dll.obj
 0001:00054c80       _stbtt_FindMatchingFont    10055c80 f   unity_dll.obj
 0001:00054ce0       _stbtt_CompareUTF8toUTF16_bigendian 10055ce0 f   unity_dll.obj
 0001:00054d20       _stbtt_GetFontNameString   10055d20 f   unity_dll.obj
 0001:00058730       _zt_dllSetGameGuiGlobals   10059730 f   unity_dll.obj
 0001:0005d960       ?zt_guiRadioGetValue@@YA_NH@Z 1005e960 f   unity_dll.obj
 0001:0005da60       ?zt_guiRadioSetValue@@YAXH_N@Z 1005ea60 f   unity_dll.obj
 0001:00065c90       ?_zt_guiTreeFindNode@@YAPAUztTreeItem@ztGuiItem@@PAU2@PAU12@H@Z 10066c90 f   unity_dll.obj
 0001:00068a10       ?_zt_guiDebugConsoleCleanup@@YAXHPAX@Z 10069a10 f   unity_dll.obj
 0001:0006a540       ?_zt_guiDebugGuiHierarchyCleanup@@YAXHPAX@Z 1006b540 f   unity_dll.obj
 0001:0006b680       ??$vsnprintf_s@$0BAAAA@@@YAHAAY0BAAAA@DIPBDPAD@Z 1006c680 f i unity_dll.obj
 0001:0006b6b0       ??0Board@@QAE@XZ           1006c6b0 f i unity_dll.obj
 0001:0006b720       ??0ztBlockProfiler@@QAE@PADW4ztLogMessageLevel_Enum@@@Z 1006c720 f i unity_dll.obj
 0001:0006b750       ??0ztBuffer@?JK@??zt_renderDrawLists@@YAXPAUztCamera@@PAPAUztDrawList@@HABUztVec4@@HH@Z@QAE@XZ 1006c750 f i unity_dll.obj
 0001:0006b780       ??0ztCamera@@QAE@XZ        1006c780 f i unity_dll.obj
 0001:0006b7d0       ??0ztCameraControllerFPS@@QAE@XZ 1006c7d0 f i unity_dll.obj
 0001:0006b800       ??0ztDebugFpsDisplay@@QAE@XZ 1006c800 f i unity_dll.obj
 0001:0006b840       ??0ztDebugGuiHierarchy@@QAE@XZ 1006c840 f i unity_dll.obj
 0001:0006b870       ??0ztDirectSoundContext@@QAE@XZ 1006c870 f i unity_dll.obj
 0001:0006b8a0       ??0ztFrustum@@QAE@XZ       1006c8a0 f i unity_dll.obj
 0001:0006b940       ??0ztGlobals@@QAE@XZ       1006c940 f i unity_dll.obj
 0001:0006b990       ??0ztGuiGlobals@@QAE@XZ    1006c990 f i unity_dll.obj
 0001:0006b9f0       ??0ztGuiThemeSprite@@QAE@XZ 1006c9f0 f i unity_dll.obj
 0001:0006ba20       ??0ztLight@@QAE@XZ         1006ca20 f i unity_dll.obj
 0001:0006ba50       ??0ztMat4@@QAE@MMMMMMMMMMMMMMMM@Z 1006ca50 f i unity_dll.obj
 0001:0006bbd0       ??0ztMat4@@QAE@QAM@Z       1006cbd0 f i unity_dll.obj
 0001:0006bbd0       ??0ztMat4@@QAE@ABU0@@Z     1006cbd0 f i unity_dll.obj
 0001:0006bc30       ??0ztMat4@@QAE@XZ          1006cc30 f i unity_dll.obj
 0001:0006bc50       ??0ztMaterial@@QAE@XZ      1006cc50 f i unity_dll.obj
 0001:0006bc80       ??0ztPoint2@@QAE@HH@Z      1006cc80 f i unity_dll.obj
 0001:0006bcb0       ??0ztPoint2@@QAE@XZ        1006ccb0 f i unity_dll.obj
 0001:0006bcb0       ??0ztVec2@@QAE@XZ          1006ccb0 f i unity_dll.obj
 0001:0006bcb0       ?GetLocaleT@_LocaleUpdate@@QAEPAUlocaleinfo_struct@@XZ 1006ccb0 f i LIBCMTD:strtod.obj
 0001:0006bcc0       ??0ztQuat@@QAE@MMMM@Z      1006ccc0 f i unity_dll.obj
 0001:0006bd20       ??0ztQuat@@QAE@XZ          1006cd20 f i unity_dll.obj
 0001:0006bd40       ??0ztSprite@@QAE@XZ        1006cd40 f i unity_dll.obj
 0001:0006bd70       ??0ztSpriteNineSlice@@QAE@XZ 1006cd70 f i unity_dll.obj
 0001:0006be00       ??0ztVec2@@QAE@MM@Z        1006ce00 f i unity_dll.obj
 0001:0006be30       ??0ztVec3@@QAE@ABUztVec2@@M@Z 1006ce30 f i unity_dll.obj
 0001:0006be70       ??0ztVec3@@QAE@MMM@Z       1006ce70 f i unity_dll.obj
 0001:0006beb0       ??0ztVec3@@QAE@XZ          1006ceb0 f i unity_dll.obj
 0001:0006bed0       ??0ztVec4@@QAE@ABUztVec2@@0@Z 1006ced0 f i unity_dll.obj
 0001:0006bf30       ??0ztVec4@@QAE@ABUztVec3@@M@Z 1006cf30 f i unity_dll.obj
 0001:0006bfa0       ??0ztVec4@@QAE@MMMM@Z      1006cfa0 f i unity_dll.obj
 0001:0006c010       ??0ztVec4@@QAE@XZ          1006d010 f i unity_dll.obj
 0001:0006c050       ??0ztVertex@?JK@??zt_renderDrawLists@@YAXPAUztCamera@@PAPAUztDrawList@@HABUztVec4@@HH@Z@QAE@XZ 1006d050 f i unity_dll.obj
 0001:0006c090       ??1ztBlockProfiler@@QAE@XZ 1006d090 f i unity_dll.obj
 0001:0006c0f0       ??8ztVec2@@QBE_NABU0@@Z    1006d0f0 f i unity_dll.obj
 0001:0006c1d0       ??8ztVec4@@QBE_NABU0@@Z    1006d1d0 f i unity_dll.obj
 0001:0006c370       ??9ztQuat@@QBE_NABU0@@Z    1006d370 f i unity_dll.obj
 0001:0006c390       ??9ztVec2@@QBE_NABU0@@Z    1006d390 f i unity_dll.obj
 0001:0006c470       ??9ztVec3@@QBE_NABU0@@Z    1006d470 f i unity_dll.obj
 0001:0006c5b0       ??9ztVec4@@QBE_NABU0@@Z    1006d5b0 f i unity_dll.obj
 0001:0006c750       ??D@YA?AUztMat4@@ABU0@0@Z  1006d750 f i unity_dll.obj
 0001:0006c770       ??D@YA?AUztVec2@@ABU0@0@Z  1006d770 f i unity_dll.obj
 0001:0006c7b0       ??D@YA?AUztVec3@@ABUztMat4@@ABU0@@Z 1006d7b0 f i unity_dll.obj
 0001:0006c7d0       ??G@YA?AUztVec2@@ABU0@0@Z  1006d7d0 f i unity_dll.obj
 0001:0006c810       ??G@YA?AUztVec3@@ABU0@0@Z  1006d810 f i unity_dll.obj
 0001:0006c860       ??H@YA?AUztVec2@@ABU0@0@Z  1006d860 f i unity_dll.obj
 0001:0006c8a0       ??H@YA?AUztVec3@@ABU0@0@Z  1006d8a0 f i unity_dll.obj
 0001:0006c8f0       ??XztQuat@@QAEAAU0@ABU0@@Z 1006d8f0 f i unity_dll.obj
 0001:0006ca80       ??XztVec3@@QAEAAU0@M@Z     1006da80 f i unity_dll.obj
 0001:0006cad0       ??YztVec2@@QAEAAU0@ABU0@@Z 1006dad0 f i unity_dll.obj
 0001:0006cb10       ??ZztVec2@@QAEAAU0@ABU0@@Z 1006db10 f i unity_dll.obj
 0001:0006cb50       ??_H@YGXPAXIHP6EPAX0@Z@Z   1006db50 f i unity_dll.obj
 0001:0006cb80       ?abs@@YA_J_J@Z             1006db80 f i unity_dll.obj
 0001:0006cba0       ?ceil@@YAMM@Z              1006dba0 f i unity_dll.obj
 0001:0006cbc0       ?convertToMat4@ztQuat@@QBE?AUztMat4@@XZ 1006dbc0 f i unity_dll.obj
 0001:0006cc00       ?convertToMat4@ztQuat@@QBEXPAUztMat4@@@Z 1006dc00 f i unity_dll.obj
 0001:0006ced0       ?cross@ztVec3@@QBE?AU1@ABU1@@Z 1006ded0 f i unity_dll.obj
 0001:0006cf70       ?fabs@@YAMM@Z              1006df70 f i unity_dll.obj
 0001:0006cf90       ?floor@@YAMM@Z             1006df90 f i unity_dll.obj
 0001:0006cfb0       ?getNormal@ztVec3@@QBE?AU1@XZ 1006dfb0 f i unity_dll.obj
 0001:0006d0a0       ?getTranslate@ztMat4@@QBE?AU1@ABUztVec3@@@Z 1006e0a0 f i unity_dll.obj
 0001:0006d0e0       ?getTranslate@ztMat4@@QBE?AU1@MMM@Z 1006e0e0 f i unity_dll.obj
 0001:0006d140       ?justPressed@ztInputKeys@@QAE_NXZ 1006e140 f i unity_dll.obj
 0001:0006d170       ?justPressed@ztInputMouse@@QAE_NH@Z 1006e170 f i unity_dll.obj
 0001:0006d1d0       ?justPressedOrRepeated@ztInputKeys@@QAE_NXZ 1006e1d0 f i unity_dll.obj
 0001:0006d210       ?justReleased@ztInputMouse@@QAE_NH@Z 1006e210 f i unity_dll.obj
 0001:0006d270       ?justRepeated@ztInputKeys@@QAE_NXZ 1006e270 f i unity_dll.obj
 0001:0006d2a0       ?ldexp@@YAMMH@Z            1006e2a0 f i unity_dll.obj
 0001:0006d2c0       ?leftJustPressed@ztInputMouse@@QAE_NXZ 1006e2c0 f i unity_dll.obj
 0001:0006d2e0       ?leftJustReleased@ztInputMouse@@QAE_NXZ 1006e2e0 f i unity_dll.obj
 0001:0006d300       ?leftPressed@ztInputMouse@@QAE_NXZ 1006e300 f i unity_dll.obj
 0001:0006d320       ?length@ztVec3@@QBEMXZ     1006e320 f i unity_dll.obj
 0001:0006d370       ?makeFromAxisAngle@ztQuat@@SA?AU1@MMMM@Z 1006e370 f i unity_dll.obj
 0001:0006d430       ?makeFromEuler@ztQuat@@SA?AU1@ABUztVec3@@@Z 1006e430 f i unity_dll.obj
 0001:0006d470       ?makeFromEuler@ztQuat@@SA?AU1@MMM@Z 1006e470 f i unity_dll.obj
 0001:0006d590       ?middleJustPressed@ztInputMouse@@QAE_NXZ 1006e590 f i unity_dll.obj
 0001:0006d5b0       ?middleJustReleased@ztInputMouse@@QAE_NXZ 1006e5b0 f i unity_dll.obj
 0001:0006d5d0       ?middlePressed@ztInputMouse@@QAE_NXZ 1006e5d0 f i unity_dll.obj
 0001:0006d5f0       ?normalize@ztVec3@@QAEXXZ  1006e5f0 f i unity_dll.obj
 0001:0006d6a0       ?pow@@YAMMM@Z              1006e6a0 f i unity_dll.obj
 0001:0006d6d0       ?pressed@ztInputKeys@@QAE_NXZ 1006e6d0 f i unity_dll.obj
 0001:0006d700       ?pressed@ztInputMouse@@QAE_NH@Z 1006e700 f i unity_dll.obj
 0001:0006d760       ?rightJustPressed@ztInputMouse@@QAE_NXZ 1006e760 f i unity_dll.obj
 0001:0006d780       ?rightJustReleased@ztInputMouse@@QAE_NXZ 1006e780 f i unity_dll.obj
 0001:0006d7a0       ?rightPressed@ztInputMouse@@QAE_NXZ 1006e7a0 f i unity_dll.obj
 0001:0006d7c0       ?scale@ztMat4@@QAEXABUztVec3@@@Z 1006e7c0 f i unity_dll.obj
 0001:0006d810       ?sqrt@@YAMM@Z              1006e810 f i unity_dll.obj
 0001:0006d830       ?tan@@YAMM@Z               1006e830 f i unity_dll.obj
 0001:0006d850       ?translate@ztMat4@@QAEXABUztVec3@@@Z 1006e850 f i unity_dll.obj
 0001:0006d8a0       ?translate@ztMat4@@QAEXMMM@Z 1006e8a0 f i unity_dll.obj
 0001:0006d8f0       ?zt_approach@@YAMMMM@Z     1006e8f0 f i unity_dll.obj
 0001:0006d970       ?zt_assert_raw@@YAXPBD0H@Z 1006e970 f i unity_dll.obj
 0001:0006d990       ?zt_convertToi32Ceil@@YAHM@Z 1006e990 f i unity_dll.obj
 0001:0006d9d0       ?zt_convertToi32Floor@@YAHM@Z 1006e9d0 f i unity_dll.obj
 0001:0006d9e0       ?zt_fileRead@@YA_NPAUztFile@@PAH@Z 1006e9e0 f i unity_dll.obj
 0001:0006da20       ?zt_fileWrite@@YA_NPAUztFile@@H@Z 1006ea20 f i unity_dll.obj
 0001:0006da60       ?zt_fileWrite@@YA_NPAUztFile@@PBD@Z 1006ea60 f i unity_dll.obj
 0001:0006dab0       ?zt_guiItemTypeName@@YAPBDW4ztGuiItemType_Enum@@@Z 1006eab0 f i unity_dll.obj
 0001:0006dbd0       ?zt_lerp@@YAMMMM@Z         1006ebd0 f i unity_dll.obj
 0001:0006dc00       ?zt_linearRemap@@YAMMMMMM@Z 1006ec00 f i unity_dll.obj
 0001:0006dc50       ?zt_unlerp@@YAMMMM@Z       1006ec50 f i unity_dll.obj
 0001:0006dca0       _acosf                     1006eca0 f i unity_dll.obj
 0001:0006dcc0       _asinf                     1006ecc0 f i unity_dll.obj
 0001:0006dce0       _atan2f                    1006ece0 f i unity_dll.obj
 0001:0006dd20       _ceilf                     1006ed20 f i unity_dll.obj
 0001:0006dd60       _cosf                      1006ed60 f i unity_dll.obj
 0001:0006dd80       _fabsf                     1006ed80 f i unity_dll.obj
 0001:0006ddb0       _floorf                    1006edb0 f i unity_dll.obj
 0001:0006ddf0       _ldexpf                    1006edf0 f i unity_dll.obj
 0001:0006de20       _powf                      1006ee20 f i unity_dll.obj
 0001:0006de50       _sinf                      1006ee50 f i unity_dll.obj
 0001:0006de70       _sqrtf                     1006ee70 f i unity_dll.obj
 0001:0006de90       _tanf                      1006ee90 f i unity_dll.obj
 0001:0006deb0       ___raise_securityfailure   1006eeb0 f   LIBCMTD:gs_report.obj
 0001:0006df00       ___report_gsfailure        1006ef00 f   LIBCMTD:gs_report.obj
 0001:0006e010       ___report_rangecheckfailure 1006f010 f   LIBCMTD:gs_report.obj
 0001:0006e020       ___report_securityfailure  1006f020 f   LIBCMTD:gs_report.obj
 0001:0006e100       _strncmp                   1006f100 f   LIBCMTD:strncmp.obj
 0001:0006e180       _strncpy_s                 1006f180 f   LIBCMTD:strncpy_s.obj
 0001:0006e5a0       _rand                      1006f5a0 f   LIBCMTD:rand.obj
 0001:0006e5e0       _srand                     1006f5e0 f   LIBCMTD:rand.obj
 0001:0006e5f0       ??0_LocaleUpdate@@QAE@PAUlocaleinfo_struct@@@Z 1006f5f0 f i LIBCMTD:strtod.obj
 0001:0006e6d0       ??1_LocaleUpdate@@QAE@XZ   1006f6d0 f i LIBCMTD:strtod.obj
 0001:0006e700       __strtod_l                 1006f700 f   LIBCMTD:strtod.obj
 0001:0006e910       _strtod                    1006f910 f   LIBCMTD:strtod.obj
 0001:0006ee30       _strtol                    1006fe30 f   LIBCMTD:strtol.obj
 0001:0006ee80       _strtoul                   1006fe80 f   LIBCMTD:strtol.obj
 0001:0006eed0       _strtof                    1006fed0 f   LIBCMTD:strtoq.obj
 0001:0006ef00       _free                      1006ff00 f   LIBCMTD:dbgfree.obj
 0001:0006ef20       _malloc                    1006ff20 f   LIBCMTD:dbgmalloc.obj
 0001:0006ef50       _realloc                   1006ff50 f   LIBCMTD:dbgrealloc.obj
 0001:0006ef80       __fclose_nolock            1006ff80 f   LIBCMTD:fclose.obj
 0001:0006f090       _fclose                    10070090 f   LIBCMTD:fclose.obj
 0001:0006f1b0       _feof                      100701b0 f   LIBCMTD:feoferr.obj
 0001:0006f240       __fsopen                   10070240 f   LIBCMTD:fopen.obj
 0001:0006f490       _fopen_s                   10070490 f   LIBCMTD:fopen.obj
 0001:0006f550       __fread_nolock_s           10070550 f   LIBCMTD:fread.obj
 0001:0006fb80       _fread                     10070b80 f   LIBCMTD:fread.obj
 0001:0006fba0       _fread_s                   10070ba0 f   LIBCMTD:fread.obj
 0001:0006fcf0       __fseek_nolock             10070cf0 f   LIBCMTD:fseek.obj
 0001:0006fde0       _fseek                     10070de0 f   LIBCMTD:fseek.obj
 0001:0006ff80       __ftell_nolock             10070f80 f   LIBCMTD:ftell.obj
 0001:00070640       _ftell                     10071640 f   LIBCMTD:ftell.obj
 0001:00070740       __snprintf_s               10071740 f   LIBCMTD:sprintf.obj
 0001:00070770       _sprintf_s                 10071770 f   LIBCMTD:sprintf.obj
 0001:000707a0       _ldexp                     100717a0 f   LIBCMTD:ldexp.obj
 0001:00070a80       __invoke_watson_if_error   10071a80 f i LIBCMTD:loctim64.obj
 0001:00070ab0       __localtime64_s            10071ab0 f   LIBCMTD:loctim64.obj
 0001:00071000       __time64                   10072000 f   LIBCMTD:time64.obj
 0001:00071080       __wassert                  10072080 f   LIBCMTD:wassert.obj
 0001:00071cc0       @__security_check_cookie@4 10072cc0 f   LIBCMTD:secchk.obj
 0001:00071cd0       _atan2                     10072cd0 f   LIBCMTD:87ctriga.obj
 0001:00071cda       __CIatan2                  10072cda f   LIBCMTD:87ctriga.obj
 0001:00071cf0       __alldiv                   10072cf0 f   LIBCMTD:lldiv.obj
 0001:00071da0       __allmul                   10072da0 f   LIBCMTD:llmul.obj
 0001:00071de0       __chkstk                   10072de0 f   LIBCMTD:chkstk.obj
 0001:00071de0       __alloca_probe             10072de0 f   LIBCMTD:chkstk.obj
 0001:00071e10       __ftol2_sse                10072e10 f   LIBCMTD:ftol2.obj
 0001:00071e19       __ftol2_pentium4           10072e19 f   LIBCMTD:ftol2.obj
 0001:00071e2c       __ftol2_sse_excpt          10072e2c f   LIBCMTD:ftol2.obj
 0001:00071e46       __ftol2                    10072e46 f   LIBCMTD:ftol2.obj
 0001:00071ec0       __libm_sse2_acos_precise   10072ec0 f   LIBCMTD:acos_sse2_precise.obj
 0001:000723e0       __libm_sse2_asin_precise   100733e0 f   LIBCMTD:asin_sse2_precise.obj
 0001:00072930       __libm_sse2_cos_precise    10073930 f   LIBCMTD:cos_sse2_precise.obj
 0001:00072af0       __libm_sse2_pow_precise    10073af0 f   LIBCMTD:pow_sse2_precise.obj
 0001:00073660       __libm_sse2_sin_precise    10074660 f   LIBCMTD:sin_sse2_precise.obj
 0001:00073830       __libm_sse2_sqrt_precise   10074830 f   LIBCMTD:sqrt_sse2_precise.obj
 0001:00073930       __libm_sse2_tan_precise    10074930 f   LIBCMTD:tan_sse2_precise.obj
 0001:00073ba0       __ftoui3                   10074ba0 f   LIBCMTD:ftol3.obj
 0001:00073baf       __ftoul3                   10074baf f   LIBCMTD:ftol3.obj
 0001:00073bbe       __ftol3                    10074bbe f   LIBCMTD:ftol3.obj
 0001:00073bcb       __ftol3_NaN                10074bcb f   LIBCMTD:ftol3.obj
 0001:00073be3       __ftol3_work               10074be3 f   LIBCMTD:ftol3.obj
 0001:00073c69       __ftol3_common             10074c69 f   LIBCMTD:ftol3.obj
 0001:00073d2b       __ftol3_arg_error          10074d2b f   LIBCMTD:ftol3.obj
 0001:00073d3d       __ftol3_except             10074d3d f   LIBCMTD:ftol3.obj
 0001:00073d81       __dtoui3                   10074d81 f   LIBCMTD:ftol3.obj
 0001:00073d90       __dtoul3                   10074d90 f   LIBCMTD:ftol3.obj
 0001:00073d9f       __dtol3                    10074d9f f   LIBCMTD:ftol3.obj
 0001:00073dac       __dtol3_NaN                10074dac f   LIBCMTD:ftol3.obj
 0001:00073dc9       __dtol3_work               10074dc9 f   LIBCMTD:ftol3.obj
 0001:00073eae       __ultod3                   10074eae f   LIBCMTD:ftol3.obj
 0001:00073f3f       __ltod3                    10074f3f f   LIBCMTD:ftol3.obj
 0001:00073f70       _ceil                      10074f70 f   LIBCMTD:ceil_pentium4.obj
 0001:00073fb0       __ceil_pentium4            10074fb0 f   LIBCMTD:ceil_pentium4.obj
 0001:00074090       _floor                     10075090 f   LIBCMTD:floor_pentium4.obj
 0001:000740d0       __floor_pentium4           100750d0 f   LIBCMTD:floor_pentium4.obj
 0001:000741c0       _memcpy                    100751c0 f   LIBCMTD:memcpy.obj
 0001:00074810       _memset                    10075810 f   LIBCMTD:memset.obj
 0001:000748a0       __fpmath                   100758a0 f   LIBCMTD:fpinit.obj
 0001:000748c0       __cfltcvt_init             100758c0 f   LIBCMTD:fpinit.obj
 0001:00074980       __CRT_INIT@12              10075980 f   LIBCMTD:dllcrt0.obj
 0001:00074bd0       __DllMainCRTStartup@12     10075bd0 f   LIBCMTD:dllcrt0.obj
 0001:00074dc0       ___DllXcptFilter           10075dc0 f   LIBCMTD:dllcrt0.obj
 0001:00074df0       __CrtDefaultAllocHook      10075df0 f   LIBCMTD:dbghook.obj
 0001:00074e00       __crt_debugger_hook        10075e00 f   LIBCMTD:dbghook.obj
 0001:00074e60       ___crtFlsAlloc             10075e60 f   LIBCMTD:winapisupp.obj
 0001:00074e90       ___crtFlsFree              10075e90 f   LIBCMTD:winapisupp.obj
 0001:00074ed0       ___crtFlsGetValue          10075ed0 f   LIBCMTD:winapisupp.obj
 0001:00074f10       ___crtFlsSetValue          10075f10 f   LIBCMTD:winapisupp.obj
 0001:00074f50       ___crtInitializeCriticalSectionEx 10075f50 f   LIBCMTD:winapisupp.obj
 0001:00074fa0       ___crtIsPackagedApp        10075fa0 f   LIBCMTD:winapisupp.obj
 0001:00074ff0       ___crtLoadWinApiPointers   10075ff0 f   LIBCMTD:winapisupp.obj
 0001:00075490       ___crtTerminateProcess     10076490 f   LIBCMTD:winapisupp.obj
 0001:000754b0       ___crtUnhandledException   100764b0 f   LIBCMTD:winapisupp.obj
 0001:000754d0       __call_reportfault         100764d0 f   LIBCMTD:invarg.obj
 0001:00075630       __initp_misc_invarg        10076630 f   LIBCMTD:invarg.obj
 0001:00075640       __invalid_parameter        10076640 f   LIBCMTD:invarg.obj
 0001:000756a0       __invoke_watson            100766a0 f   LIBCMTD:invarg.obj
 0001:000756e0       __CrtDbgReportW            100766e0 f   LIBCMTD:dbgrptw.obj
 0001:00075730       __CrtDbgReportWV           10076730 f i LIBCMTD:dbgrptw.obj
 0001:00075760       ___crtMessageWindowW       10076760 f   LIBCMTD:dbgrptw.obj
 0001:00075c10       __invoke_watson_if_oneof   10076c10 f i LIBCMTD:dbgrptw.obj
 0001:000760e0       __CrtCheckMemory           100770e0 f   LIBCMTD:dbgheap.obj
 0001:00076540       __CrtDumpMemoryLeaks       10077540 f   LIBCMTD:dbgheap.obj
 0001:000765e0       __CrtGetCheckCount         100775e0 f   LIBCMTD:dbgheap.obj
 0001:000765f0       __CrtIsValidHeapPointer    100775f0 f   LIBCMTD:dbgheap.obj
 0001:00076630       __CrtIsValidPointer        10077630 f   LIBCMTD:dbgheap.obj
 0001:00076660       __CrtMemCheckpoint         10077660 f   LIBCMTD:dbgheap.obj
 0001:00076890       __CrtMemDumpAllObjectsSince 10077890 f   LIBCMTD:dbgheap.obj
 0001:000768d0       __CrtSetCheckCount         100778d0 f   LIBCMTD:dbgheap.obj
 0001:000768f0       __CrtSetDbgFlag            100778f0 f   LIBCMTD:dbgheap.obj
 0001:00076a40       __CrtSetDumpClient         10077a40 f   LIBCMTD:dbgheap.obj
 0001:00076a60       __calloc_dbg               10077a60 f   LIBCMTD:dbgheap.obj
 0001:00076ac0       __calloc_dbg_impl          10077ac0 f   LIBCMTD:dbgheap.obj
 0001:00076b40       __free_dbg                 10077b40 f   LIBCMTD:dbgheap.obj
 0001:00076bc0       __free_dbg_nolock          10077bc0 f   LIBCMTD:dbgheap.obj
 0001:00077480       __malloc_dbg               10078480 f   LIBCMTD:dbgheap.obj
 0001:000774b0       __msize                    100784b0 f   LIBCMTD:dbgheap.obj
 0001:000774d0       __msize_dbg                100784d0 f   LIBCMTD:dbgheap.obj
 0001:000776e0       __nh_malloc_dbg            100786e0 f   LIBCMTD:dbgheap.obj
 0001:00077970       __realloc_dbg              10078970 f   LIBCMTD:dbgheap.obj
 0001:00077a10       __recalloc_dbg             10078a10 f   LIBCMTD:dbgheap.obj
 0001:000780d0       ___doserrno                100790d0 f   LIBCMTD:dosmap.obj
 0001:00078100       __dosmaperr                10079100 f   LIBCMTD:dosmap.obj
 0001:00078130       __errno                    10079130 f   LIBCMTD:dosmap.obj
 0001:00078160       __get_errno_from_oserr     10079160 f   LIBCMTD:dosmap.obj
 0001:000781e0       __freefls@4                100791e0 f   LIBCMTD:tidtable.obj
 0001:000783e0       __freeptd                  100793e0 f   LIBCMTD:tidtable.obj
 0001:00078420       __getptd                   10079420 f   LIBCMTD:tidtable.obj
 0001:00078450       __getptd_noexit            10079450 f   LIBCMTD:tidtable.obj
 0001:00078500       __initptd                  10079500 f   LIBCMTD:tidtable.obj
 0001:00078640       __mtinit                   10079640 f   LIBCMTD:tidtable.obj
 0001:000786f0       __mtterm                   100796f0 f   LIBCMTD:tidtable.obj
 0001:00078720       __fltin2                   10079720 f   LIBCMTD:cfin.obj
 0001:00078800       ___addlocaleref            10079800 f   LIBCMTD:localref.obj
 0001:00078920       ___freetlocinfo            10079920 f   LIBCMTD:localref.obj
 0001:00078c10       ___removelocaleref         10079c10 f   LIBCMTD:localref.obj
 0001:00078d30       ___updatetlocinfo          10079d30 f   LIBCMTD:localref.obj
 0001:00078e00       __updatetlocinfoEx_nolock  10079e00 f   LIBCMTD:localref.obj
 0001:00078e80       ___initmbctable            10079e80 f   LIBCMTD:mbctype.obj
 0001:000794b0       ___updatetmbcinfo          1007a4b0 f   LIBCMTD:mbctype.obj
 0001:000795d0       __setmbcp                  1007a5d0 f   LIBCMTD:mbctype.obj
 0001:00079870       __setmbcp_nolock           1007a870 f   LIBCMTD:mbctype.obj
 0001:00079bf0       __chvalidator              1007abf0 f   LIBCMTD:isctype.obj
 0001:00079c40       __chvalidator_l            1007ac40 f   LIBCMTD:isctype.obj
 0001:00079d00       __isctype_l                1007ad00 f   LIBCMTD:isctype.obj
 0001:00079f50       ?_CallCatchBlock2@@YAPAXPAUEHRegistrationNode@@PBU_s_FuncInfo@@PAXHK@Z 1007af50 f   LIBCMTD:_trnsctrl_.obj
 0001:00079fc0       ?_CallMemberFunction2@@YGXPAX00H@Z 1007afc0 f   LIBCMTD:_trnsctrl_.obj
 0001:00079fc0       ?_CallMemberFunction0@@YGXPAX0@Z 1007afc0 f   LIBCMTD:_trnsctrl_.obj
 0001:00079fc0       ?_CallMemberFunction1@@YGXPAX00@Z 1007afc0 f   LIBCMTD:_trnsctrl_.obj
 0001:00079fe0       ?_CallSETranslator@@YAHPAUEHExceptionRecord@@PAUEHRegistrationNode@@PAX2PBU_s_FuncInfo@@H1@Z 1007afe0 f   LIBCMTD:_trnsctrl_.obj
 0001:0007a0d0       ?_GetRangeOfTrysToCheck@@YAPBU_s_TryBlockMapEntry@@PBU_s_FuncInfo@@HHPAI1@Z 1007b0d0 f   LIBCMTD:_trnsctrl_.obj
 0001:0007a160       ?_JumpToContinuation@@YGXPAXPAUEHRegistrationNode@@@Z 1007b160 f   LIBCMTD:_trnsctrl_.obj
 0001:0007a1a0       ?_UnwindNestedFrames@@YGXPAUEHRegistrationNode@@PAUEHExceptionRecord@@@Z 1007b1a0 f   LIBCMTD:_trnsctrl_.obj
 0001:0007a200       __CreateFrameInfo          1007b200 f   LIBCMTD:_trnsctrl_.obj
 0001:0007a230       __FindAndUnlinkFrame       1007b230 f   LIBCMTD:_trnsctrl_.obj
 0001:0007a290       __IsExceptionObjectToBeDestroyed 1007b290 f   LIBCMTD:_trnsctrl_.obj
 0001:0007a2c0       ___CxxFrameHandler3        1007b2c0 f   LIBCMTD:_trnsctrl_.obj
 0001:0007a300       __locterm                  1007b300 f   LIBCMTD:wsetloca.obj
 0001:0007a390       ___crt_atoflt_l            1007b390 f   LIBCMTD:atodbl.obj
 0001:0007a4a0       __atodbl_l                 1007b4a0 f   LIBCMTD:atodbl.obj
 0001:0007a5a0       __atoflt_l                 1007b5a0 f   LIBCMTD:atodbl.obj
 0001:0007a5c0       __aulldiv                  1007b5c0 f   LIBCMTD:ulldiv.obj
 0001:0007a630       __aullrem                  1007b630 f   LIBCMTD:ullrem.obj
 0001:0007a6b0       __fileno                   1007b6b0 f   LIBCMTD:fileno.obj
 0001:0007a740       ___initstdio               1007b740 f   LIBCMTD:_file.obj
 0001:0007a810       ___endstdio                1007b810 f   LIBCMTD:_file.obj
 0001:0007a850       ___iob_func                1007b850 f   LIBCMTD:_file.obj
 0001:0007a860       __lock_file                1007b860 f   LIBCMTD:_file.obj
 0001:0007a8c0       __lock_file2               1007b8c0 f   LIBCMTD:_file.obj
 0001:0007a900       __unlock_file              1007b900 f   LIBCMTD:_file.obj
 0001:0007a960       __unlock_file2             1007b960 f   LIBCMTD:_file.obj
 0001:0007a9a0       __close                    1007b9a0 f   LIBCMTD:close.obj
 0001:0007abe0       __close_nolock             1007bbe0 f   LIBCMTD:close.obj
 0001:0007acc0       __freebuf                  1007bcc0 f   LIBCMTD:_freebuf.obj
 0001:0007ad50       __fflush_nolock            1007bd50 f   LIBCMTD:fflush.obj
 0001:0007adc0       __flush                    1007bdc0 f   LIBCMTD:fflush.obj
 0001:0007ae80       __flushall                 1007be80 f   LIBCMTD:fflush.obj
 0001:0007ae90       _fflush                    1007be90 f   LIBCMTD:fflush.obj
 0001:0007b130       __except_handler4          1007c130 f   LIBCMTD:chandler4.obj
 0001:0007b2f0       __getstream                1007c2f0 f   LIBCMTD:stream.obj
 0001:0007b520       __openfile                 1007c520 f   LIBCMTD:_open.obj
 0001:0007bd20       __local_unwind4            1007cd20 f   LIBCMTD:exsup4.obj
 0001:0007bdf6       __seh_longjmp_unwind4@4    1007cdf6 f   LIBCMTD:exsup4.obj
 0001:0007be12       @_EH4_CallFilterFunc@8     1007ce12 f   LIBCMTD:exsup4.obj
 0001:0007be29       @_EH4_TransferToHandler@8  1007ce29 f   LIBCMTD:exsup4.obj
 0001:0007be42       @_EH4_GlobalUnwind2@8      1007ce42 f   LIBCMTD:exsup4.obj
 0001:0007be5b       @_EH4_LocalUnwind@16       1007ce5b f   LIBCMTD:exsup4.obj
 0001:0007be80       __filbuf                   1007ce80 f   LIBCMTD:_filbuf.obj
 0001:0007c0f0       _memcpy_s                  1007d0f0 f   LIBCMTD:memcpy_s.obj
 0001:0007c2c0       __read                     1007d2c0 f   LIBCMTD:read.obj
 0001:0007c590       __read_nolock              1007d590 f   LIBCMTD:read.obj
 0001:0007d7d0       __lseek                    1007e7d0 f   LIBCMTD:lseek.obj
 0001:0007da20       __lseek_nolock             1007ea20 f   LIBCMTD:lseek.obj
 0001:0007db60       __lseeki64                 1007eb60 f   LIBCMTD:lseeki64.obj
 0001:0007ddd0       __lseeki64_nolock          1007edd0 f   LIBCMTD:lseeki64.obj
 0001:0007dea0       __ioinit                   1007eea0 f   LIBCMTD:ioinit.obj
 0001:0007e380       __ioterm                   1007f380 f   LIBCMTD:ioinit.obj
 0001:0007e420       __flsbuf                   1007f420 f   LIBCMTD:_flsbuf.obj
 0001:0007e6f0       __vsnprintf_helper         1007f6f0 f   LIBCMTD:vsnprnc.obj
 0001:0007e8f0       __vsnprintf_s              1007f8f0 f   LIBCMTD:vsnprnc.obj
 0001:0007e8f0       _vsnprintf_s               1007f8f0 f   LIBCMTD:vsnprnc.obj
 0001:0007e920       __vsnprintf_s_l            1007f920 f   LIBCMTD:vsnprnc.obj
 0001:0007ece0       __vsprintf_s_l             1007fce0 f   LIBCMTD:vsnprnc.obj
 0001:0007ef70       _get_int64_arg             1007ff70 f i LIBCMTD:output.obj
 0001:0007ef90       _get_int_arg               1007ff90 f i LIBCMTD:output.obj
 0001:0007efb0       _get_short_arg             1007ffb0 f i LIBCMTD:output.obj
 0001:0007efd0       __copysign                 1007ffd0 f   LIBCMTD:ieeemisc.obj
 0001:0007f000       __fpclass                  10080000 f   LIBCMTD:ieeemisc.obj
 0001:0007f0f0       __decomp                   100800f0 f   LIBCMTD:util.obj
 0001:0007f210       __set_exp                  10080210 f   LIBCMTD:util.obj
 0001:0007f250       __sptype                   10080250 f   LIBCMTD:util.obj
 0001:0007f2d0       __errcode                  100802d0 f   LIBCMTD:fpexcept.obj
 0001:0007f340       __except1                  10080340 f   LIBCMTD:fpexcept.obj
 0001:0007f440       __except2                  10080440 f   LIBCMTD:fpexcept.obj
 0001:0007f590       __handle_exc               10080590 f   LIBCMTD:fpexcept.obj
 0001:0007f8b0       __handle_qnan1             100808b0 f   LIBCMTD:fpexcept.obj
 0001:0007f910       __handle_qnan2             10080910 f   LIBCMTD:fpexcept.obj
 0001:0007f980       __raise_exc                10080980 f   LIBCMTD:fpexcept.obj
 0001:0007f9b0       __raise_exc_ex             100809b0 f   LIBCMTD:fpexcept.obj
 0001:0007ff30       __set_errno_from_matherr   10080f30 f   LIBCMTD:fpexcept.obj
 0001:0007ff70       __umatherr                 10080f70 f   LIBCMTD:fpexcept.obj
 0001:00080010       ___set_fpsr_sse2           10081010 f   LIBCMTD:fpctrl.obj
 0001:000800f0       __clrfp                    100810f0 f   LIBCMTD:fpctrl.obj
 0001:00080110       __ctrlfp                   10081110 f   LIBCMTD:fpctrl.obj
 0001:00080140       __set_statfp               10081140 f   LIBCMTD:fpctrl.obj
 0001:000801b0       __statfp                   100811b0 f   LIBCMTD:fpctrl.obj
 0001:000801c0       ___daylight                100811c0 f   LIBCMTD:timeset.obj
 0001:000801d0       ___dstbias                 100811d0 f   LIBCMTD:timeset.obj
 0001:000801e0       ___timezone                100811e0 f   LIBCMTD:timeset.obj
 0001:000801f0       ___tzname                  100811f0 f   LIBCMTD:timeset.obj
 0001:00080200       __get_daylight             10081200 f   LIBCMTD:timeset.obj
 0001:00080290       __get_dstbias              10081290 f   LIBCMTD:timeset.obj
 0001:00080320       __get_timezone             10081320 f   LIBCMTD:timeset.obj
 0001:000803b0       __gmtime64_s               100813b0 f   LIBCMTD:gmtime64.obj
 0001:000807d0       ___tzset                   100817d0 f   LIBCMTD:tzset.obj
 0001:00080860       __isindst                  10081860 f   LIBCMTD:tzset.obj
 0001:00080c40       __set_daylight             10081c40 f i LIBCMTD:tzset.obj
 0001:00080c50       __set_dstbias              10081c50 f i LIBCMTD:tzset.obj
 0001:00080c60       __set_timezone             10081c60 f i LIBCMTD:tzset.obj
 0001:000814e0       __allrem                   100824e0 f   LIBCMTD:llrem.obj
 0001:000815a0       _wcscat_s                  100825a0 f   LIBCMTD:wcscat_s.obj
 0001:000819b0       _wcscpy_s                  100829b0 f   LIBCMTD:wcscpy_s.obj
 0001:00081cc0       _wcslen                    10082cc0 f   LIBCMTD:wcslen.obj
 0001:00081d00       _wcsncat_s                 10082d00 f   LIBCMTD:wcsncat_s.obj
 0001:000821f0       ___copy_path_to_wide_string 100831f0 f   LIBCMTD:crt0dat.obj
 0001:000823e0       ___crtCorExitProcess       100833e0 f   LIBCMTD:crt0dat.obj
 0001:00082420       ___crtExitProcess          10083420 f   LIBCMTD:crt0dat.obj
 0001:00082440       ___freeCrtMemory           10083440 f   LIBCMTD:crt0dat.obj
 0001:00082610       __amsg_exit                10083610 f   LIBCMTD:crt0dat.obj
 0001:00082630       __cexit                    10083630 f   LIBCMTD:crt0dat.obj
 0001:00082650       __cinit                    10083650 f   LIBCMTD:crt0dat.obj
 0001:000826f0       __exit                     100836f0 f   LIBCMTD:crt0dat.obj
 0001:00082710       __init_pointers            10083710 f   LIBCMTD:crt0dat.obj
 0001:000827a0       __initterm_e               100837a0 f   LIBCMTD:crt0dat.obj
 0001:000827e0       __lockexit                 100837e0 f   LIBCMTD:crt0dat.obj
 0001:000827f0       __unlockexit               100837f0 f   LIBCMTD:crt0dat.obj
 0001:000829f0       _abort                     100839f0 f   LIBCMTD:abort.obj
 0001:00082a60       __set_error_mode           10083a60 f   LIBCMTD:errmode.obj
 0001:00082b20       __itow_s                   10083b20 f   LIBCMTD:xtows.obj
 0001:00082f80       _setvbuf                   10083f80 f   LIBCMTD:setvbuf.obj
 0001:00083280       _fwprintf                  10084280 f   LIBCMTD:fwprintf.obj
 0001:00083430       __vsnwprintf_s             10084430 f   LIBCMTD:vswprnc.obj
 0001:00083460       __vsnwprintf_s_l           10084460 f   LIBCMTD:vswprnc.obj
 0001:00083830       __vswprintf_c_l            10084830 f   LIBCMTD:vswprnc.obj
 0001:00083880       __vswprintf_helper         10084880 f   LIBCMTD:vswprnc.obj
 0001:00083af0       ___get_sigabrt             10084af0 f   LIBCMTD:winsig.obj
 0001:00083b10       __initp_misc_winsig        10084b10 f   LIBCMTD:winsig.obj
 0001:00083b40       _raise                     10084b40 f   LIBCMTD:winsig.obj
 0001:00083ed0       ___crtMessageBoxW          10084ed0 f   LIBCMTD:crtmboxw.obj
 0001:000841e0       ___crtMessageBoxWaitThreadW@4 100851e0 f   LIBCMTD:crtmboxw.obj
 0001:00084220       __FF_MSGBANNER             10085220 f   LIBCMTD:crt0msg.obj
 0001:00084270       __GET_RTERRMSG             10085270 f   LIBCMTD:crt0msg.obj
 0001:000842b0       __NMSG_WRITE               100852b0 f   LIBCMTD:crt0msg.obj
 0001:0008468c       __fFATN2                   1008568c     LIBCMTD:87triga.obj
 0001:000846dc       __rtpiby2                  100856dc     LIBCMTD:87triga.obj
 0001:00084720       __cintrindisp2             10085720 f   LIBCMTD:87cdisp.obj
 0001:0008475e       __cintrindisp1             1008575e f   LIBCMTD:87cdisp.obj
 0001:0008479b       __ctrandisp2               1008579b f   LIBCMTD:87cdisp.obj
 0001:0008492a       __ctrandisp1               1008592a f   LIBCMTD:87cdisp.obj
 0001:0008495d       __fload                    1008595d f   LIBCMTD:87cdisp.obj
 0001:000849a0       ___isa_available_init      100859a0 f   LIBCMTD:cpu_disp.obj
 0001:00084c50       ___libm_error_support      10085c50 f   LIBCMTD:libm_error.obj
 0001:00085820       _acos                      10086820 f   LIBCMTD:acos.obj
 0001:00085860       __CIacos                   10086860 f   LIBCMTD:acos.obj
 0001:0008589b       __CIacos_default           1008689b f   LIBCMTD:acos.obj
 0001:000858af       __acos_default             100868af     LIBCMTD:acos.obj
 0001:00085970       _asin                      10086970 f   LIBCMTD:asin.obj
 0001:000859b0       __CIasin                   100869b0 f   LIBCMTD:asin.obj
 0001:000859eb       __CIasin_default           100869eb f   LIBCMTD:asin.obj
 0001:000859ff       __asin_default             100869ff     LIBCMTD:asin.obj
 0001:00085ac0       _cos                       10086ac0 f   LIBCMTD:cos.obj
 0001:00085b00       __CIcos                    10086b00 f   LIBCMTD:cos.obj
 0001:00085b3b       __CIcos_default            10086b3b f   LIBCMTD:cos.obj
 0001:00085b4f       __cos_default              10086b4f     LIBCMTD:cos.obj
 0001:00085bf0       _pow                       10086bf0 f   LIBCMTD:pow.obj
 0001:00085c30       __CIpow                    10086c30 f   LIBCMTD:pow.obj
 0001:00085c6b       __CIpow_default            10086c6b f   LIBCMTD:pow.obj
 0001:00085c84       __pow_default              10086c84     LIBCMTD:pow.obj
 0001:00085e80       _sin                       10086e80 f   LIBCMTD:sin.obj
 0001:00085ec0       __CIsin                    10086ec0 f   LIBCMTD:sin.obj
 0001:00085efb       __CIsin_default            10086efb f   LIBCMTD:sin.obj
 0001:00085f0f       __sin_default              10086f0f     LIBCMTD:sin.obj
 0001:00085fb0       __CIsqrt                   10086fb0 f   LIBCMTD:sqrt.obj
 0001:00085fc4       _sqrt                      10086fc4     LIBCMTD:sqrt.obj
 0001:00086070       _tan                       10087070 f   LIBCMTD:tan.obj
 0001:000860b0       __CItan                    100870b0 f   LIBCMTD:tan.obj
 0001:000860eb       __CItan_default            100870eb f   LIBCMTD:tan.obj
 0001:000860ff       __tan_default              100870ff     LIBCMTD:tan.obj
 0001:000861a0       __sse2_mathfcns_init       100871a0 f   LIBCMTD:mathfcns.obj
 0001:000861c0       __ceil_default             100871c0 f   LIBCMTD:ceil.obj
 0001:00086300       __floor_default            10087300 f   LIBCMTD:floor.obj
 0001:00086440       __VEC_memset               10087440 f   LIBCMTD:p4_memset.obj
 0001:00086510       ?strrchr@@YAPADPADH@Z      10087510 f i LIBCMTD:cvt.obj
 0001:00086530       __cfltcvt                  10087530 f   LIBCMTD:cvt.obj
 0001:00086560       __cfltcvt_l                10087560 f   LIBCMTD:cvt.obj
 0001:00086620       __cftoa_l                  10087620 f   LIBCMTD:cvt.obj
 0001:00086e90       __cftoe                    10087e90 f   LIBCMTD:cvt.obj
 0001:000872d0       __cftoe_l                  100882d0 f   LIBCMTD:cvt.obj
 0001:00087790       __cftof_l                  10088790 f   LIBCMTD:cvt.obj
 0001:00087990       __cftog_l                  10088990 f   LIBCMTD:cvt.obj
 0001:00087c20       __cropzeros                10088c20 f   LIBCMTD:cvt.obj
 0001:00087c40       __cropzeros_l              10088c40 f   LIBCMTD:cvt.obj
 0001:00087d60       __fassign                  10088d60 f   LIBCMTD:cvt.obj
 0001:00087d80       __fassign_l                10088d80 f   LIBCMTD:cvt.obj
 0001:00087dd0       __forcdecpt                10088dd0 f   LIBCMTD:cvt.obj
 0001:00087df0       __forcdecpt_l              10088df0 f   LIBCMTD:cvt.obj
 0001:00087ec0       __positive                 10088ec0 f   LIBCMTD:cvt.obj
 0001:00087f20       __setdefaultprecision      10088f20 f   LIBCMTD:fp8.obj
 0001:00087f60       __initp_misc_cfltcvt_tab   10088f60 f   LIBCMTD:cmiscdat.obj
 0001:00087fa0       __XcptFilter               10088fa0 f   LIBCMTD:winxfltr.obj
 0001:000881a0       ___CppXcptFilter           100891a0 f   LIBCMTD:winxfltr.obj
 0001:00088230       __heap_init                10089230 f   LIBCMTD:heapinit.obj
 0001:00088260       __heap_term                10089260 f   LIBCMTD:heapinit.obj
 0001:00088270       __set_pgmptr               10089270 f i LIBCMTD:stdargv.obj
 0001:00088280       __setargv                  10089280 f   LIBCMTD:stdargv.obj
 0001:00088750       __setenvp                  10089750 f   LIBCMTD:stdenvp.obj
 0001:000888f0       ___security_init_cookie    100898f0 f   LIBCMTD:gs_support.obj
 0001:000889d0       _DllMain@12                100899d0 f   LIBCMTD:dllmain.obj
 0001:000889e0       ___crtGetEnvironmentStringsA 100899e0 f   LIBCMTD:a_env.obj
 0001:00088ae0       __RTC_Initialize           10089ae0 f   LIBCMTD:initsect.obj
 0001:00088b10       __RTC_Terminate            10089b10 f   LIBCMTD:initsect.obj
 0001:00088b40       __lock                     10089b40 f   LIBCMTD:mlock.obj
 0001:00088b80       __mtdeletelocks            10089b80 f   LIBCMTD:mlock.obj
 0001:00088c40       __mtinitlocknum            10089c40 f   LIBCMTD:mlock.obj
 0001:00088d60       __mtinitlocks              10089d60 f   LIBCMTD:mlock.obj
 0001:00088de0       __unlock                   10089de0 f   LIBCMTD:mlock.obj
 0001:00088e00       __snwprintf_s              10089e00 f   LIBCMTD:swprintf.obj
 0001:00088e30       __CrtDbgBreak              10089e30 f   LIBCMTD:dbgrptt.obj
 0001:00088e40       __VCrtDbgReportA           10089e40 f   LIBCMTD:dbgrptt.obj
 0001:000896b0       __VCrtDbgReportW           1008a6b0 f   LIBCMTD:dbgrptt.obj
 0001:0008a030       __free_base                1008b030 f   LIBCMTD:free.obj
 0001:0008a080       __realloc_base             1008b080 f   LIBCMTD:realloc.obj
 0001:0008a180       __expand_base              1008b180 f   LIBCMTD:expand.obj
 0001:0008a2f0       __CrtDbgReport             1008b2f0 f   LIBCMTD:dbgrpt.obj
 0001:0008a340       __CrtDbgReportV            1008b340 f i LIBCMTD:dbgrpt.obj
 0001:0008a370       ___crtMessageWindowA       1008b370 f   LIBCMTD:dbgrpt.obj
 0001:0008a820       __callnewh                 1008b820 f   LIBCMTD:handler.obj
 0001:0008a860       __initp_heap_handler       1008b860 f   LIBCMTD:handler.obj
 0001:0008a870       __heapchk                  1008b870 f   LIBCMTD:heapchk.obj
 0001:0008a8a0       __heap_alloc_base          1008b8a0 f i LIBCMTD:malloc.obj
 0001:0008a900       __malloc_base              1008b900 f   LIBCMTD:malloc.obj
 0001:0008a990       __CopyMan                  1008b990 f i LIBCMTD:intrncvt.obj
 0001:0008a9e0       __FillZeroMan              1008b9e0 f i LIBCMTD:intrncvt.obj
 0001:0008aa10       __IncMan                   1008ba10 f i LIBCMTD:intrncvt.obj
 0001:0008aac0       __IsZeroMan                1008bac0 f i LIBCMTD:intrncvt.obj
 0001:0008ab00       __RoundMan                 1008bb00 f i LIBCMTD:intrncvt.obj
 0001:0008abe0       __ShrMan                   1008bbe0 f i LIBCMTD:intrncvt.obj
 0001:0008acd0       __ZeroTail                 1008bcd0 f i LIBCMTD:intrncvt.obj
 0001:0008ad60       ___addl                    1008bd60 f i LIBCMTD:intrncvt.obj
 0001:0008ada0       __ld12cvt                  1008bda0 f i LIBCMTD:intrncvt.obj
 0001:0008b060       __ld12tod                  1008c060 f   LIBCMTD:intrncvt.obj
 0001:0008b080       __ld12tof                  1008c080 f   LIBCMTD:intrncvt.obj
 0001:0008b0a0       ___ld12mul                 1008c0a0 f i LIBCMTD:strgtold.obj
 0001:0008b4b0       ___multtenpow12            1008c4b0 f i LIBCMTD:strgtold.obj
 0001:0008b590       ___shl_12                  1008c590 f i LIBCMTD:strgtold.obj
 0001:0008b610       ___shr_12                  1008c610 f i LIBCMTD:strgtold.obj
 0001:0008b690       ___strgtold12_l            1008c690 f   LIBCMTD:strgtold.obj
 0001:0008c180       ___free_lconv_mon          1008d180 f   LIBCMTD:initmon.obj
 0001:0008c330       ___free_lconv_num          1008d330 f   LIBCMTD:initnum.obj
 0001:0008c3e0       ___free_lc_time            1008d3e0 f   LIBCMTD:inittime.obj
 0001:0008cff0       __MallocaIsSizeInRange     1008dff0 f i LIBCMTD:a_map.obj
 0001:0008d020       __MarkAllocaS              1008e020 f i LIBCMTD:a_map.obj
 0001:0008d040       ___crtLCMapStringA         1008e040 f   LIBCMTD:a_map.obj
 0001:0008d0a0       __freea                    1008e0a0 f i LIBCMTD:a_map.obj
 0001:0008d250       ___crtGetStringTypeA       1008e250 f   LIBCMTD:a_str.obj
 0001:0008d2a0       __isleadbyte_l             1008e2a0 f i LIBCMTD:_wctype.obj
 0001:0008d2f0       _isleadbyte                1008e2f0 f i LIBCMTD:_wctype.obj
 0001:0008d310       __CallSettingFrame@12      1008e310 f   LIBCMTD:lowhelpr.obj
 0001:0008d337       __NLG_Return               1008e337     LIBCMTD:lowhelpr.obj
 0001:0008d360       ?_inconsistency@@YAXXZ     1008e360 f   LIBCMTD:hooks.obj
 0001:0008d3f0       ?terminate@@YAXXZ          1008e3f0 f   LIBCMTD:hooks.obj
 0001:0008d470       ?unexpected@@YAXXZ         1008e470 f   LIBCMTD:hooks.obj
 0001:0008d4a0       __initp_eh_hooks           1008e4a0 f   LIBCMTD:hooks.obj
 0001:0008d4c0       ___DestructExceptionObject 1008e4c0 f   LIBCMTD:frame.obj
 0001:0008d5e0       ??0bad_exception@std@@QAE@ABV01@@Z 1008e5e0 f i LIBCMTD:frame.obj
 0001:0008d610       ??0bad_exception@std@@QAE@PBD@Z 1008e610 f i LIBCMTD:frame.obj
 0001:0008d640       ??1bad_exception@std@@UAE@XZ 1008e640 f i LIBCMTD:frame.obj
 0001:0008d660       ??_Gbad_exception@std@@UAEPAXI@Z 1008e660 f i LIBCMTD:frame.obj
 0001:0008d660       ??_Ebad_exception@std@@UAEPAXI@Z 1008e660 f i LIBCMTD:frame.obj
 0001:0008e250       ___AdjustPointer           1008f250 f   LIBCMTD:frame.obj
 0001:0008e2a0       ___BuildCatchObject        1008f2a0 f   LIBCMTD:frame.obj
 0001:0008e3b0       ___BuildCatchObjectHelper  1008f3b0 f   LIBCMTD:frame.obj
 0001:0008e6b0       ___FrameUnwindFilter       1008f6b0 f   LIBCMTD:frame.obj
 0001:0008e730       ___FrameUnwindToState      1008f730 f   LIBCMTD:frame.obj
 0001:0008e8b0       ___InternalCxxFrameHandler 1008f8b0 f   LIBCMTD:frame.obj
 0001:0008ea20       ___TypeMatch               1008fa20 f   LIBCMTD:frame.obj
 0001:0008eb00       ____lc_codepage_func       1008fb00 f   LIBCMTD:initctyp.obj
 0001:0008eb50       _wcsncpy_s                 1008fb50 f   LIBCMTD:wcsncpy_s.obj
 0001:0008ef80       _GetTableIndexFromLocaleName 1008ff80 f   LIBCMTD:winapinls.obj
 0001:0008f010       ___crtCompareStringEx      10090010 f   LIBCMTD:winapinls.obj
 0001:0008f080       ___crtDownlevelLocaleNameToLCID 10090080 f   LIBCMTD:winapinls.obj
 0001:0008f0c0       ___crtLCMapStringEx        100900c0 f   LIBCMTD:winapinls.obj
 0001:0008f130       ___wcsnicmp_ascii          10090130 f   LIBCMTD:winapinls.obj
 0001:0008f200       __fcloseall                10090200 f   LIBCMTD:closeall.obj
 0001:0008f330       ___lock_fhandle            10090330 f   LIBCMTD:osfinfo.obj
 0001:0008f420       __alloc_osfhnd             10090420 f   LIBCMTD:osfinfo.obj
 0001:0008f6c0       __free_osfhnd              100906c0 f   LIBCMTD:osfinfo.obj
 0001:0008f7b0       __get_osfhandle            100907b0 f   LIBCMTD:osfinfo.obj
 0001:0008f930       __set_osfhnd               10090930 f   LIBCMTD:osfinfo.obj
 0001:0008fa00       __unlock_fhandle           10090a00 f   LIBCMTD:osfinfo.obj
 0001:0008fa30       __commit                   10090a30 f   LIBCMTD:commit.obj
 0001:0008fc70       __write                    10090c70 f   LIBCMTD:write.obj
 0001:0008fec0       __write_nolock             10090ec0 f   LIBCMTD:write.obj
 0001:00090c70       __FindPESection            10091c70 f   LIBCMTD:pesect.obj
 0001:00090cf0       __IsNonwritableInCurrentImage 10091cf0 f   LIBCMTD:pesect.obj
 0001:00090e20       __ValidateImageBase        10091e20 f   LIBCMTD:pesect.obj
 0001:00090e80       __sopen_helper             10091e80 f   LIBCMTD:open.obj
 0001:00091120       __sopen_nolock             10092120 f   LIBCMTD:open.obj
 0001:00091190       __sopen_s                  10092190 f   LIBCMTD:open.obj
 0001:000911c0       __mbsnbcmp                 100921c0 f   LIBCMTD:mbsnbcmp.obj
 0001:000911e0       __mbsnbcmp_l               100921e0 f   LIBCMTD:mbsnbcmp.obj
 0001:00091500       __mbsnbicmp                10092500 f   LIBCMTD:mbsnbicm.obj
 0001:00091520       __mbsnbicmp_l              10092520 f   LIBCMTD:mbsnbicm.obj
 0001:00091a60       __global_unwind2           10092a60 f   LIBCMTD:exsup.obj
 0001:00091ac5       __local_unwind2            10092ac5 f   LIBCMTD:exsup.obj
 0001:00091b49       __abnormal_termination     10092b49 f   LIBCMTD:exsup.obj
 0001:00091b6c       __NLG_Notify1              10092b6c f   LIBCMTD:exsup.obj
 0001:00091b75       __NLG_Notify               10092b75 f   LIBCMTD:exsup.obj
 0001:00091b8c       __NLG_Dispatch             10092b8c     LIBCMTD:exsup.obj
 0001:00091b8c       __NLG_Dispatch2            10092b8c     LIBCMTD:exsup.obj
 0001:00091b94       __NLG_Call                 10092b94 f   LIBCMTD:exsup.obj
 0001:00091b96       __NLG_Return2              10092b96     LIBCMTD:exsup.obj
 0001:00091ba0       __getbuf                   10092ba0 f   LIBCMTD:_getbuf.obj
 0001:00091c70       __isatty                   10092c70 f   LIBCMTD:isatty.obj
 0001:00091d30       __output_s_l               10092d30 f   LIBCMTD:outputs.obj
 0001:000936e0       _strlen                    100946e0 f   LIBCMTD:strlen.obj
 0001:00093770       __get_printf_count_output  10094770 f   LIBCMTD:printf.obj
 0001:000937a0       __wctomb_s_l               100947a0 f   LIBCMTD:wctomb.obj
 0001:00093af0       _wctomb_s                  10094af0 f   LIBCMTD:wctomb.obj
 0001:00093b10       __matherr                  10094b10 f   LIBCMTD:matherr.obj
 0001:00093b20       _strcpy_s                  10094b20 f   LIBCMTD:strcpy_s.obj
 0001:00093e20       _atol                      10094e20 f   LIBCMTD:atox.obj
 0001:00093e40       _strcmp                    10094e40 f   LIBCMTD:strcmp.obj
 0001:00093ed0       __getenv_helper_nolock     10094ed0 f   LIBCMTD:getenv.obj
 0001:00093ff0       ___onexitinit              10094ff0 f   LIBCMTD:onexit.obj
 0001:00094050       __onexit                   10095050 f   LIBCMTD:onexit.obj
 0001:00094210       _atexit                    10095210 f   LIBCMTD:onexit.obj
 0001:00094240       __initp_misc_purevirt      10095240 f   LIBCMTD:inithelp.obj
 0001:00094250       __initp_misc_rand_s        10095250 f   LIBCMTD:rand_s.obj
 0001:00094260       __ftbuf                    10095260 f   LIBCMTD:_sftbuf.obj
 0001:000942f0       __stbuf                    100952f0 f   LIBCMTD:_sftbuf.obj
 0001:00094460       __woutput_l                10095460 f   LIBCMTD:woutput.obj
 0001:00095a50       __woutput_s_l              10096a50 f   LIBCMTD:woutputs.obj
 0001:00097040       __trandisp1                10098040 f   LIBCMTD:87disp.obj
 0001:000970a7       __trandisp2                100980a7 f   LIBCMTD:87disp.obj
 0001:00097133       __rttospopde               10098133     LIBCMTD:87disp.obj
 0001:00097138       __rttospop                 10098138     LIBCMTD:87disp.obj
 0001:0009713a       __rtnospop                 1009813a     LIBCMTD:87disp.obj
 0001:0009713c       __rttosnpop                1009813c     LIBCMTD:87disp.obj
 0001:0009713d       __rtnospopde               1009813d     LIBCMTD:87disp.obj
 0001:00097144       __rtzeropop                10098144     LIBCMTD:87disp.obj
 0001:00097146       __rtzeronpop               10098146     LIBCMTD:87disp.obj
 0001:0009714b       __rtonepop                 1009814b     LIBCMTD:87disp.obj
 0001:0009714d       __rtonenpop                1009814d     LIBCMTD:87disp.obj
 0001:00097152       __tosnan1                  10098152     LIBCMTD:87disp.obj
 0001:0009717d       __nosnan2                  1009817d     LIBCMTD:87disp.obj
 0001:0009717f       __tosnan2                  1009817f     LIBCMTD:87disp.obj
 0001:000971a7       __nan2                     100981a7     LIBCMTD:87disp.obj
 0001:000971e6       __rtindfpop                100981e6     LIBCMTD:87disp.obj
 0001:000971e8       __rtindfnpop               100981e8     LIBCMTD:87disp.obj
 0001:000971f9       __rttosnpopde              100981f9     LIBCMTD:87disp.obj
 0001:00097203       __rtchsifneg               10098203     LIBCMTD:87disp.obj
 0001:00097210       __87except                 10098210 f   LIBCMTD:87except.obj
 0001:00097410       __CIacos_pentium4          10098410 f   LIBCMTD:acos_pentium4.obj
 0001:00097428       __acos_pentium4            10098428     LIBCMTD:acos_pentium4.obj
 0001:00097970       __startTwoArgErrorHandling 10098970 f   LIBCMTD:genexcep.obj
 0001:00097987       __startOneArgErrorHandling 10098987 f   LIBCMTD:genexcep.obj
 0001:000979d0       __twoToTOS                 100989d0 f   LIBCMTD:common.obj
 0001:000979e5       __load_CW                  100989e5 f   LIBCMTD:common.obj
 0001:000979fc       __convertTOStoQNaN         100989fc f   LIBCMTD:common.obj
 0001:00097a15       __fload_withFB             10098a15 f   LIBCMTD:common.obj
 0001:00097a58       __checkTOS_withFB          10098a58 f   LIBCMTD:common.obj
 0001:00097a6e       __fast_exit                10098a6e f   LIBCMTD:common.obj
 0001:00097a7b       __math_exit                10098a7b f   LIBCMTD:common.obj
 0001:00097aa5       __check_overflow_exit      10098aa5 f   LIBCMTD:common.obj
 0001:00097ab9       __check_range_exit         10098ab9 f   LIBCMTD:common.obj
 0001:00097b60       __CIasin_pentium4          10098b60 f   LIBCMTD:asin_pentium4.obj
 0001:00097b78       __asin_pentium4            10098b78     LIBCMTD:asin_pentium4.obj
 0001:000980e0       __CIcos_pentium4           100990e0 f   LIBCMTD:cos_pentium4.obj
 0001:000980f8       __cos_pentium4             100990f8     LIBCMTD:cos_pentium4.obj
 0001:00098290       __CIpow_pentium4           10099290 f   LIBCMTD:pow_pentium4.obj
 0001:000982a9       __pow_pentium4             100992a9     LIBCMTD:pow_pentium4.obj
 0001:00098e01       __fFEXP                    10099e01     LIBCMTD:87tran.obj
 0001:00098e58       __rtinfpopse               10099e58     LIBCMTD:87tran.obj
 0001:00098e5a       __rtinfnpopse              10099e5a     LIBCMTD:87tran.obj
 0001:00098e6a       __fFLN                     10099e6a     LIBCMTD:87tran.obj
 0001:00098f1f       __rtinfpop                 10099f1f     LIBCMTD:87tran.obj
 0001:00098f21       __rtinfnpop                10099f21     LIBCMTD:87tran.obj
 0001:00098f3e       __ffexpm1                  10099f3e     LIBCMTD:87tran.obj
 0001:00098ff0       __d_inttype                10099ff0 f   LIBCMTD:powhlp.obj
 0001:00099080       __powhlp                   1009a080 f   LIBCMTD:powhlp.obj
 0001:00099230       __CIsin_pentium4           1009a230 f   LIBCMTD:sin_pentium4.obj
 0001:00099248       __sin_pentium4             1009a248     LIBCMTD:sin_pentium4.obj
 0001:00099400       __CItan_pentium4           1009a400 f   LIBCMTD:tan_pentium4.obj
 0001:00099418       __tan_pentium4             1009a418     LIBCMTD:tan_pentium4.obj
 0001:00099660       __frnd                     1009a660 f   LIBCMTD:frnd.obj
 0001:00099680       __isdigit_l                1009a680 f i LIBCMTD:_ctype.obj
 0001:00099700       _isdigit                   1009a700 f i LIBCMTD:_ctype.obj
 0001:00099730       __tolower_l                1009a730 f   LIBCMTD:tolower.obj
 0001:00099970       _tolower                   1009a970 f   LIBCMTD:tolower.obj
 0001:000999c0       _memmove                   1009a9c0 f   LIBCMTD:memmove.obj
 0001:0009a010       _strrchr                   1009b010 f   LIBCMTD:strrchr.obj
 0001:0009a150       __fptostr                  1009b150 f   LIBCMTD:_fptostr.obj
 0001:0009a470       ___dtold                   1009b470 f   LIBCMTD:cfout.obj
 0001:0009a5d0       __fltout2                  1009b5d0 f   LIBCMTD:cfout.obj
 0001:0009a680       __allshl                   1009b680 f   LIBCMTD:llshl.obj
 0001:0009a6a0       __aullshr                  1009b6a0 f   LIBCMTD:ullshr.obj
 0001:0009a6c0       __controlfp_s              1009b6c0 f   LIBCMTD:contrlfp.obj
 0001:0009a7b0       __fptrap                   1009b7b0 f   LIBCMTD:crt0fp.obj
 0001:0009a880       __ismbblead                1009b880 f   LIBCMTD:ismbbyte.obj
 0001:0009a8a0       _strcat_s                  1009b8a0 f   LIBCMTD:strcat_s.obj
 0001:0009aca0       __itoa_s                   1009bca0 f   LIBCMTD:xtoas.obj
 0001:0009b0e0       __mbstowcs_l_helper        1009c0e0 f   LIBCMTD:mbstowcs.obj
 0001:0009b470       __mbstowcs_s_l             1009c470 f   LIBCMTD:mbstowcs.obj
 0001:0009b830       _mbstowcs_s                1009c830 f   LIBCMTD:mbstowcs.obj
 0001:0009b8c0       __wcstombs_l_helper        1009c8c0 f   LIBCMTD:wcstombs.obj
 0001:0009bdd0       __wcstombs_s_l             1009cdd0 f   LIBCMTD:wcstombs.obj
 0001:0009c130       _wcstombs_s                1009d130 f   LIBCMTD:wcstombs.obj
 0001:0009c160       ___add_12                  1009d160 f i LIBCMTD:mantold.obj
 0001:0009c210       ___mtold12                 1009d210 f   LIBCMTD:mantold.obj
 0001:0009c360       ??3@YAXPAX@Z               1009d360 f   LIBCMTD:dbgdel.obj
 0001:0009c450       ?_ValidateExecute@@YAHP6GHXZ@Z 1009d450 f   LIBCMTD:validate.obj
 0001:0009c450       ?_ValidateWrite@@YAHPAXI@Z 1009d450 f   LIBCMTD:validate.obj
 0001:0009c450       ?_ValidateRead@@YAHPBXI@Z  1009d450 f   LIBCMTD:validate.obj
 0001:0009c470       ??1type_info@@UAE@XZ       1009d470 f   LIBCMTD:typinfo.obj
 0001:0009c490       ??8type_info@@QBE_NABV0@@Z 1009d490 f   LIBCMTD:typinfo.obj
 0001:0009c4d0       ??_Etype_info@@UAEPAXI@Z   1009d4d0 f i LIBCMTD:typinfo.obj
 0001:0009c4d0       ??_Gtype_info@@UAEPAXI@Z   1009d4d0 f i LIBCMTD:typinfo.obj
 0001:0009c500       ??0exception@std@@QAE@ABQBD@Z 1009d500 f   LIBCMTD:stdexcpt.obj
 0001:0009c540       ??0exception@std@@QAE@ABV01@@Z 1009d540 f   LIBCMTD:stdexcpt.obj
 0001:0009c580       ??1exception@std@@UAE@XZ   1009d580 f   LIBCMTD:stdexcpt.obj
 0001:0009c5a0       ??4exception@std@@QAEAAV01@ABV01@@Z 1009d5a0 f   LIBCMTD:stdexcpt.obj
 0001:0009c5f0       ??_Eexception@std@@UAEPAXI@Z 1009d5f0 f i LIBCMTD:stdexcpt.obj
 0001:0009c5f0       ??_Gexception@std@@UAEPAXI@Z 1009d5f0 f i LIBCMTD:stdexcpt.obj
 0001:0009c620       ?_Copy_str@exception@std@@AAEXPBD@Z 1009d620 f   LIBCMTD:stdexcpt.obj
 0001:0009c680       ?_Tidy@exception@std@@AAEXXZ 1009d680 f   LIBCMTD:stdexcpt.obj
 0001:0009c6c0       ?what@exception@std@@UBEPBDXZ 1009d6c0 f   LIBCMTD:stdexcpt.obj
 0001:0009c6f0       __CxxThrowException@8      1009d6f0 f   LIBCMTD:throw.obj
 0001:0009c790       __mbtowc_l                 1009d790 f   LIBCMTD:mbtowc.obj
 0001:0009c9d0       _mbtowc                    1009d9d0 f   LIBCMTD:mbtowc.obj
 0001:0009c9f0       __putwch_nolock            1009d9f0 f   LIBCMTD:putwch.obj
 0001:0009cae0       __wsopen_nolock            1009dae0 f   LIBCMTD:wopen.obj
 0001:0009db60       __strnicmp                 1009eb60 f   LIBCMTD:strnicmp.obj
 0001:0009dd30       __strnicmp_l               1009ed30 f   LIBCMTD:strnicmp.obj
 0001:0009dfc0       _strnlen                   1009efc0 f   LIBCMTD:strlen_s.obj
 0001:0009e000       ___wtomb_environ           1009f000 f   LIBCMTD:wtombenv.obj
 0001:0009e0f0       __mbsnbicoll               1009f0f0 f   LIBCMTD:mbsnbico.obj
 0001:0009e110       __mbsnbicoll_l             1009f110 f   LIBCMTD:mbsnbico.obj
 0001:0009e390       __fputwc_nolock            1009f390 f   LIBCMTD:fputwc.obj
 0001:0009e680       _$I10_OUTPUT               1009f680 f   LIBCMTD:x10fout.obj
 0001:0009f100       __control87                100a0100 f i LIBCMTD:ieee87.obj
 0001:0009f310       ?_Type_info_dtor@type_info@@CAXPAV1@@Z 100a0310 f   LIBCMTD:typname.obj
 0001:0009f420       ___termconout              100a0420 f   LIBCMTD:initcon.obj
 0001:0009f450       ___initconout              100a0450 f   LIBCMTD:initcon.obj
 0001:0009f480       __chsize_nolock            100a0480 f   LIBCMTD:chsize.obj
 0001:0009f730       __get_fmode                100a0730 f   LIBCMTD:setmode.obj
 0001:0009f7d0       __setmode_nolock           100a07d0 f   LIBCMTD:setmode.obj
 0001:0009fa40       ___ascii_strnicmp          100a0a40 f   LIBCMTD:_strnicm.obj
 0001:0009fab0       ___crtsetenv               100a0ab0 f   LIBCMTD:setenv.obj
 0001:000a0180       __strnicoll_l              100a1180 f   LIBCMTD:strnicol.obj
 0001:000a08a0       ___crtCompareStringA       100a18a0 f   LIBCMTD:a_cmp.obj
 0001:000a0900       __flswbuf                  100a1900 f   LIBCMTD:_flswbuf.obj
 0001:000a0bf0       __mbschr                   100a1bf0 f   LIBCMTD:mbschr.obj
 0001:000a0c10       __mbschr_l                 100a1c10 f   LIBCMTD:mbschr.obj
 0001:000a0db0       _strchr                    100a1db0 f   LIBCMTD:strchr.obj
 0001:000a0e1e       ___from_strstr_to_strchr   100a1e1e     LIBCMTD:strchr.obj
 0001:000a0edc       _IsProcessorFeaturePresent@4 100a1edc f   kernel32:KERNEL32.dll
 0001:000a0ee2       _RtlUnwind@16              100a1ee2 f   kernel32:KERNEL32.dll
 0002:00000000       __imp__SetPixelFormat@12   100a2000     gdi32:GDI32.dll
 0002:00000004       __imp__ChoosePixelFormat@8 100a2004     gdi32:GDI32.dll
 0002:00000008       __imp__SwapBuffers@4       100a2008     gdi32:GDI32.dll
 0002:0000000c       \177GDI32_NULL_THUNK_DATA  100a200c     gdi32:GDI32.dll
 0002:00000010       __imp__GetConsoleCP@0      100a2010     kernel32:KERNEL32.dll
 0002:00000014       __imp__SetStdHandle@8      100a2014     kernel32:KERNEL32.dll
 0002:00000018       __imp__LCMapStringW@24     100a2018     kernel32:KERNEL32.dll
 0002:0000001c       __imp__CompareStringW@24   100a201c     kernel32:KERNEL32.dll
 0002:00000020       __imp__CreateFileW@28      100a2020     kernel32:KERNEL32.dll
 0002:00000024       __imp__SetEndOfFile@4      100a2024     kernel32:KERNEL32.dll
 0002:00000028       __imp__SetEnvironmentVariableA@8 100a2028     kernel32:KERNEL32.dll
 0002:0000002c       __imp__GetModuleFileNameA@12 100a202c     kernel32:KERNEL32.dll
 0002:00000030       __imp__GetStringTypeW@16   100a2030     kernel32:KERNEL32.dll
 0002:00000034       __imp__HeapAlloc@12        100a2034     kernel32:KERNEL32.dll
 0002:00000038       __imp__HeapQueryInformation@20 100a2038     kernel32:KERNEL32.dll
 0002:0000003c       __imp__HeapSize@12         100a203c     kernel32:KERNEL32.dll
 0002:00000040       __imp__HeapReAlloc@16      100a2040     kernel32:KERNEL32.dll
 0002:00000044       __imp__HeapFree@12         100a2044     kernel32:KERNEL32.dll
 0002:00000048       __imp__FreeEnvironmentStringsW@4 100a2048     kernel32:KERNEL32.dll
 0002:0000004c       __imp__GetEnvironmentStringsW@0 100a204c     kernel32:KERNEL32.dll
 0002:00000050       __imp__GetCurrentProcessId@0 100a2050     kernel32:KERNEL32.dll
 0002:00000054       __imp__GetProcessHeap@0    100a2054     kernel32:KERNEL32.dll
 0002:00000058       __imp__LoadLibraryExW@12   100a2058     kernel32:KERNEL32.dll
 0002:0000005c       __imp__CreateThread@24     100a205c     kernel32:KERNEL32.dll
 0002:00000060       __imp__WaitForSingleObjectEx@12 100a2060     kernel32:KERNEL32.dll
 0002:00000064       __imp__OutputDebugStringW@4 100a2064     kernel32:KERNEL32.dll
 0002:00000068       __imp__AreFileApisANSI@0   100a2068     kernel32:KERNEL32.dll
 0002:0000006c       __imp__ExitProcess@4       100a206c     kernel32:KERNEL32.dll
 0002:00000070       __imp__WideCharToMultiByte@32 100a2070     kernel32:KERNEL32.dll
 0002:00000074       __imp__GetTimeZoneInformation@4 100a2074     kernel32:KERNEL32.dll
 0002:00000078       __imp__RaiseException@16   100a2078     kernel32:KERNEL32.dll
 0002:0000007c       __imp__DeleteCriticalSection@4 100a207c     kernel32:KERNEL32.dll
 0002:00000080       __imp__SetFilePointerEx@20 100a2080     kernel32:KERNEL32.dll
 0002:00000084       __imp__ReadConsoleW@20     100a2084     kernel32:KERNEL32.dll
 0002:00000088       __imp__GetConsoleMode@8    100a2088     kernel32:KERNEL32.dll
 0002:0000008c       __imp__LeaveCriticalSection@4 100a208c     kernel32:KERNEL32.dll
 0002:00000090       __imp__EnterCriticalSection@4 100a2090     kernel32:KERNEL32.dll
 0002:00000094       __imp__RtlUnwind@16        100a2094     kernel32:KERNEL32.dll
 0002:00000098       __imp__GetCPInfo@8         100a2098     kernel32:KERNEL32.dll
 0002:0000009c       __imp__GetOEMCP@0          100a209c     kernel32:KERNEL32.dll
 0002:000000a0       __imp__GetACP@0            100a20a0     kernel32:KERNEL32.dll
 0002:000000a4       __imp__IsValidCodePage@4   100a20a4     kernel32:KERNEL32.dll
 0002:000000a8       __imp__GetSystemInfo@4     100a20a8     kernel32:KERNEL32.dll
 0002:000000ac       __imp__HeapValidate@12     100a20ac     kernel32:KERNEL32.dll
 0002:000000b0       __imp__DecodePointer@4     100a20b0     kernel32:KERNEL32.dll
 0002:000000b4       __imp__GetEnvironmentStrings@0 100a20b4     kernel32:KERNEL32.dll
 0002:000000b8       __imp__SetCurrentDirectoryA@4 100a20b8     kernel32:KERNEL32.dll
 0002:000000bc       __imp__GetCurrentDirectoryA@8 100a20bc     kernel32:KERNEL32.dll
 0002:000000c0       __imp__CreateDirectoryA@8  100a20c0     kernel32:KERNEL32.dll
 0002:000000c4       __imp__CreateFileA@28      100a20c4     kernel32:KERNEL32.dll
 0002:000000c8       __imp__DeleteFileA@4       100a20c8     kernel32:KERNEL32.dll
 0002:000000cc       __imp__FindFirstFileA@8    100a20cc     kernel32:KERNEL32.dll
 0002:000000d0       __imp__FindNextFileA@8     100a20d0     kernel32:KERNEL32.dll
 0002:000000d4       __imp__FlushFileBuffers@4  100a20d4     kernel32:KERNEL32.dll
 0002:000000d8       __imp__GetFileAttributesA@4 100a20d8     kernel32:KERNEL32.dll
 0002:000000dc       __imp__GetFileSize@8       100a20dc     kernel32:KERNEL32.dll
 0002:000000e0       __imp__GetFileTime@16      100a20e0     kernel32:KERNEL32.dll
 0002:000000e4       __imp__ReadFile@20         100a20e4     kernel32:KERNEL32.dll
 0002:000000e8       __imp__RemoveDirectoryA@4  100a20e8     kernel32:KERNEL32.dll
 0002:000000ec       __imp__SetFilePointer@16   100a20ec     kernel32:KERNEL32.dll
 0002:000000f0       __imp__WriteFile@20        100a20f0     kernel32:KERNEL32.dll
 0002:000000f4       __imp__OutputDebugStringA@4 100a20f4     kernel32:KERNEL32.dll
 0002:000000f8       __imp__CloseHandle@4       100a20f8     kernel32:KERNEL32.dll
 0002:000000fc       __imp__GetLastError@0      100a20fc     kernel32:KERNEL32.dll
 0002:00000100       __imp__CreatePipe@16       100a2100     kernel32:KERNEL32.dll
 0002:00000104       __imp__PeekNamedPipe@24    100a2104     kernel32:KERNEL32.dll
 0002:00000108       __imp__QueryPerformanceCounter@4 100a2108     kernel32:KERNEL32.dll
 0002:0000010c       __imp__QueryPerformanceFrequency@4 100a210c     kernel32:KERNEL32.dll
 0002:00000110       __imp__CreateIoCompletionPort@16 100a2110     kernel32:KERNEL32.dll
 0002:00000114       __imp__GetQueuedCompletionStatus@20 100a2114     kernel32:KERNEL32.dll
 0002:00000118       __imp__CancelIo@4          100a2118     kernel32:KERNEL32.dll
 0002:0000011c       __imp__WaitForSingleObject@8 100a211c     kernel32:KERNEL32.dll
 0002:00000120       __imp__Sleep@4             100a2120     kernel32:KERNEL32.dll
 0002:00000124       __imp__GetExitCodeProcess@8 100a2124     kernel32:KERNEL32.dll
 0002:00000128       __imp__CreateProcessA@40   100a2128     kernel32:KERNEL32.dll
 0002:0000012c       __imp__VirtualAlloc@16     100a212c     kernel32:KERNEL32.dll
 0002:00000130       __imp__VirtualFree@12      100a2130     kernel32:KERNEL32.dll
 0002:00000134       __imp__FreeLibrary@4       100a2134     kernel32:KERNEL32.dll
 0002:00000138       __imp__GetProcAddress@8    100a2138     kernel32:KERNEL32.dll
 0002:0000013c       __imp__OpenFile@12         100a213c     kernel32:KERNEL32.dll
 0002:00000140       __imp__LoadLibraryA@4      100a2140     kernel32:KERNEL32.dll
 0002:00000144       __imp__GetPrivateProfileStringA@24 100a2144     kernel32:KERNEL32.dll
 0002:00000148       __imp__WritePrivateProfileStringA@16 100a2148     kernel32:KERNEL32.dll
 0002:0000014c       __imp__CopyFileA@12        100a214c     kernel32:KERNEL32.dll
 0002:00000150       __imp__MoveFileA@8         100a2150     kernel32:KERNEL32.dll
 0002:00000154       __imp__ReadDirectoryChangesW@32 100a2154     kernel32:KERNEL32.dll
 0002:00000158       __imp__FileTimeToSystemTime@8 100a2158     kernel32:KERNEL32.dll
 0002:0000015c       __imp__MultiByteToWideChar@24 100a215c     kernel32:KERNEL32.dll
 0002:00000160       __imp__IsDebuggerPresent@0 100a2160     kernel32:KERNEL32.dll
 0002:00000164       __imp__IsProcessorFeaturePresent@4 100a2164     kernel32:KERNEL32.dll
 0002:00000168       __imp__GetSystemTimeAsFileTime@4 100a2168     kernel32:KERNEL32.dll
 0002:0000016c       __imp__GetStdHandle@4      100a216c     kernel32:KERNEL32.dll
 0002:00000170       __imp__GetFileType@4       100a2170     kernel32:KERNEL32.dll
 0002:00000174       __imp__GetModuleFileNameW@12 100a2174     kernel32:KERNEL32.dll
 0002:00000178       __imp__GetModuleHandleExW@12 100a2178     kernel32:KERNEL32.dll
 0002:0000017c       __imp__WriteConsoleW@20    100a217c     kernel32:KERNEL32.dll
 0002:00000180       __imp__GetCommandLineA@0   100a2180     kernel32:KERNEL32.dll
 0002:00000184       __imp__GetCurrentThreadId@0 100a2184     kernel32:KERNEL32.dll
 0002:00000188       __imp__UnhandledExceptionFilter@4 100a2188     kernel32:KERNEL32.dll
 0002:0000018c       __imp__SetUnhandledExceptionFilter@4 100a218c     kernel32:KERNEL32.dll
 0002:00000190       __imp__SetLastError@4      100a2190     kernel32:KERNEL32.dll
 0002:00000194       __imp__InitializeCriticalSectionAndSpinCount@8 100a2194     kernel32:KERNEL32.dll
 0002:00000198       __imp__GetCurrentProcess@0 100a2198     kernel32:KERNEL32.dll
 0002:0000019c       __imp__TerminateProcess@8  100a219c     kernel32:KERNEL32.dll
 0002:000001a0       __imp__TlsAlloc@0          100a21a0     kernel32:KERNEL32.dll
 0002:000001a4       __imp__TlsGetValue@4       100a21a4     kernel32:KERNEL32.dll
 0002:000001a8       __imp__TlsSetValue@8       100a21a8     kernel32:KERNEL32.dll
 0002:000001ac       __imp__TlsFree@4           100a21ac     kernel32:KERNEL32.dll
 0002:000001b0       __imp__GetStartupInfoW@4   100a21b0     kernel32:KERNEL32.dll
 0002:000001b4       __imp__GetModuleHandleW@4  100a21b4     kernel32:KERNEL32.dll
 0002:000001b8       __imp__EncodePointer@4     100a21b8     kernel32:KERNEL32.dll
 0002:000001bc       \177KERNEL32_NULL_THUNK_DATA 100a21bc     kernel32:KERNEL32.dll
 0002:000001c0       __imp__glViewport@16       100a21c0     opengl32:OPENGL32.dll
 0002:000001c4       __imp__glVertex3f@12       100a21c4     opengl32:OPENGL32.dll
 0002:000001c8       __imp__glTexParameteri@12  100a21c8     opengl32:OPENGL32.dll
 0002:000001cc       __imp__glTexParameterfv@12 100a21cc     opengl32:OPENGL32.dll
 0002:000001d0       __imp__glTexImage2D@36     100a21d0     opengl32:OPENGL32.dll
 0002:000001d4       __imp__glScissor@16        100a21d4     opengl32:OPENGL32.dll
 0002:000001d8       __imp__glReadBuffer@4      100a21d8     opengl32:OPENGL32.dll
 0002:000001dc       __imp__glPushMatrix@0      100a21dc     opengl32:OPENGL32.dll
 0002:000001e0       __imp__glPopMatrix@0       100a21e0     opengl32:OPENGL32.dll
 0002:000001e4       __imp__glOrtho@48          100a21e4     opengl32:OPENGL32.dll
 0002:000001e8       __imp__glMatrixMode@4      100a21e8     opengl32:OPENGL32.dll
 0002:000001ec       __imp__glLoadMatrixf@4     100a21ec     opengl32:OPENGL32.dll
 0002:000001f0       __imp__glLoadIdentity@0    100a21f0     opengl32:OPENGL32.dll
 0002:000001f4       __imp__glLineWidth@4       100a21f4     opengl32:OPENGL32.dll
 0002:000001f8       __imp__glGetError@0        100a21f8     opengl32:OPENGL32.dll
 0002:000001fc       __imp__glGenTextures@8     100a21fc     opengl32:OPENGL32.dll
 0002:00000200       __imp__glEnd@0             100a2200     opengl32:OPENGL32.dll
 0002:00000204       __imp__glEnable@4          100a2204     opengl32:OPENGL32.dll
 0002:00000208       __imp__glDrawBuffer@4      100a2208     opengl32:OPENGL32.dll
 0002:0000020c       __imp__glDrawArrays@12     100a220c     opengl32:OPENGL32.dll
 0002:00000210       __imp__glDisable@4         100a2210     opengl32:OPENGL32.dll
 0002:00000214       __imp__glDepthFunc@4       100a2214     opengl32:OPENGL32.dll
 0002:00000218       __imp__glDeleteTextures@8  100a2218     opengl32:OPENGL32.dll
 0002:0000021c       __imp__glCullFace@4        100a221c     opengl32:OPENGL32.dll
 0002:00000220       __imp__glColor4fv@4        100a2220     opengl32:OPENGL32.dll
 0002:00000224       __imp__glClearColor@16     100a2224     opengl32:OPENGL32.dll
 0002:00000228       __imp__glClear@4           100a2228     opengl32:OPENGL32.dll
 0002:0000022c       __imp__glBlendFunc@8       100a222c     opengl32:OPENGL32.dll
 0002:00000230       __imp__glBindTexture@8     100a2230     opengl32:OPENGL32.dll
 0002:00000234       __imp__glBegin@4           100a2234     opengl32:OPENGL32.dll
 0002:00000238       __imp__wglMakeCurrent@8    100a2238     opengl32:OPENGL32.dll
 0002:0000023c       __imp__wglGetProcAddress@4 100a223c     opengl32:OPENGL32.dll
 0002:00000240       __imp__wglDeleteContext@4  100a2240     opengl32:OPENGL32.dll
 0002:00000244       __imp__wglCreateContext@4  100a2244     opengl32:OPENGL32.dll
 0002:00000248       \177OPENGL32_NULL_THUNK_DATA 100a2248     opengl32:OPENGL32.dll
 0002:0000024c       __imp__SHGetFolderPathA@20 100a224c     shell32:SHELL32.dll
 0002:00000250       \177SHELL32_NULL_THUNK_DATA 100a2250     shell32:SHELL32.dll
 0002:00000254       __imp__LoadCursorA@8       100a2254     user32:USER32.dll
 0002:00000258       __imp__SetWindowLongA@12   100a2258     user32:USER32.dll
 0002:0000025c       __imp__GetWindowLongA@8    100a225c     user32:USER32.dll
 0002:00000260       __imp__SetCursor@4         100a2260     user32:USER32.dll
 0002:00000264       __imp__GetWindowRect@8     100a2264     user32:USER32.dll
 0002:00000268       __imp__ReleaseDC@8         100a2268     user32:USER32.dll
 0002:0000026c       __imp__GetDC@4             100a226c     user32:USER32.dll
 0002:00000270       __imp__GetSystemMetrics@4  100a2270     user32:USER32.dll
 0002:00000274       __imp__SetWindowPos@28     100a2274     user32:USER32.dll
 0002:00000278       __imp__PeekMessageA@20     100a2278     user32:USER32.dll
 0002:0000027c       __imp__DispatchMessageA@4  100a227c     user32:USER32.dll
 0002:00000280       __imp__TranslateMessage@4  100a2280     user32:USER32.dll
 0002:00000284       \177USER32_NULL_THUNK_DATA 100a2284     user32:USER32.dll
 0002:00000288       ___xc_a                    100a2288     LIBCMTD:crt0init.obj
 0002:000003e0       ___xc_z                    100a23e0     LIBCMTD:crt0init.obj
 0002:000003e4       ___xi_a                    100a23e4     LIBCMTD:crt0init.obj
 0002:000003fc       ___xi_z                    100a23fc     LIBCMTD:crt0init.obj
 0002:00000400       ___xp_a                    100a2400     LIBCMTD:crt0init.obj
 0002:00000410       ___xp_z                    100a2410     LIBCMTD:crt0init.obj
 0002:00000414       ___xt_a                    100a2414     LIBCMTD:crt0init.obj
 0002:00000418       ___xt_z                    100a2418     LIBCMTD:crt0init.obj
 0002:00028a10       ??_C@_0BJ@HEMNGNAG@?$CFs?5took?5?$CFf?5ms?5to?5execute?$AA@ 100caa10     unity_dll.obj
 0002:00028a2c       ??_C@_0CE@JPMMNFEP@assert?5failed?3?5?8?$CFs?8?5in?5file?5?$CFs?5?$CI@ 100caa2c     unity_dll.obj
 0002:00028a50       ??_C@_0DA@MCHFBOCK@e?3?2development?2projects?2zerotole@ 100caa50     unity_dll.obj
 0002:00028a80       ??_C@_0DF@PMCECKGK@button?5?$DO?$DN?50?5?$CG?$CG?5button?5?$DM?5zt_eleme@ 100caa80     unity_dll.obj
 0002:00028ab8       ??_C@_0BG@FGBMHJLH@ztGuiItemType_Invalid?$AA@ 100caab8     unity_dll.obj
 0002:00028ad0       ??_C@_0BF@HOMPELKI@ztGuiItemType_Window?$AA@ 100caad0     unity_dll.obj
 0002:00028ae8       ??_C@_0BE@LHMMLDBP@ztGuiItemType_Panel?$AA@ 100caae8     unity_dll.obj
 0002:00028afc       ??_C@_0BO@NJMCDIPG@ztGuiItemType_CollapsingPanel?$AA@ 100caafc     unity_dll.obj
 0002:00028b1c       ??_C@_0BJ@OFAJNNMG@ztGuiItemType_StaticText?$AA@ 100cab1c     unity_dll.obj
 0002:00028b38       ??_C@_0BF@NOHEELIF@ztGuiItemType_Button?$AA@ 100cab38     unity_dll.obj
 0002:00028b50       ??_C@_0BL@LHDCEEDI@ztGuiItemType_ToggleButton?$AA@ 100cab50     unity_dll.obj
 0002:00028b6c       ??_C@_0BH@JDHONJBJ@ztGuiItemType_Checkbox?$AA@ 100cab6c     unity_dll.obj
 0002:00028b84       ??_C@_0BK@BCEOMCNC@ztGuiItemType_RadioButton?$AA@ 100cab84     unity_dll.obj
 0002:00028ba0       ??_C@_0BF@BIINFDIL@ztGuiItemType_Slider?$AA@ 100caba0     unity_dll.obj
 0002:00028bb8       ??_C@_0BD@GIDLNPDI@ztGuiItemType_Menu?$AA@ 100cabb8     unity_dll.obj
 0002:00028bcc       ??_C@_0BI@COHMEOOF@ztGuiItemType_Scrollbar?$AA@ 100cabcc     unity_dll.obj
 0002:00028be4       ??_C@_0BO@DGHICALL@ztGuiItemType_ScrollContainer?$AA@ 100cabe4     unity_dll.obj
 0002:00028c04       ??_C@_0BH@CLKCNBFK@ztGuiItemType_TextEdit?$AA@ 100cac04     unity_dll.obj
 0002:00028c1c       ??_C@_0BC@EAKOLKKE@ztGuiItemType_Tab?$AA@ 100cac1c     unity_dll.obj
 0002:00028c30       ??_C@_0BD@IOJCLIFN@ztGuiItemType_Tree?$AA@ 100cac30     unity_dll.obj
 0002:00028c44       ??_C@_0BH@DELKEEDM@ztGuiItemType_ComboBox?$AA@ 100cac44     unity_dll.obj
 0002:00028c5c       ??_C@_0BM@EFDLGACK@ztGuiItemType_SpriteDisplay?$AA@ 100cac5c     unity_dll.obj
 0002:00028c78       ??_C@_0BK@EJDHBFCN@ztGuiItemType_ProgressBar?$AA@ 100cac78     unity_dll.obj
 0002:00028c94       ??_C@_0BE@KBCHFGH@ztGuiItemType_Sizer?$AA@ 100cac94     unity_dll.obj
 0002:00028ca8       ??_C@_0BF@OBAOMPOC@ztGuiItemType_Custom?$AA@ 100caca8     unity_dll.obj
 0002:00028cc0       ??_C@_07NBCGADJA@Unknown?$AA@ 100cacc0     unity_dll.obj
 0002:00028cc8       __real@00000000            100cacc8     unity_dll.obj
 0002:00028cd0       __real@0000000000000000    100cacd0     unity_dll.obj
 0002:00028cd8       __real@34000000            100cacd8     unity_dll.obj
 0002:00028cdc       __real@3c23d70a            100cacdc     unity_dll.obj
 0002:00028ce0       __real@3c888889            100cace0     unity_dll.obj
 0002:00028ce4       __real@3c8efa3e            100cace4     unity_dll.obj
 0002:00028ce8       __real@3d4ccccd            100cace8     unity_dll.obj
 0002:00028cec       __real@3dcccccd            100cacec     unity_dll.obj
 0002:00028cf0       __real@3df8f8f9            100cacf0     unity_dll.obj
 0002:00028cf4       __real@3e800000            100cacf4     unity_dll.obj
 0002:00028cf8       __real@3eb33333            100cacf8     unity_dll.obj
 0002:00028cfc       __real@3f000000            100cacfc     unity_dll.obj
 0002:00028d00       __real@3f129293            100cad00     unity_dll.obj
 0002:00028d04       __real@3f266666            100cad04     unity_dll.obj
 0002:00028d08       __real@3f400000            100cad08     unity_dll.obj
 0002:00028d0c       __real@3f48c8c9            100cad0c     unity_dll.obj
 0002:00028d10       __real@3f4dcdce            100cad10     unity_dll.obj
 0002:00028d14       __real@3f52d2d3            100cad14     unity_dll.obj
 0002:00028d18       __real@3f733333            100cad18     unity_dll.obj
 0002:00028d1c       __real@3f79f9fa            100cad1c     unity_dll.obj
 0002:00028d20       __real@3f800000            100cad20     unity_dll.obj
 0002:00028d24       __real@3f8147ae            100cad24     unity_dll.obj
 0002:00028d28       __real@3f860a9a            100cad28     unity_dll.obj
 0002:00028d2c       __real@3f99999a            100cad2c     unity_dll.obj
 0002:00028d30       __real@3ff0000000000000    100cad30     unity_dll.obj
 0002:00028d38       __real@40000000            100cad38     unity_dll.obj
 0002:00028d3c       __real@40200000            100cad3c     unity_dll.obj
 0002:00028d40       __real@40400000            100cad40     unity_dll.obj
 0002:00028d44       __real@40500000            100cad44     unity_dll.obj
 0002:00028d48       __real@4059000000000000    100cad48     unity_dll.obj
 0002:00028d50       __real@40800000            100cad50     unity_dll.obj
 0002:00028d54       __real@40880000            100cad54     unity_dll.obj
 0002:00028d58       __real@408f400000000000    100cad58     unity_dll.obj
 0002:00028d60       __real@40980000            100cad60     unity_dll.obj
 0002:00028d64       __real@409851ec            100cad64     unity_dll.obj
 0002:00028d68       __real@40a00000            100cad68     unity_dll.obj
 0002:00028d6c       __real@40c00000            100cad6c     unity_dll.obj
 0002:00028d70       __real@40e00000            100cad70     unity_dll.obj
 0002:00028d74       __real@40f00000            100cad74     unity_dll.obj
 0002:00028d78       __real@41000000            100cad78     unity_dll.obj
 0002:00028d7c       __real@41100000            100cad7c     unity_dll.obj
 0002:00028d80       __real@41200000            100cad80     unity_dll.obj
 0002:00028d88       __real@412e848000000000    100cad88     unity_dll.obj
 0002:00028d90       __real@41400000            100cad90     unity_dll.obj
 0002:00028d94       __real@41600000            100cad94     unity_dll.obj
 0002:00028d98       __real@41800000            100cad98     unity_dll.obj
 0002:00028d9c       __real@41880000            100cad9c     unity_dll.obj
 0002:00028da0       __real@41a00000            100cada0     unity_dll.obj
 0002:00028da4       __real@41b00000            100cada4     unity_dll.obj
 0002:00028da8       __real@41c00000            100cada8     unity_dll.obj
 0002:00028dac       __real@41c80000            100cadac     unity_dll.obj
 0002:00028db0       __real@41d00000            100cadb0     unity_dll.obj
 0002:00028db4       __real@41d80000            100cadb4     unity_dll.obj
 0002:00028db8       __real@41f00000            100cadb8     unity_dll.obj
 0002:00028dbc       __real@41f80000            100cadbc     unity_dll.obj
 0002:00028dc0       __real@42000000            100cadc0     unity_dll.obj
 0002:00028dc4       __real@42652ed0            100cadc4     unity_dll.obj
 0002:00028dc8       __real@42b20000            100cadc8     unity_dll.obj
 0002:00028dcc       __real@42c00000            100cadcc     unity_dll.obj
 0002:00028dd0       __real@42c80000            100cadd0     unity_dll.obj
 0002:00028dd4       __real@43000000            100cadd4     unity_dll.obj
 0002:00028dd8       __real@437f0000            100cadd8     unity_dll.obj
 0002:00028ddc       __real@43b40000            100caddc     unity_dll.obj
 0002:00028de0       __real@447a0000            100cade0     unity_dll.obj
 0002:00028de4       __real@44800000            100cade4     unity_dll.obj
 0002:00028de8       __real@461c3c00            100cade8     unity_dll.obj
 0002:00028dec       __real@461c4000            100cadec     unity_dll.obj
 0002:00028df0       __real@46800000            100cadf0     unity_dll.obj
 0002:00028df4       __real@47000000            100cadf4     unity_dll.obj
 0002:00028df8       __real@477fff00            100cadf8     unity_dll.obj
 0002:00028dfc       __real@49742400            100cadfc     unity_dll.obj
 0002:00028e00       __real@49800000            100cae00     unity_dll.obj
 0002:00028e04       __real@4e800000            100cae04     unity_dll.obj
 0002:00028e08       __real@b58637bd            100cae08     unity_dll.obj
 0002:00028e0c       __real@be800000            100cae0c     unity_dll.obj
 0002:00028e10       __real@bf000000            100cae10     unity_dll.obj
 0002:00028e14       __real@bf400000            100cae14     unity_dll.obj
 0002:00028e18       __real@bf800000            100cae18     unity_dll.obj
 0002:00028e1c       __real@bfd33333            100cae1c     unity_dll.obj
 0002:00028e20       __real@c0000000            100cae20     unity_dll.obj
 0002:00028e24       __real@c0400000            100cae24     unity_dll.obj
 0002:00028e28       __real@c0500000            100cae28     unity_dll.obj
 0002:00028e30       __real@c059000000000000    100cae30     unity_dll.obj
 0002:00028e38       __real@c0733333            100cae38     unity_dll.obj
 0002:00028e3c       __real@c1c80000            100cae3c     unity_dll.obj
 0002:00028e40       __real@c1d00000            100cae40     unity_dll.obj
 0002:00028e44       __real@c2b20000            100cae44     unity_dll.obj
 0002:00028e48       __real@c7000000            100cae48     unity_dll.obj
 0002:00028e50       __xmm@00000200000002000000020000000200 100cae50     unity_dll.obj
 0002:00028e60       __xmm@00080008000800080008000800080008 100cae60     unity_dll.obj
 0002:00028e70       __xmm@00ff00ff00ff00ff00ff00ff00ff00ff 100cae70     unity_dll.obj
 0002:00028e80       __xmm@01010000010100000101000001010000 100cae80     unity_dll.obj
 0002:00028e90       __xmm@08a914e808a914e808a914e808a914e8 100cae90     unity_dll.obj
 0002:00028ea0       __xmm@11c8e09e11c8e09e11c8e09e11c8e09e 100caea0     unity_dll.obj
 0002:00028eb0       __xmm@11c8f9c311c8f9c311c8f9c311c8f9c3 100caeb0     unity_dll.obj
 0002:00028ec0       __xmm@12d0046b12d0046b12d0046b12d0046b 100caec0     unity_dll.obj
 0002:00028ed0       __xmm@166f166f166f166f166f166f166f166f 100caed0     unity_dll.obj
 0002:00028ee0       __xmm@1c5a1c5a1c5a1c5a1c5a1c5a1c5a1c5a 100caee0     unity_dll.obj
 0002:00028ef0       __xmm@41f00000000000000000000000000000 100caef0     unity_dll.obj
 0002:00028f00       __xmm@7fffffffffffffff7fffffffffffffff 100caf00     unity_dll.obj
 0002:00028f10       __xmm@80000000800000008000000080000000 100caf10     unity_dll.obj
 0002:00028f20       __xmm@80808080808080808080808080808080 100caf20     unity_dll.obj
 0002:00028f30       __xmm@e09ee565e09ee565e09ee565e09ee565 100caf30     unity_dll.obj
 0002:00028f40       __xmm@e9cf12d0e9cf12d0e9cf12d0e9cf12d0 100caf40     unity_dll.obj
 0002:00028f50       __xmm@eb1a08a9eb1a08a9eb1a08a9eb1a08a9 100caf50     unity_dll.obj
 0002:00028f60       __xmm@f493f493f493f493f493f493f493f493 100caf60     unity_dll.obj
 0002:00028f70       __xmm@f9c31a9df9c31a9df9c31a9df9c31a9d 100caf70     unity_dll.obj
 0002:00028f80       __xmm@fa7efa7efa7efa7efa7efa7efa7efa7e 100caf80     unity_dll.obj
 0002:00028f98       ??_C@_1FC@NCPEPIBI@?$AA?$CI?$AA?$CI?$AA_?$AAD?$AAs?$AAt?$AA?$CJ?$AA?$CJ?$AA?5?$AA?$CB?$AA?$DN?$AA?5?$AAN?$AAU?$AAL?$AAL?$AA?5?$AA?$CG?$AA?$CG?$AA?5?$AA?$CI?$AA?$CI?$AA_?$AAS?$AAi?$AAz?$AAe?$AAI?$AAn?$AAB?$AAy?$AAt@ 100caf98     LIBCMTD:strncpy_s.obj
 0002:00028fec       ??_C@_15GANGMFKL@?$AA?$CF?$AAs?$AA?$AA@ 100cafec     LIBCMTD:strncpy_s.obj
 0002:00028ff8       ??_C@_1FC@LFLBLJJB@?$AAf?$AA?3?$AA?2?$AAd?$AAd?$AA?2?$AAv?$AAc?$AAt?$AAo?$AAo?$AAl?$AAs?$AA?2?$AAc?$AAr?$AAt?$AA?2?$AAc?$AAr?$AAt?$AAw?$AA3?$AA2?$AA?2?$AAh?$AA?2?$AAt?$AAc?$AAs?$AAn?$AAc@ 100caff8     LIBCMTD:strncpy_s.obj
 0002:0002904c       ??_C@_1BE@NDMJHJJG@?$AAs?$AAt?$AAr?$AAn?$AAc?$AAp?$AAy?$AA_?$AAs?$AA?$AA@ 100cb04c     LIBCMTD:strncpy_s.obj
 0002:00029060       ??_C@_1CG@OFBJMIGJ@?$AA?$CI?$AA?$CI?$AA?$CI?$AA_?$AAS?$AAr?$AAc?$AA?$CJ?$AA?$CJ?$AA?$CJ?$AA?5?$AA?$CB?$AA?$DN?$AA?5?$AAN?$AAU?$AAL?$AAL?$AA?$AA@ 100cb060     LIBCMTD:strncpy_s.obj
 0002:00029088       ??_C@_1CI@HCPHDDLE@?$AAB?$AAu?$AAf?$AAf?$AAe?$AAr?$AA?5?$AAi?$AAs?$AA?5?$AAt?$AAo?$AAo?$AA?5?$AAs?$AAm?$AAa?$AAl?$AAl?$AA?$AA@ 100cb088     LIBCMTD:strncpy_s.obj
 0002:000290b0       ??_C@_1DM@MADKGDLO@?$AA?$CI?$AAL?$AA?$CC?$AAB?$AAu?$AAf?$AAf?$AAe?$AAr?$AA?5?$AAi?$AAs?$AA?5?$AAt?$AAo?$AAo?$AA?5?$AAs?$AAm?$AAa?$AAl?$AAl?$AA?$CC?$AA?5?$AA?$CG?$AA?$CG?$AA?5?$AA0?$AA?$CJ?$AA?$AA@ 100cb0b0     LIBCMTD:strncpy_s.obj
 0002:000290ec       ??_C@_1BK@LAOAACLJ@?$AAn?$AAp?$AAt?$AAr?$AA?5?$AA?$CB?$AA?$DN?$AA?5?$AAN?$AAU?$AAL?$AAL?$AA?$AA@ 100cb0ec     LIBCMTD:strtod.obj
 0002:00029108       ??_C@_1FE@DNGHOFOC@?$AAf?$AA?3?$AA?2?$AAd?$AAd?$AA?2?$AAv?$AAc?$AAt?$AAo?$AAo?$AAl?$AAs?$AA?2?$AAc?$AAr?$AAt?$AA?2?$AAc?$AAr?$AAt?$AAw?$AA3?$AA2?$AA?2?$AAc?$AAo?$AAn?$AAv?$AAe?$AAr?$AAt@ 100cb108     LIBCMTD:strtod.obj
 0002:0002915c       ??_C@_1BE@KFBKGHJC@?$AA_?$AAs?$AAt?$AAr?$AAt?$AAo?$AAd?$AA_?$AAl?$AA?$AA@ 100cb15c     LIBCMTD:strtod.obj
 0002:00029170       ??_C@_1FE@OOICPOFH@?$AAf?$AA?3?$AA?2?$AAd?$AAd?$AA?2?$AAv?$AAc?$AAt?$AAo?$AAo?$AAl?$AAs?$AA?2?$AAc?$AAr?$AAt?$AA?2?$AAc?$AAr?$AAt?$AAw?$AA3?$AA2?$AA?2?$AAc?$AAo?$AAn?$AAv?$AAe?$AAr?$AAt@ 100cb170     LIBCMTD:strtol.obj
 0002:000291c4       ??_C@_1BA@LOLAMAJG@?$AAs?$AAt?$AAr?$AAt?$AAo?$AAx?$AAl?$AA?$AA@ 100cb1c4     LIBCMTD:strtol.obj
 0002:000291d8       ??_C@_1FE@CEHLKAHD@?$AAi?$AAb?$AAa?$AAs?$AAe?$AA?5?$AA?$DN?$AA?$DN?$AA?5?$AA0?$AA?5?$AA?$HM?$AA?$HM?$AA?5?$AA?$CI?$AA2?$AA?5?$AA?$DM?$AA?$DN?$AA?5?$AAi?$AAb?$AAa?$AAs?$AAe?$AA?5?$AA?$CG?$AA?$CG?$AA?5?$AAi?$AAb?$AAa@ 100cb1d8     LIBCMTD:strtol.obj
 0002:0002922c       ??_C@_1CC@FADMNIL@?$AA?$CI?$AAs?$AAt?$AAr?$AAe?$AAa?$AAm?$AA?5?$AA?$CB?$AA?$DN?$AA?5?$AAN?$AAU?$AAL?$AAL?$AA?$CJ?$AA?$AA@ 100cb22c     LIBCMTD:fclose.obj
 0002:00029250       ??_C@_1FA@HHFEGMDA@?$AAf?$AA?3?$AA?2?$AAd?$AAd?$AA?2?$AAv?$AAc?$AAt?$AAo?$AAo?$AAl?$AAs?$AA?2?$AAc?$AAr?$AAt?$AA?2?$AAc?$AAr?$AAt?$AAw?$AA3?$AA2?$AA?2?$AAs?$AAt?$AAd?$AAi?$AAo?$AA?2?$AAf@ 100cb250     LIBCMTD:fclose.obj
 0002:000292a0       ??_C@_1O@EGMJNCOI@?$AAf?$AAc?$AAl?$AAo?$AAs?$AAe?$AA?$AA@ 100cb2a0     LIBCMTD:fclose.obj
 0002:000292b0       ??_C@_1BM@JMKHIAHP@?$AA?$CI?$AAs?$AAt?$AAr?$AA?5?$AA?$CB?$AA?$DN?$AA?5?$AAN?$AAU?$AAL?$AAL?$AA?$CJ?$AA?$AA@ 100cb2b0     LIBCMTD:fclose.obj
 0002:000292cc       ??_C@_1BO@JINCABEC@?$AA_?$AAf?$AAc?$AAl?$AAo?$AAs?$AAe?$AA_?$AAn?$AAo?$AAl?$AAo?$AAc?$AAk?$AA?$AA@ 100cb2cc     LIBCMTD:fclose.obj
 0002:000292f0       ??_C@_1FC@KMCLOOLI@?$AAf?$AA?3?$AA?2?$AAd?$AAd?$AA?2?$AAv?$AAc?$AAt?$AAo?$AAo?$AAl?$AAs?$AA?2?$AAc?$AAr?$AAt?$AA?2?$AAc?$AAr?$AAt?$AAw?$AA3?$AA2?$AA?2?$AAs?$AAt?$AAd?$AAi?$AAo?$AA?2?$AAf@ 100cb2f0     LIBCMTD:feoferr.obj
 0002:00029344       ??_C@_19LPGIFIDB@?$AAf?$AAe?$AAo?$AAf?$AA?$AA@ 100cb344     LIBCMTD:feoferr.obj
 0002:00029350       ??_C@_1BO@CLGIAEOJ@?$AA?$CI?$AAf?$AAi?$AAl?$AAe?$AA?5?$AA?$CB?$AA?$DN?$AA?5?$AAN?$AAU?$AAL?$AAL?$AA?$CJ?$AA?$AA@ 100cb350     LIBCMTD:fopen.obj
 0002:00029370       ??_C@_1EO@HOHPPGLK@?$AAf?$AA?3?$AA?2?$AAd?$AAd?$AA?2?$AAv?$AAc?$AAt?$AAo?$AAo?$AAl?$AAs?$AA?2?$AAc?$AAr?$AAt?$AA?2?$AAc?$AAr?$AAt?$AAw?$AA3?$AA2?$AA?2?$AAs?$AAt?$AAd?$AAi?$AAo?$AA?2?$AAf@ 100cb370     LIBCMTD:fopen.obj
 0002:000293c0       ??_C@_1BA@HNEAFMNL@?$AA_?$AAf?$AAs?$AAo?$AAp?$AAe?$AAn?$AA?$AA@ 100cb3c0     LIBCMTD:fopen.obj
 0002:000293d0       ??_C@_1BO@MJMKAKCJ@?$AA?$CI?$AAm?$AAo?$AAd?$AAe?$AA?5?$AA?$CB?$AA?$DN?$AA?5?$AAN?$AAU?$AAL?$AAL?$AA?$CJ?$AA?$AA@ 100cb3d0     LIBCMTD:fopen.obj
 0002:000293f0       ??_C@_1CI@HBNALCBB@?$AA?$CI?$AA?$CK?$AAm?$AAo?$AAd?$AAe?$AA?5?$AA?$CB?$AA?$DN?$AA?5?$AA_?$AAT?$AA?$CI?$AA?8?$AA?2?$AA0?$AA?8?$AA?$CJ?$AA?$CJ?$AA?$AA@ 100cb3f0     LIBCMTD:fopen.obj
 0002:00029418       ??_C@_1CA@LLJLFCDN@?$AA?$CI?$AAp?$AAf?$AAi?$AAl?$AAe?$AA?5?$AA?$CB?$AA?$DN?$AA?5?$AAN?$AAU?$AAL?$AAL?$AA?$CJ?$AA?$AA@ 100cb418     LIBCMTD:fopen.obj
 0002:00029438       ??_C@_1BA@PBGKCCAP@?$AAf?$AAo?$AAp?$AAe?$AAn?$AA_?$AAs?$AA?$AA@ 100cb438     LIBCMTD:fopen.obj
 0002:00029448       ??_C@_1EO@KDKHJMND@?$AAf?$AA?3?$AA?2?$AAd?$AAd?$AA?2?$AAv?$AAc?$AAt?$AAo?$AAo?$AAl?$AAs?$AA?2?$AAc?$AAr?$AAt?$AA?2?$AAc?$AAr?$AAt?$AAw?$AA3?$AA2?$AA?2?$AAs?$AAt?$AAd?$AAi?$AAo?$AA?2?$AAf@ 100cb448     LIBCMTD:fread.obj
 0002:00029498       ??_C@_1BA@CMLCEIGG@?$AAf?$AAr?$AAe?$AAa?$AAd?$AA_?$AAs?$AA?$AA@ 100cb498     LIBCMTD:fread.obj
 0002:000294a8       ??_C@_1CC@CGFEEBMC@?$AA?$CI?$AAb?$AAu?$AAf?$AAf?$AAe?$AAr?$AA?5?$AA?$CB?$AA?$DN?$AA?5?$AAN?$AAU?$AAL?$AAL?$AA?$CJ?$AA?$AA@ 100cb4a8     LIBCMTD:fread.obj
 0002:000294cc       ??_C@_1CA@IDPOGFL@?$AA_?$AAf?$AAr?$AAe?$AAa?$AAd?$AA_?$AAn?$AAo?$AAl?$AAo?$AAc?$AAk?$AA_?$AAs?$AA?$AA@ 100cb4cc     LIBCMTD:fread.obj
 0002:000294f0       ??_C@_1EA@FAMECDND@?$AAn?$AAu?$AAm?$AA?5?$AA?$DM?$AA?$DN?$AA?5?$AA?$CI?$AAS?$AAI?$AAZ?$AAE?$AA_?$AAM?$AAA?$AAX?$AA?5?$AA?1?$AA?5?$AAe?$AAl?$AAe?$AAm?$AAe?$AAn?$AAt?$AAS?$AAi?$AAz?$AAe?$AA?$CJ?$AA?$AA@ 100cb4f0     LIBCMTD:fread.obj
 0002:00029530       ??_C@_1LG@DCNDJCHK@?$AA?$CI?$AA?$CC?$AAI?$AAn?$AAc?$AAo?$AAn?$AAs?$AAi?$AAs?$AAt?$AAe?$AAn?$AAt?$AA?5?$AAS?$AAt?$AAr?$AAe?$AAa?$AAm?$AA?5?$AAC?$AAo?$AAu?$AAn?$AAt?$AA?4?$AA?5?$AAF?$AAl?$AAu@ 100cb530     LIBCMTD:fread.obj
 0002:000295e8       ??_C@_1DA@DKEFLDMG@?$AA?$CI?$AA?$CC?$AAb?$AAu?$AAf?$AAf?$AAe?$AAr?$AA?5?$AAt?$AAo?$AAo?$AA?5?$AAs?$AAm?$AAa?$AAl?$AAl?$AA?$CC?$AA?0?$AA?5?$AA0?$AA?$CJ?$AA?$AA@ 100cb5e8     LIBCMTD:fread.obj
 0002:00029618       ??_C@_1EO@OOGDMPHD@?$AAf?$AA?3?$AA?2?$AAd?$AAd?$AA?2?$AAv?$AAc?$AAt?$AAo?$AAo?$AAl?$AAs?$AA?2?$AAc?$AAr?$AAt?$AA?2?$AAc?$AAr?$AAt?$AAw?$AA3?$AA2?$AA?2?$AAs?$AAt?$AAd?$AAi?$AAo?$AA?2?$AAf@ 100cb618     LIBCMTD:fseek.obj
 0002:00029668       ??_C@_1M@HCCOIONH@?$AAf?$AAs?$AAe?$AAe?$AAk?$AA?$AA@ 100cb668     LIBCMTD:fseek.obj
 0002:00029678       ??_C@_1IO@PMHBOLJK@?$AA?$CI?$AA?$CI?$AAw?$AAh?$AAe?$AAn?$AAc?$AAe?$AA?5?$AA?$DN?$AA?$DN?$AA?5?$AAS?$AAE?$AAE?$AAK?$AA_?$AAS?$AAE?$AAT?$AA?$CJ?$AA?5?$AA?$HM?$AA?$HM?$AA?5?$AA?$CI?$AAw?$AAh?$AAe?$AAn?$AAc?$AAe@ 100cb678     LIBCMTD:fseek.obj
 0002:00029708       ??_C@_1EO@HNHOEHGA@?$AAf?$AA?3?$AA?2?$AAd?$AAd?$AA?2?$AAv?$AAc?$AAt?$AAo?$AAo?$AAl?$AAs?$AA?2?$AAc?$AAr?$AAt?$AA?2?$AAc?$AAr?$AAt?$AAw?$AA3?$AA2?$AA?2?$AAs?$AAt?$AAd?$AAi?$AAo?$AA?2?$AAf@ 100cb708     LIBCMTD:ftell.obj
 0002:00029758       ??_C@_1M@CKCKPMNP@?$AAf?$AAt?$AAe?$AAl?$AAl?$AA?$AA@ 100cb758     LIBCMTD:ftell.obj
 0002:00029764       ??_C@_1BM@EPIDANEK@?$AA_?$AAf?$AAt?$AAe?$AAl?$AAl?$AA_?$AAn?$AAo?$AAl?$AAo?$AAc?$AAk?$AA?$AA@ 100cb764     LIBCMTD:ftell.obj
 0002:00029780       ??_C@_1CC@MGIEJOME@?$AA?$CI?$AAf?$AAo?$AAr?$AAm?$AAa?$AAt?$AA?5?$AA?$CB?$AA?$DN?$AA?5?$AAN?$AAU?$AAL?$AAL?$AA?$CJ?$AA?$AA@ 100cb780     LIBCMTD:sprintf.obj
 0002:000297a4       ??_C@_1CA@NJFECEIO@?$AA?$CI?$AA?5?$AAp?$AAt?$AAm?$AA?5?$AA?$CB?$AA?$DN?$AA?5?$AAN?$AAU?$AAL?$AAL?$AA?5?$AA?$CJ?$AA?$AA@ 100cb7a4     LIBCMTD:loctim64.obj
 0002:000297c8       ??_C@_1FC@HIKMAFJG@?$AAf?$AA?3?$AA?2?$AAd?$AAd?$AA?2?$AAv?$AAc?$AAt?$AAo?$AAo?$AAl?$AAs?$AA?2?$AAc?$AAr?$AAt?$AA?2?$AAc?$AAr?$AAt?$AAw?$AA3?$AA2?$AA?2?$AAt?$AAi?$AAm?$AAe?$AA?2?$AAl?$AAo@ 100cb7c8     LIBCMTD:loctim64.obj
 0002:0002981c       ??_C@_1BO@OIBEEOEM@?$AA_?$AAl?$AAo?$AAc?$AAa?$AAl?$AAt?$AAi?$AAm?$AAe?$AA6?$AA4?$AA_?$AAs?$AA?$AA@ 100cb81c     LIBCMTD:loctim64.obj
 0002:0002983c       ??_C@_1CE@EHHPAMNN@?$AA?$CI?$AA?5?$AAp?$AAt?$AAi?$AAm?$AAe?$AA?5?$AA?$CB?$AA?$DN?$AA?5?$AAN?$AAU?$AAL?$AAL?$AA?5?$AA?$CJ?$AA?$AA@ 100cb83c     LIBCMTD:loctim64.obj
 0002:00029860       ??_C@_1DC@MEHEMOPB@?$AA_?$AAg?$AAe?$AAt?$AA_?$AAd?$AAa?$AAy?$AAl?$AAi?$AAg?$AAh?$AAt?$AA?$CI?$AA?$CG?$AAd?$AAa?$AAy?$AAl?$AAi?$AAg?$AAh?$AAt?$AA?$CJ?$AA?$AA@ 100cb860     LIBCMTD:loctim64.obj
 0002:00029894       ??_C@_1CO@IMMOMMCB@?$AA_?$AAg?$AAe?$AAt?$AA_?$AAd?$AAs?$AAt?$AAb?$AAi?$AAa?$AAs?$AA?$CI?$AA?$CG?$AAd?$AAs?$AAt?$AAb?$AAi?$AAa?$AAs?$AA?$CJ?$AA?$AA@ 100cb894     LIBCMTD:loctim64.obj
 0002:000298c4       ??_C@_1DC@CMKCHHFC@?$AA_?$AAg?$AAe?$AAt?$AA_?$AAt?$AAi?$AAm?$AAe?$AAz?$AAo?$AAn?$AAe?$AA?$CI?$AA?$CG?$AAt?$AAi?$AAm?$AAe?$AAz?$AAo?$AAn?$AAe?$AA?$CJ?$AA?$AA@ 100cb8c4     LIBCMTD:loctim64.obj
 0002:000298f8       ??_C@_17LGKOMLJ@?$AA?4?$AA?4?$AA?4?$AA?$AA@ 100cb8f8     LIBCMTD:wassert.obj
 0002:00029900       ??_C@_13LBAGMAIH@?$AA?6?$AA?$AA@ 100cb900     LIBCMTD:wassert.obj
 0002:00029904       ??_C@_15IABLJNFO@?$AA?6?$AA?6?$AA?$AA@ 100cb904     LIBCMTD:wassert.obj
 0002:00029910       ??_C@_1EO@DPPHNOPL@?$AAf?$AA?3?$AA?2?$AAd?$AAd?$AA?2?$AAv?$AAc?$AAt?$AAo?$AAo?$AAl?$AAs?$AA?2?$AAc?$AAr?$AAt?$AA?2?$AAc?$AAr?$AAt?$AAw?$AA3?$AA2?$AA?2?$AAm?$AAi?$AAs?$AAc?$AA?2?$AAa?$AAs@ 100cb910     LIBCMTD:wassert.obj
 0002:00029960       ??_C@_1BC@LNOOMFNA@?$AA_?$AAw?$AAa?$AAs?$AAs?$AAe?$AAr?$AAt?$AA?$AA@ 100cb960     LIBCMTD:wassert.obj
 0002:00029978       ??_C@_1GM@PANFFKAD@?$AAw?$AAc?$AAs?$AAc?$AAp?$AAy?$AA_?$AAs?$AA?$CI?$AA?5?$AAa?$AAs?$AAs?$AAe?$AAr?$AAt?$AAb?$AAu?$AAf?$AA?0?$AA?5?$AA?$CI?$AA6?$AA4?$AA?5?$AA?$CK?$AA?5?$AA9?$AA?$CJ?$AA?0?$AA?5?$AAL@ 100cb978     LIBCMTD:wassert.obj
 0002:000299e4       ??_C@_1CE@OJBNHDMO@?$AAA?$AAs?$AAs?$AAe?$AAr?$AAt?$AAi?$AAo?$AAn?$AA?5?$AAf?$AAa?$AAi?$AAl?$AAe?$AAd?$AA?$CB?$AA?$AA@ 100cb9e4     LIBCMTD:wassert.obj
 0002:00029a08       ??_C@_1FI@OJONHFCN@?$AAw?$AAc?$AAs?$AAc?$AAa?$AAt?$AA_?$AAs?$AA?$CI?$AA?5?$AAa?$AAs?$AAs?$AAe?$AAr?$AAt?$AAb?$AAu?$AAf?$AA?0?$AA?5?$AA?$CI?$AA6?$AA4?$AA?5?$AA?$CK?$AA?5?$AA9?$AA?$CJ?$AA?0?$AA?5?$AAd@ 100cba08     LIBCMTD:wassert.obj
 0002:00029a60       ??_C@_1FM@JONFCKBO@?$AAw?$AAc?$AAs?$AAc?$AAa?$AAt?$AA_?$AAs?$AA?$CI?$AA?5?$AAa?$AAs?$AAs?$AAe?$AAr?$AAt?$AAb?$AAu?$AAf?$AA?0?$AA?5?$AA?$CI?$AA6?$AA4?$AA?5?$AA?$CK?$AA?5?$AA9?$AA?$CJ?$AA?0?$AA?5?$AAL@ 100cba60     LIBCMTD:wassert.obj
 0002:00029abc       ??_C@_1BE@PHKBBGE@?$AAP?$AAr?$AAo?$AAg?$AAr?$AAa?$AAm?$AA?3?$AA?5?$AA?$AA@ 100cbabc     LIBCMTD:wassert.obj
 0002:00029ad0       ??_C@_1HA@EPFCONEE@?$AAw?$AAc?$AAs?$AAc?$AAp?$AAy?$AA_?$AAs?$AA?$CI?$AA?5?$AAp?$AAr?$AAo?$AAg?$AAn?$AAa?$AAm?$AAe?$AA?0?$AA?5?$AA2?$AA6?$AA0?$AA?5?$AA?$CL?$AA?5?$AA1?$AA?0?$AA?5?$AAL?$AA?$CC?$AA?$DM@ 100cbad0     LIBCMTD:wassert.obj
 0002:00029b40       ??_C@_1CO@EAEJAADC@?$AA?$DM?$AAp?$AAr?$AAo?$AAg?$AAr?$AAa?$AAm?$AA?5?$AAn?$AAa?$AAm?$AAe?$AA?5?$AAu?$AAn?$AAk?$AAn?$AAo?$AAw?$AAn?$AA?$DO?$AA?$AA@ 100cbb40     LIBCMTD:wassert.obj
 0002:00029b70       ??_C@_1LK@LGFOFOMH@?$AAm?$AAe?$AAm?$AAc?$AAp?$AAy?$AA_?$AAs?$AA?$CI?$AAp?$AAc?$AAh?$AA?0?$AA?5?$AAs?$AAi?$AAz?$AAe?$AAo?$AAf?$AA?$CI?$AAT?$AAC?$AAH?$AAA?$AAR?$AA?$CJ?$AA?5?$AA?$CK?$AA?5?$AA?$CI?$AA?$CI@ 100cbb70     LIBCMTD:wassert.obj
 0002:00029c30       ??_C@_1EK@BFAHOLDO@?$AAw?$AAc?$AAs?$AAc?$AAa?$AAt?$AA_?$AAs?$AA?$CI?$AA?5?$AAa?$AAs?$AAs?$AAe?$AAr?$AAt?$AAb?$AAu?$AAf?$AA?0?$AA?5?$AA?$CI?$AA6?$AA4?$AA?5?$AA?$CK?$AA?5?$AA9?$AA?$CJ?$AA?0?$AA?5?$AAp@ 100cbc30     LIBCMTD:wassert.obj
 0002:00029c80       ??_C@_1FC@GNPGDADJ@?$AAw?$AAc?$AAs?$AAc?$AAa?$AAt?$AA_?$AAs?$AA?$CI?$AA?5?$AAa?$AAs?$AAs?$AAe?$AAr?$AAt?$AAb?$AAu?$AAf?$AA?0?$AA?5?$AA?$CI?$AA6?$AA4?$AA?5?$AA?$CK?$AA?5?$AA9?$AA?$CJ?$AA?0?$AA?5?$AAn@ 100cbc80     LIBCMTD:wassert.obj
 0002:00029cd8       ??_C@_1FG@NHACFNEK@?$AAw?$AAc?$AAs?$AAc?$AAa?$AAt?$AA_?$AAs?$AA?$CI?$AA?5?$AAa?$AAs?$AAs?$AAe?$AAr?$AAt?$AAb?$AAu?$AAf?$AA?0?$AA?5?$AA?$CI?$AA6?$AA4?$AA?5?$AA?$CK?$AA?5?$AA9?$AA?$CJ?$AA?0?$AA?5?$AAL@ 100cbcd8     LIBCMTD:wassert.obj
 0002:00029d30       ??_C@_1O@HEMHKNDC@?$AAF?$AAi?$AAl?$AAe?$AA?3?$AA?5?$AA?$AA@ 100cbd30     LIBCMTD:wassert.obj
 0002:00029d40       ??_C@_1GG@PKOIFPHI@?$AAw?$AAc?$AAs?$AAn?$AAc?$AAa?$AAt?$AA_?$AAs?$AA?$CI?$AA?5?$AAa?$AAs?$AAs?$AAe?$AAr?$AAt?$AAb?$AAu?$AAf?$AA?0?$AA?5?$AA?$CI?$AA6?$AA4?$AA?5?$AA?$CK?$AA?5?$AA9?$AA?$CJ?$AA?0?$AA?5@ 100cbd40     LIBCMTD:wassert.obj
 0002:00029da8       ??_C@_1FG@PLMFGJFG@?$AAw?$AAc?$AAs?$AAc?$AAa?$AAt?$AA_?$AAs?$AA?$CI?$AA?5?$AAa?$AAs?$AAs?$AAe?$AAr?$AAt?$AAb?$AAu?$AAf?$AA?0?$AA?5?$AA?$CI?$AA6?$AA4?$AA?5?$AA?$CK?$AA?5?$AA9?$AA?$CJ?$AA?0?$AA?5?$AAd@ 100cbda8     LIBCMTD:wassert.obj
 0002:00029e00       ??_C@_1FO@HPHMICDB@?$AAw?$AAc?$AAs?$AAc?$AAa?$AAt?$AA_?$AAs?$AA?$CI?$AA?5?$AAa?$AAs?$AAs?$AAe?$AAr?$AAt?$AAb?$AAu?$AAf?$AA?0?$AA?5?$AA?$CI?$AA6?$AA4?$AA?5?$AA?$CK?$AA?5?$AA9?$AA?$CJ?$AA?0?$AA?5?$AAp@ 100cbe00     LIBCMTD:wassert.obj
 0002:00029e60       ??_C@_1GO@KNIHEHNA@?$AAw?$AAc?$AAs?$AAn?$AAc?$AAa?$AAt?$AA_?$AAs?$AA?$CI?$AA?5?$AAa?$AAs?$AAs?$AAe?$AAr?$AAt?$AAb?$AAu?$AAf?$AA?0?$AA?5?$AA?$CI?$AA6?$AA4?$AA?5?$AA?$CK?$AA?5?$AA9?$AA?$CJ?$AA?0?$AA?5@ 100cbe60     LIBCMTD:wassert.obj
 0002:00029ed0       ??_C@_1HG@FHHFPPED@?$AAw?$AAc?$AAs?$AAn?$AAc?$AAa?$AAt?$AA_?$AAs?$AA?$CI?$AA?5?$AAa?$AAs?$AAs?$AAe?$AAr?$AAt?$AAb?$AAu?$AAf?$AA?0?$AA?5?$AA?$CI?$AA6?$AA4?$AA?5?$AA?$CK?$AA?5?$AA9?$AA?$CJ?$AA?0?$AA?5@ 100cbed0     LIBCMTD:wassert.obj
 0002:00029f48       ??_C@_1IC@JGCGJJHO@?$AAw?$AAc?$AAs?$AAc?$AAa?$AAt?$AA_?$AAs?$AA?$CI?$AA?5?$AAa?$AAs?$AAs?$AAe?$AAr?$AAt?$AAb?$AAu?$AAf?$AA?0?$AA?5?$AA?$CI?$AA6?$AA4?$AA?5?$AA?$CK?$AA?5?$AA9?$AA?$CJ?$AA?0?$AA?5?$AAp@ 100cbf48     LIBCMTD:wassert.obj
 0002:00029fd0       ??_C@_1FE@NDOBOCBD@?$AAw?$AAc?$AAs?$AAc?$AAa?$AAt?$AA_?$AAs?$AA?$CI?$AA?5?$AAa?$AAs?$AAs?$AAe?$AAr?$AAt?$AAb?$AAu?$AAf?$AA?0?$AA?5?$AA?$CI?$AA6?$AA4?$AA?5?$AA?$CK?$AA?5?$AA9?$AA?$CJ?$AA?0?$AA?5?$AAf@ 100cbfd0     LIBCMTD:wassert.obj
 0002:0002a028       ??_C@_1FG@HLHNIBH@?$AAw?$AAc?$AAs?$AAc?$AAa?$AAt?$AA_?$AAs?$AA?$CI?$AA?5?$AAa?$AAs?$AAs?$AAe?$AAr?$AAt?$AAb?$AAu?$AAf?$AA?0?$AA?5?$AA?$CI?$AA6?$AA4?$AA?5?$AA?$CK?$AA?5?$AA9?$AA?$CJ?$AA?0?$AA?5?$AAL@ 100cc028     LIBCMTD:wassert.obj
 0002:0002a080       ??_C@_1O@KCAFKHJE@?$AAL?$AAi?$AAn?$AAe?$AA?3?$AA?5?$AA?$AA@ 100cc080     LIBCMTD:wassert.obj
 0002:0002a090       ??_C@_1KG@NJJPHNOK@?$AA_?$AAi?$AAt?$AAo?$AAw?$AA_?$AAs?$AA?$CI?$AA?5?$AAl?$AAi?$AAn?$AAe?$AAn?$AAo?$AA?0?$AA?5?$AAa?$AAs?$AAs?$AAe?$AAr?$AAt?$AAb?$AAu?$AAf?$AA?5?$AA?$CL?$AA?5?$AAw?$AAc?$AAs@ 100cc090     LIBCMTD:wassert.obj
 0002:0002a138       ??_C@_1GC@CFDADAM@?$AAw?$AAc?$AAs?$AAc?$AAa?$AAt?$AA_?$AAs?$AA?$CI?$AA?5?$AAa?$AAs?$AAs?$AAe?$AAr?$AAt?$AAb?$AAu?$AAf?$AA?0?$AA?5?$AA?$CI?$AA6?$AA4?$AA?5?$AA?$CK?$AA?5?$AA9?$AA?$CJ?$AA?0?$AA?5?$AAL@ 100cc138     LIBCMTD:wassert.obj
 0002:0002a19c       ??_C@_1BK@PEDCIPMA@?$AAE?$AAx?$AAp?$AAr?$AAe?$AAs?$AAs?$AAi?$AAo?$AAn?$AA?3?$AA?5?$AA?$AA@ 100cc19c     LIBCMTD:wassert.obj
 0002:0002a1b8       ??_C@_1CHM@HIHGOMKE@?$AAw?$AAc?$AAs?$AAn?$AAc?$AAa?$AAt?$AA_?$AAs?$AA?$CI?$AA?5?$AAa?$AAs?$AAs?$AAe?$AAr?$AAt?$AAb?$AAu?$AAf?$AA?0?$AA?5?$AA?$CI?$AA6?$AA4?$AA?5?$AA?$CK?$AA?5?$AA9?$AA?$CJ?$AA?0?$AA?5@ 100cc1b8     LIBCMTD:wassert.obj
 0002:0002a438       ??_C@_1EM@DAMJKKKC@?$AAw?$AAc?$AAs?$AAc?$AAa?$AAt?$AA_?$AAs?$AA?$CI?$AA?5?$AAa?$AAs?$AAs?$AAe?$AAr?$AAt?$AAb?$AAu?$AAf?$AA?0?$AA?5?$AA?$CI?$AA6?$AA4?$AA?5?$AA?$CK?$AA?5?$AA9?$AA?$CJ?$AA?0?$AA?5?$AAe@ 100cc438     LIBCMTD:wassert.obj
 0002:0002a488       ??_C@_1BCO@GAGHDLIF@?$AAw?$AAc?$AAs?$AAc?$AAa?$AAt?$AA_?$AAs?$AA?$CI?$AAa?$AAs?$AAs?$AAe?$AAr?$AAt?$AAb?$AAu?$AAf?$AA?0?$AA?5?$AA?$CI?$AA6?$AA4?$AA?5?$AA?$CK?$AA?5?$AA9?$AA?$CJ?$AA?0?$AA?5?$AAL?$AA?$CC@ 100cc488     LIBCMTD:wassert.obj
 0002:0002a5b8       ??_C@_1OA@EGMLFBHJ@?$AAF?$AAo?$AAr?$AA?5?$AAi?$AAn?$AAf?$AAo?$AAr?$AAm?$AAa?$AAt?$AAi?$AAo?$AAn?$AA?5?$AAo?$AAn?$AA?5?$AAh?$AAo?$AAw?$AA?5?$AAy?$AAo?$AAu?$AAr?$AA?5?$AAp?$AAr?$AAo?$AAg@ 100cc5b8     LIBCMTD:wassert.obj
 0002:0002a698       ??_C@_1FG@IFIHHMNM@?$AAw?$AAc?$AAs?$AAc?$AAa?$AAt?$AA_?$AAs?$AA?$CI?$AAa?$AAs?$AAs?$AAe?$AAr?$AAt?$AAb?$AAu?$AAf?$AA?0?$AA?5?$AA?$CI?$AA6?$AA4?$AA?5?$AA?$CK?$AA?5?$AA9?$AA?$CJ?$AA?0?$AA?5?$AAd?$AAb@ 100cc698     LIBCMTD:wassert.obj
 0002:0002a6f0       ??_C@_1LO@CHAFGADE@?$AAw?$AAc?$AAs?$AAc?$AAa?$AAt?$AA_?$AAs?$AA?$CI?$AAa?$AAs?$AAs?$AAe?$AAr?$AAt?$AAb?$AAu?$AAf?$AA?0?$AA?5?$AA?$CI?$AA6?$AA4?$AA?5?$AA?$CK?$AA?5?$AA9?$AA?$CJ?$AA?0?$AA?5?$AAL?$AA?$CC@ 100cc6f0     LIBCMTD:wassert.obj
 0002:0002a7b0       ??_C@_1HK@POCJMFGK@?$AA?$CI?$AAP?$AAr?$AAe?$AAs?$AAs?$AA?5?$AAR?$AAe?$AAt?$AAr?$AAy?$AA?5?$AAt?$AAo?$AA?5?$AAd?$AAe?$AAb?$AAu?$AAg?$AA?5?$AAt?$AAh?$AAe?$AA?5?$AAa?$AAp?$AAp?$AAl?$AAi?$AAc@ 100cc7b0     LIBCMTD:wassert.obj
 0002:0002a830       ??_C@_1EK@MBDPDCGA@?$AAM?$AAi?$AAc?$AAr?$AAo?$AAs?$AAo?$AAf?$AAt?$AA?5?$AAV?$AAi?$AAs?$AAu?$AAa?$AAl?$AA?5?$AAC?$AA?$CL?$AA?$CL?$AA?5?$AAR?$AAu?$AAn?$AAt?$AAi?$AAm?$AAe?$AA?5?$AAL?$AAi?$AAb@ 100cc830     LIBCMTD:wassert.obj
 0002:00033ae0       __FPinit                   100d5ae0     LIBCMTD:fpinit.obj
 0002:00033ae4       __pRawDllMain              100d5ae4     LIBCMTD:dllcrt0.obj
 0002:00033ae4       __pDefaultRawDllMain       100d5ae4     LIBCMTD:dllcrt0.obj
 0002:00033ae8       ??_C@_0CL@OOIKPIHN@f?3?2dd?2vctools?2crt?2crtw32?2startup@ 100d5ae8     LIBCMTD:dllcrt0.obj
 0002:00033b14       ??_C@_1BK@MGMFAEKH@?$AAk?$AAe?$AAr?$AAn?$AAe?$AAl?$AA3?$AA2?$AA?4?$AAd?$AAl?$AAl?$AA?$AA@ 100d5b14     LIBCMTD:winapisupp.obj
 0002:00033b30       ??_C@_08KNHFBNJ@FlsAlloc?$AA@ 100d5b30     LIBCMTD:winapisupp.obj
 0002:00033b3c       ??_C@_07PEJMOBNF@FlsFree?$AA@ 100d5b3c     LIBCMTD:winapisupp.obj
 0002:00033b44       ??_C@_0M@GDNOONDI@FlsGetValue?$AA@ 100d5b44     LIBCMTD:winapisupp.obj
 0002:00033b50       ??_C@_0M@JCPCPOEF@FlsSetValue?$AA@ 100d5b50     LIBCMTD:winapisupp.obj
 0002:00033b5c       ??_C@_0BM@HCFOFFN@InitializeCriticalSectionEx?$AA@ 100d5b5c     LIBCMTD:winapisupp.obj
 0002:00033b78       ??_C@_0P@DLHPPCNH@CreateEventExW?$AA@ 100d5b78     LIBCMTD:winapisupp.obj
 0002:00033b88       ??_C@_0BD@KIEEOEEH@CreateSemaphoreExW?$AA@ 100d5b88     LIBCMTD:winapisupp.obj
 0002:00033b9c       ??_C@_0BI@BKLFFAPO@SetThreadStackGuarantee?$AA@ 100d5b9c     LIBCMTD:winapisupp.obj
 0002:00033bb4       ??_C@_0BG@OGFAJCKC@CreateThreadpoolTimer?$AA@ 100d5bb4     LIBCMTD:winapisupp.obj
 0002:00033bcc       ??_C@_0BD@LPLEMMDI@SetThreadpoolTimer?$AA@ 100d5bcc     LIBCMTD:winapisupp.obj
 0002:00033be0       ??_C@_0CA@FMNJENH@WaitForThreadpoolTimerCallbacks?$AA@ 100d5be0     LIBCMTD:winapisupp.obj
 0002:00033c00       ??_C@_0BF@DCFCCNOC@CloseThreadpoolTimer?$AA@ 100d5c00     LIBCMTD:winapisupp.obj
 0002:00033c18       ??_C@_0BF@FLABGKKM@CreateThreadpoolWait?$AA@ 100d5c18     LIBCMTD:winapisupp.obj
 0002:00033c30       ??_C@_0BC@MGCOHNA@SetThreadpoolWait?$AA@ 100d5c30     LIBCMTD:winapisupp.obj
 0002:00033c44       ??_C@_0BE@OCIOMIMP@CloseThreadpoolWait?$AA@ 100d5c44     LIBCMTD:winapisupp.obj
 0002:00033c58       ??_C@_0BJ@LKGHFHBO@FlushProcessWriteBuffers?$AA@ 100d5c58     LIBCMTD:winapisupp.obj
 0002:00033c74       ??_C@_0BP@KALKKPMO@FreeLibraryWhenCallbackReturns?$AA@ 100d5c74     LIBCMTD:winapisupp.obj
 0002:00033c94       ??_C@_0BK@DFNBACLA@GetCurrentProcessorNumber?$AA@ 100d5c94     LIBCMTD:winapisupp.obj
 0002:00033cb0       ??_C@_0BP@KHGALBC@GetLogicalProcessorInformation?$AA@ 100d5cb0     LIBCMTD:winapisupp.obj
 0002:00033cd0       ??_C@_0BE@FKKLLFLM@CreateSymbolicLinkW?$AA@ 100d5cd0     LIBCMTD:winapisupp.obj
 0002:00033ce4       ??_C@_0BJ@OHNKDLIJ@SetDefaultDllDirectories?$AA@ 100d5ce4     LIBCMTD:winapisupp.obj
 0002:00033d00       ??_C@_0BE@LJANKFHF@EnumSystemLocalesEx?$AA@ 100d5d00     LIBCMTD:winapisupp.obj
 0002:00033d14       ??_C@_0BA@IHGNDAEB@CompareStringEx?$AA@ 100d5d14     LIBCMTD:winapisupp.obj
 0002:00033d24       ??_C@_0BA@EPCJIIPD@GetDateFormatEx?$AA@ 100d5d24     LIBCMTD:winapisupp.obj
 0002:00033d34       ??_C@_0BA@ONOKGCMP@GetLocaleInfoEx?$AA@ 100d5d34     LIBCMTD:winapisupp.obj
 0002:00033d44       ??_C@_0BA@CIJJKCJJ@GetTimeFormatEx?$AA@ 100d5d44     LIBCMTD:winapisupp.obj
 0002:00033d54       ??_C@_0BJ@PBCCBIPI@GetUserDefaultLocaleName?$AA@ 100d5d54     LIBCMTD:winapisupp.obj
 0002:00033d70       ??_C@_0BC@CELBKLLA@IsValidLocaleName?$AA@ 100d5d70     LIBCMTD:winapisupp.obj
 0002:00033d84       ??_C@_0O@KKBNKAPF@LCMapStringEx?$AA@ 100d5d84     LIBCMTD:winapisupp.obj
 0002:00033d94       ??_C@_0BE@JOGNEJCI@GetCurrentPackageId?$AA@ 100d5d94     LIBCMTD:winapisupp.obj
 0002:00033da8       ??_C@_0P@CDHHOHKP@GetTickCount64?$AA@ 100d5da8     LIBCMTD:winapisupp.obj
 0002:00033db8       ??_C@_0BO@KPCLFDJJ@GetFileInformationByHandleExW?$AA@ 100d5db8     LIBCMTD:winapisupp.obj
 0002:00033dd8       ??_C@_0BM@MHIDLABK@SetFileInformationByHandleW?$AA@ 100d5dd8     LIBCMTD:winapisupp.obj
 0002:00033e00       ??_C@_1BA@GLMCNLEM@?$AAW?$AAa?$AAr?$AAn?$AAi?$AAn?$AAg?$AA?$AA@ 100d5e00     LIBCMTD:dbgrptw.obj
 0002:00033e10       ??_C@_1M@ILHOPKA@?$AAE?$AAr?$AAr?$AAo?$AAr?$AA?$AA@ 100d5e10     LIBCMTD:dbgrptw.obj
 0002:00033e1c       ??_C@_1CC@CGHMNGDG@?$AAA?$AAs?$AAs?$AAe?$AAr?$AAt?$AAi?$AAo?$AAn?$AA?5?$AAF?$AAa?$AAi?$AAl?$AAe?$AAd?$AA?$AA@ 100d5e1c     LIBCMTD:dbgrptw.obj
 0002:00033e40       ??_C@_1EO@JACJHHCK@?$AAf?$AA?3?$AA?2?$AAd?$AAd?$AA?2?$AAv?$AAc?$AAt?$AAo?$AAo?$AAl?$AAs?$AA?2?$AAc?$AAr?$AAt?$AA?2?$AAc?$AAr?$AAt?$AAw?$AA3?$AA2?$AA?2?$AAm?$AAi?$AAs?$AAc?$AA?2?$AAd?$AAb@ 100d5e40     LIBCMTD:dbgrptw.obj
 0002:00033e90       ??_C@_1CI@PGJIFDEK@?$AA_?$AA_?$AAc?$AAr?$AAt?$AAM?$AAe?$AAs?$AAs?$AAa?$AAg?$AAe?$AAW?$AAi?$AAn?$AAd?$AAo?$AAw?$AAW?$AA?$AA@ 100d5e90     LIBCMTD:dbgrptw.obj
 0002:00033eb8       ??_C@_1GI@DEDNNLCI@?$AAw?$AAc?$AAs?$AAc?$AAp?$AAy?$AA_?$AAs?$AA?$CI?$AAs?$AAz?$AAE?$AAx?$AAe?$AAN?$AAa?$AAm?$AAe?$AA?0?$AA?5?$AA2?$AA6?$AA0?$AA?0?$AA?5?$AAL?$AA?$CC?$AA?$DM?$AAp?$AAr?$AAo?$AAg@ 100d5eb8     LIBCMTD:dbgrptw.obj
 0002:00033f20       ??_C@_1NO@LECLLHOL@?$AAm?$AAe?$AAm?$AAc?$AAp?$AAy?$AA_?$AAs?$AA?$CI?$AAs?$AAz?$AAS?$AAh?$AAo?$AAr?$AAt?$AAP?$AAr?$AAo?$AAg?$AAN?$AAa?$AAm?$AAe?$AA?0?$AA?5?$AAs?$AAi?$AAz?$AAe?$AAo?$AAf@ 100d5f20     LIBCMTD:dbgrptw.obj
 0002:00034000       ??_C@_1OG@PMPPFHAF@?$AA?6?$AA?6?$AAF?$AAo?$AAr?$AA?5?$AAi?$AAn?$AAf?$AAo?$AAr?$AAm?$AAa?$AAt?$AAi?$AAo?$AAn?$AA?5?$AAo?$AAn?$AA?5?$AAh?$AAo?$AAw?$AA?5?$AAy?$AAo?$AAu?$AAr?$AA?5?$AAp?$AAr@ 100d6000     LIBCMTD:dbgrptw.obj
 0002:000340e8       ??_C@_11LOCGONAA@?$AA?$AA@ 100d60e8     LIBCMTD:dbgrptw.obj
 0002:000340ec       ??_C@_1BA@GLLGCPCK@?$AA?6?$AAL?$AAi?$AAn?$AAe?$AA?3?$AA?5?$AA?$AA@ 100d60ec     LIBCMTD:dbgrptw.obj
 0002:000340fc       ??_C@_1BA@LNHECFIM@?$AA?6?$AAF?$AAi?$AAl?$AAe?$AA?3?$AA?5?$AA?$AA@ 100d60fc     LIBCMTD:dbgrptw.obj
 0002:0003410c       ??_C@_1BE@CGCJKGHI@?$AA?6?$AAM?$AAo?$AAd?$AAu?$AAl?$AAe?$AA?3?$AA?5?$AA?$AA@ 100d610c     LIBCMTD:dbgrptw.obj
 0002:00034120       ??_C@_1KM@HNMIBKJH@?$AAD?$AAe?$AAb?$AAu?$AAg?$AA?5?$AA?$CF?$AAs?$AA?$CB?$AA?6?$AA?6?$AAP?$AAr?$AAo?$AAg?$AAr?$AAa?$AAm?$AA?3?$AA?5?$AA?$CF?$AAs?$AA?$CF?$AAs?$AA?$CF?$AAs?$AA?$CF?$AAs?$AA?$CF?$AAs?$AA?$CF?$AAs@ 100d6120     LIBCMTD:dbgrptw.obj
 0002:000341cc       ??_C@_1BI@KALLJECN@?$AA?$CI?$AA?$CK?$AA_?$AAe?$AAr?$AAr?$AAn?$AAo?$AA?$CI?$AA?$CJ?$AA?$CJ?$AA?$AA@ 100d61cc     LIBCMTD:dbgrptw.obj
 0002:000341e8       ??_C@_1JI@EACPGHID@?$AAw?$AAc?$AAs?$AAc?$AAp?$AAy?$AA_?$AAs?$AA?$CI?$AAs?$AAz?$AAO?$AAu?$AAt?$AAM?$AAe?$AAs?$AAs?$AAa?$AAg?$AAe?$AA?0?$AA?5?$AA4?$AA0?$AA9?$AA6?$AA?0?$AA?5?$AAL?$AA?$CC?$AA_@ 100d61e8     LIBCMTD:dbgrptw.obj
 0002:00034280       ??_C@_1FG@BBOLDHGF@?$AA_?$AAC?$AAr?$AAt?$AAD?$AAb?$AAg?$AAR?$AAe?$AAp?$AAo?$AAr?$AAt?$AA?3?$AA?5?$AAS?$AAt?$AAr?$AAi?$AAn?$AAg?$AA?5?$AAt?$AAo?$AAo?$AA?5?$AAl?$AAo?$AAn?$AAg?$AA?5?$AAo@ 100d6280     LIBCMTD:dbgrptw.obj
 0002:000342ec       ??_C@_04HJMOFLDF@Free?$AA@ 100d62ec     LIBCMTD:dbgheap.obj
 0002:000342f4       ??_C@_06EFAGIKOH@Normal?$AA@ 100d62f4     LIBCMTD:dbgheap.obj
 0002:000342fc       ??_C@_03OGPFLFLO@CRT?$AA@  100d62fc     LIBCMTD:dbgheap.obj
 0002:00034300       ??_C@_06KMEJCCGM@Ignore?$AA@ 100d6300     LIBCMTD:dbgheap.obj
 0002:00034308       ??_C@_06PJIGMIJB@Client?$AA@ 100d6308     LIBCMTD:dbgheap.obj
 0002:00034310       ??_C@_1CE@LJFEPPMP@?$AA_?$AAC?$AAr?$AAt?$AAC?$AAh?$AAe?$AAc?$AAk?$AAM?$AAe?$AAm?$AAo?$AAr?$AAy?$AA?$CI?$AA?$CJ?$AA?$AA@ 100d6310     LIBCMTD:dbgheap.obj
 0002:00034338       ??_C@_1FA@JKEKCOIC@?$AAf?$AA?3?$AA?2?$AAd?$AAd?$AA?2?$AAv?$AAc?$AAt?$AAo?$AAo?$AAl?$AAs?$AA?2?$AAc?$AAr?$AAt?$AA?2?$AAc?$AAr?$AAt?$AAw?$AA3?$AA2?$AA?2?$AAm?$AAi?$AAs?$AAc?$AA?2?$AAd?$AAb@ 100d6338     LIBCMTD:dbgheap.obj
 0002:00034388       ??_C@_0DF@BBEGIFEK@Client?5hook?5allocation?5failure?5a@ 100d6388     LIBCMTD:dbgheap.obj
 0002:000343c0       ??_C@_0CB@CCLOLAHO@Client?5hook?5allocation?5failure?4?6@ 100d63c0     LIBCMTD:dbgheap.obj
 0002:000343e4       ??_C@_02DKCKIIND@?$CFs?$AA@ 100d63e4     LIBCMTD:dbgheap.obj
 0002:000343e8       ??_C@_0CF@BICKFLAF@Invalid?5allocation?5size?3?5?$CFIu?5byt@ 100d63e8     LIBCMTD:dbgheap.obj
 0002:00034410       ??_C@_0DC@JEMAGEKG@Error?3?5memory?5allocation?3?5bad?5me@ 100d6410     LIBCMTD:dbgheap.obj
 0002:00034444       ??_C@_0DI@KKJPDPGM@Client?5hook?5re?9allocation?5failur@ 100d6444     LIBCMTD:dbgheap.obj
 0002:0003447c       ??_C@_0CE@DOFMDOL@Client?5hook?5re?9allocation?5failur@ 100d647c     LIBCMTD:dbgheap.obj
 0002:000344a0       ??_C@_0ED@GPCPBAGP@Invalid?5allocation?5size?3?5?$CFIu?5byt@ 100d64a0     LIBCMTD:dbgheap.obj
 0002:000344e8       ??_C@_0FA@EFEIGJKG@Error?3?5memory?5allocation?3?5bad?5me@ 100d64e8     LIBCMTD:dbgheap.obj
 0002:00034538       ??_C@_0EM@LGFLMAGJ@The?5Block?5at?50x?$CFp?5was?5allocated?5@ 100d6538     LIBCMTD:dbgheap.obj
 0002:00034588       ??_C@_1EE@GFOPCECE@?$AA_?$AAC?$AAr?$AAt?$AAI?$AAs?$AAV?$AAa?$AAl?$AAi?$AAd?$AAH?$AAe?$AAa?$AAp?$AAP?$AAo?$AAi?$AAn?$AAt?$AAe?$AAr?$AA?$CI?$AAp?$AAU?$AAs?$AAe?$AAr?$AAD?$AAa?$AAt?$AAa@ 100d6588     LIBCMTD:dbgheap.obj
 0002:000345d0       ??_C@_1IK@DCPKDGNH@?$AAp?$AAO?$AAl?$AAd?$AAB?$AAl?$AAo?$AAc?$AAk?$AA?9?$AA?$DO?$AAn?$AAL?$AAi?$AAn?$AAe?$AA?5?$AA?$DN?$AA?$DN?$AA?5?$AAI?$AAG?$AAN?$AAO?$AAR?$AAE?$AA_?$AAL?$AAI?$AAN?$AAE?$AA?5@ 100d65d0     LIBCMTD:dbgheap.obj
 0002:0003465c       ??_C@_0DA@HFBKENN@Error?3?5possible?5heap?5corruption?5@ 100d665c     LIBCMTD:dbgheap.obj
 0002:00034690       ??_C@_1GE@PCKLOLAO@?$AAf?$AAR?$AAe?$AAa?$AAl?$AAl?$AAo?$AAc?$AA?5?$AA?$HM?$AA?$HM?$AA?5?$AA?$CI?$AA?$CB?$AAf?$AAR?$AAe?$AAa?$AAl?$AAl?$AAo?$AAc?$AA?5?$AA?$CG?$AA?$CG?$AA?5?$AAp?$AAN?$AAe?$AAw?$AAB?$AAl@ 100d6690     LIBCMTD:dbgheap.obj
 0002:000346f4       ??_C@_1DC@GEFKNOOL@?$AA_?$AAp?$AAL?$AAa?$AAs?$AAt?$AAB?$AAl?$AAo?$AAc?$AAk?$AA?5?$AA?$DN?$AA?$DN?$AA?5?$AAp?$AAO?$AAl?$AAd?$AAB?$AAl?$AAo?$AAc?$AAk?$AA?$AA@ 100d66f4     LIBCMTD:dbgheap.obj
 0002:00034728       ??_C@_1DE@KOOKLFBB@?$AA_?$AAp?$AAF?$AAi?$AAr?$AAs?$AAt?$AAB?$AAl?$AAo?$AAc?$AAk?$AA?5?$AA?$DN?$AA?$DN?$AA?5?$AAp?$AAO?$AAl?$AAd?$AAB?$AAl?$AAo?$AAc?$AAk?$AA?$AA@ 100d6728     LIBCMTD:dbgheap.obj
 0002:0003475c       ??_C@_1CE@CJACEFBA@?$AAp?$AAU?$AAs?$AAe?$AAr?$AAD?$AAa?$AAt?$AAa?$AA?5?$AA?$CB?$AA?$DN?$AA?5?$AAN?$AAU?$AAL?$AAL?$AA?$AA@ 100d675c     LIBCMTD:dbgheap.obj
 0002:00034780       ??_C@_0EJ@HEIBCIMJ@The?5Block?5at?50x?$CFp?5was?5allocated?5@ 100d6780     LIBCMTD:dbgheap.obj
 0002:000347cc       ??_C@_0BL@KEIPLFAC@Client?5hook?5free?5failure?4?6?$AA@ 100d67cc     LIBCMTD:dbgheap.obj
 0002:000347e8       ??_C@_1EO@LHDAJOCM@?$AA_?$AAB?$AAL?$AAO?$AAC?$AAK?$AA_?$AAT?$AAY?$AAP?$AAE?$AA_?$AAI?$AAS?$AA_?$AAV?$AAA?$AAL?$AAI?$AAD?$AA?$CI?$AAp?$AAH?$AAe?$AAa?$AAd?$AA?9?$AA?$DO?$AAn?$AAB?$AAl?$AAo@ 100d67e8     LIBCMTD:dbgheap.obj
 0002:00034838       ??_C@_0KI@JGFOHMEB@HEAP?5CORRUPTION?5DETECTED?3?5before@ 100d6838     LIBCMTD:dbgheap.obj
 0002:000348e0       ??_C@_0IK@PJCGLBOB@HEAP?5CORRUPTION?5DETECTED?3?5before@ 100d68e0     LIBCMTD:dbgheap.obj
 0002:00034970       ??_C@_0KE@MBMNHHHN@HEAP?5CORRUPTION?5DETECTED?3?5after?5@ 100d6970     LIBCMTD:dbgheap.obj
 0002:00034a18       ??_C@_0IG@LEMBDCJK@HEAP?5CORRUPTION?5DETECTED?3?5after?5@ 100d6a18     LIBCMTD:dbgheap.obj
 0002:00034aa0       ??_C@_1HK@HPCBMDFG@?$AAp?$AAH?$AAe?$AAa?$AAd?$AA?9?$AA?$DO?$AAn?$AAL?$AAi?$AAn?$AAe?$AA?5?$AA?$DN?$AA?$DN?$AA?5?$AAI?$AAG?$AAN?$AAO?$AAR?$AAE?$AA_?$AAL?$AAI?$AAN?$AAE?$AA?5?$AA?$CG?$AA?$CG?$AA?5?$AAp@ 100d6aa0     LIBCMTD:dbgheap.obj
 0002:00034b1c       ??_C@_1DM@ODCJIDCP@?$AAp?$AAH?$AAe?$AAa?$AAd?$AA?9?$AA?$DO?$AAn?$AAB?$AAl?$AAo?$AAc?$AAk?$AAU?$AAs?$AAe?$AA?5?$AA?$DN?$AA?$DN?$AA?5?$AAn?$AAB?$AAl?$AAo?$AAc?$AAk?$AAU?$AAs?$AAe?$AA?$AA@ 100d6b1c     LIBCMTD:dbgheap.obj
 0002:00034b58       ??_C@_1CK@DMAGEMBG@?$AA_?$AAp?$AAL?$AAa?$AAs?$AAt?$AAB?$AAl?$AAo?$AAc?$AAk?$AA?5?$AA?$DN?$AA?$DN?$AA?5?$AAp?$AAH?$AAe?$AAa?$AAd?$AA?$AA@ 100d6b58     LIBCMTD:dbgheap.obj
 0002:00034b84       ??_C@_1CM@MMAADDMD@?$AA_?$AAp?$AAF?$AAi?$AAr?$AAs?$AAt?$AAB?$AAl?$AAo?$AAc?$AAk?$AA?5?$AA?$DN?$AA?$DN?$AA?5?$AAp?$AAH?$AAe?$AAa?$AAd?$AA?$AA@ 100d6b84     LIBCMTD:dbgheap.obj
 0002:00034bb0       ??_C@_1BG@MBKOGDLD@?$AA_?$AAm?$AAs?$AAi?$AAz?$AAe?$AA_?$AAd?$AAb?$AAg?$AA?$AA@ 100d6bb0     LIBCMTD:dbgheap.obj
 0002:00034bc8       ??_C@_0CE@MKKHMBMK@_heapchk?5fails?5with?5_HEAPBADBEGI@ 100d6bc8     LIBCMTD:dbgheap.obj
 0002:00034bec       ??_C@_0CD@CPKEAPBD@_heapchk?5fails?5with?5_HEAPBADNODE@ 100d6bec     LIBCMTD:dbgheap.obj
 0002:00034c10       ??_C@_0CC@MJGLGBDG@_heapchk?5fails?5with?5_HEAPBADEND?4@ 100d6c10     LIBCMTD:dbgheap.obj
 0002:00034c34       ??_C@_0CC@MFFCHFHO@_heapchk?5fails?5with?5_HEAPBADPTR?4@ 100d6c34     LIBCMTD:dbgheap.obj
 0002:00034c58       ??_C@_0CL@HNNNMKMJ@_heapchk?5fails?5with?5unknown?5retu@ 100d6c58     LIBCMTD:dbgheap.obj
 0002:00034c84       ??_C@_07OHKEFPKJ@DAMAGED?$AA@ 100d6c84     LIBCMTD:dbgheap.obj
 0002:00034c90       ??_C@_0KA@IHNJJKPL@HEAP?5CORRUPTION?5DETECTED?3?5on?5top@ 100d6c90     LIBCMTD:dbgheap.obj
 0002:00034d30       ??_C@_0IC@BBJIOOJH@HEAP?5CORRUPTION?5DETECTED?3?5on?5top@ 100d6d30     LIBCMTD:dbgheap.obj
 0002:00034db8       ??_C@_0EG@DGJMPDBH@?$CFhs?5located?5at?50x?$CFp?5is?5?$CFIu?5bytes@ 100d6db8     LIBCMTD:dbgheap.obj
 0002:00034e00       ??_C@_0CI@JMLBEDHJ@?$CFhs?5located?5at?50x?$CFp?5is?5?$CFIu?5bytes@ 100d6e00     LIBCMTD:dbgheap.obj
 0002:00034e28       ??_C@_1BHO@NNANJNF@?$AA?$CI?$AAf?$AAN?$AAe?$AAw?$AAB?$AAi?$AAt?$AAs?$AA?$DN?$AA?$DN?$AA_?$AAC?$AAR?$AAT?$AAD?$AAB?$AAG?$AA_?$AAR?$AAE?$AAP?$AAO?$AAR?$AAT?$AA_?$AAF?$AAL?$AAA?$AAG?$AA?$CJ?$AA?5@ 100d6e28     LIBCMTD:dbgheap.obj
 0002:00034fa8       ??_C@_1BO@GJFDNMNF@?$AA_?$AAC?$AAr?$AAt?$AAS?$AAe?$AAt?$AAD?$AAb?$AAg?$AAF?$AAl?$AAa?$AAg?$AA?$AA@ 100d6fa8     LIBCMTD:dbgheap.obj
 0002:00034fc8       ??_C@_1BM@MIMANDHC@?$AAs?$AAt?$AAa?$AAt?$AAe?$AA?5?$AA?$CB?$AA?$DN?$AA?5?$AAN?$AAU?$AAL?$AAL?$AA?$AA@ 100d6fc8     LIBCMTD:dbgheap.obj
 0002:00034fe4       ??_C@_1CE@NJJKELF@?$AA_?$AAC?$AAr?$AAt?$AAM?$AAe?$AAm?$AAC?$AAh?$AAe?$AAc?$AAk?$AAp?$AAo?$AAi?$AAn?$AAt?$AA?$AA@ 100d6fe4     LIBCMTD:dbgheap.obj
 0002:00035008       ??_C@_0DP@LEFMFBOD@Bad?5memory?5block?5found?5at?50x?$CFp?4?6@ 100d7008     LIBCMTD:dbgheap.obj
 0002:00035048       ??_C@_0CB@EAAIGELO@Bad?5memory?5block?5found?5at?50x?$CFp?4?6@ 100d7048     LIBCMTD:dbgheap.obj
 0002:0003506c       ??_C@_05MKKEDADM@?$CF?42X?5?$AA@ 100d706c     LIBCMTD:dbgheap.obj
 0002:00035074       ??_C@_1CG@LPFIACGM@?$AA_?$AAp?$AAr?$AAi?$AAn?$AAt?$AAM?$AAe?$AAm?$AAB?$AAl?$AAo?$AAc?$AAk?$AAD?$AAa?$AAt?$AAa?$AA?$AA@ 100d7074     LIBCMTD:dbgheap.obj
 0002:0003509c       ??_C@_0BA@HJBKCELP@?5Data?3?5?$DM?$CFs?$DO?5?$CFs?6?$AA@ 100d709c     LIBCMTD:dbgheap.obj
 0002:000350ac       ??_C@_0BE@KCIPKCIA@Dumping?5objects?5?9?$DO?6?$AA@ 100d70ac     LIBCMTD:dbgheap.obj
 0002:000350c0       ??_C@_0BE@OIEFNFL@?$CDFile?5Error?$CD?$CI?$CFd?$CJ?5?3?5?$AA@ 100d70c0     LIBCMTD:dbgheap.obj
 0002:000350d4       ??_C@_0L@JMEFFCCJ@?$CFhs?$CI?$CFd?$CJ?5?3?5?$AA@ 100d70d4     LIBCMTD:dbgheap.obj
 0002:000350e0       ??_C@_06PKLGBFGM@?$HL?$CFld?$HN?5?$AA@ 100d70e0     LIBCMTD:dbgheap.obj
 0002:000350e8       ??_C@_0DD@GHNAAKBB@client?5block?5at?50x?$CFp?0?5subtype?5?$CFx@ 100d70e8     LIBCMTD:dbgheap.obj
 0002:0003511c       ??_C@_0CH@FAGDDGPN@normal?5block?5at?50x?$CFp?0?5?$CFIu?5bytes?5@ 100d711c     LIBCMTD:dbgheap.obj
 0002:00035144       ??_C@_0DA@MDLBNIBM@crt?5block?5at?50x?$CFp?0?5subtype?5?$CFx?0?5?$CF@ 100d7144     LIBCMTD:dbgheap.obj
 0002:00035174       ??_C@_0BH@GFGKJDCO@Object?5dump?5complete?4?6?$AA@ 100d7174     LIBCMTD:dbgheap.obj
 0002:0003518c       ??_C@_0BI@JBFPOEJA@Detected?5memory?5leaks?$CB?6?$AA@ 100d718c     LIBCMTD:dbgheap.obj
 0002:000351a4       ??_C@_0CM@KPPOKOAI@f?3?2dd?2vctools?2crt?2crtw32?2startup@ 100d71a4     LIBCMTD:tidtable.obj
 0002:000351d0       ??_C@_1BJK@FEBNHLFF@?$AA?$CI?$AA?$CI?$AAp?$AAt?$AAl?$AAo?$AAc?$AAi?$AA?9?$AA?$DO?$AAl?$AAc?$AA_?$AAc?$AAa?$AAt?$AAe?$AAg?$AAo?$AAr?$AAy?$AA?$FL?$AAc?$AAa?$AAt?$AAe?$AAg?$AAo?$AAr?$AAy?$AA?$FN?$AA?4@ 100d71d0     LIBCMTD:localref.obj
 0002:00035370       ??_C@_1FC@HINIIGNO@?$AAf?$AA?3?$AA?2?$AAd?$AAd?$AA?2?$AAv?$AAc?$AAt?$AAo?$AAo?$AAl?$AAs?$AA?2?$AAc?$AAr?$AAt?$AA?2?$AAc?$AAr?$AAt?$AAw?$AA3?$AA2?$AA?2?$AAm?$AAi?$AAs?$AAc?$AA?2?$AAl?$AAo@ 100d7370     LIBCMTD:localref.obj
 0002:000353d4       ??_C@_1M@HPNHIDJI@?$AAj?$AAa?$AA?9?$AAJ?$AAP?$AA?$AA@ 100d73d4     LIBCMTD:mbctype.obj
 0002:000353e0       ??_C@_1M@BIBDDEMK@?$AAz?$AAh?$AA?9?$AAC?$AAN?$AA?$AA@ 100d73e0     LIBCMTD:mbctype.obj
 0002:000353ec       ??_C@_1M@JLOOOEGK@?$AAk?$AAo?$AA?9?$AAK?$AAR?$AA?$AA@ 100d73ec     LIBCMTD:mbctype.obj
 0002:000353f8       ??_C@_1M@CLNBBOPM@?$AAz?$AAh?$AA?9?$AAT?$AAW?$AA?$AA@ 100d73f8     LIBCMTD:mbctype.obj
 0002:00035404       ??_C@_0CM@BEDCPGGG@f?3?2dd?2vctools?2crt?2crtw32?2mbstrin@ 100d7404     LIBCMTD:mbctype.obj
 0002:00035430       ??_C@_1CI@JELMFMDH@?$AAc?$AA?5?$AA?$DO?$AA?$DN?$AA?5?$AA?9?$AA1?$AA?5?$AA?$CG?$AA?$CG?$AA?5?$AAc?$AA?5?$AA?$DM?$AA?$DN?$AA?5?$AA2?$AA5?$AA5?$AA?$AA@ 100d7430     LIBCMTD:isctype.obj
 0002:00035458       ??_C@_1FG@IBFIOCOE@?$AAf?$AA?3?$AA?2?$AAd?$AAd?$AA?2?$AAv?$AAc?$AAt?$AAo?$AAo?$AAl?$AAs?$AA?2?$AAc?$AAr?$AAt?$AA?2?$AAc?$AAr?$AAt?$AAw?$AA3?$AA2?$AA?2?$AAc?$AAo?$AAn?$AAv?$AAe?$AAr?$AAt@ 100d7458     LIBCMTD:isctype.obj
 0002:000354b0       ??_C@_03KOEHGMDN@Sun?$AA@  100d74b0     LIBCMTD:nlsdata.obj
 0002:000354b4       ??_C@_03PDAGKDH@Mon?$AA@   100d74b4     LIBCMTD:nlsdata.obj
 0002:000354b8       ??_C@_03NAGEINEP@Tue?$AA@  100d74b8     LIBCMTD:nlsdata.obj
 0002:000354bc       ??_C@_03MHOMLAJA@Wed?$AA@  100d74bc     LIBCMTD:nlsdata.obj
 0002:000354c0       ??_C@_03IOFIKPDN@Thu?$AA@  100d74c0     LIBCMTD:nlsdata.obj
 0002:000354c4       ??_C@_03IDIOELNC@Fri?$AA@  100d74c4     LIBCMTD:nlsdata.obj
 0002:000354c8       ??_C@_03FEFJNEK@Sat?$AA@   100d74c8     LIBCMTD:nlsdata.obj
 0002:000354cc       ??_C@_06OOPIFAJ@Sunday?$AA@ 100d74cc     LIBCMTD:nlsdata.obj
 0002:000354d4       ??_C@_06JLEDEDGH@Monday?$AA@ 100d74d4     LIBCMTD:nlsdata.obj
 0002:000354dc       ??_C@_07BAAGCFCM@Tuesday?$AA@ 100d74dc     LIBCMTD:nlsdata.obj
 0002:000354e4       ??_C@_09DLIGFAKA@Wednesday?$AA@ 100d74e4     LIBCMTD:nlsdata.obj
 0002:000354f0       ??_C@_08HACCIKIA@Thursday?$AA@ 100d74f0     LIBCMTD:nlsdata.obj
 0002:000354fc       ??_C@_06JECMNKMI@Friday?$AA@ 100d74fc     LIBCMTD:nlsdata.obj
 0002:00035504       ??_C@_08INBOOONO@Saturday?$AA@ 100d7504     LIBCMTD:nlsdata.obj
 0002:00035510       ??_C@_03JIHJHPIE@Jan?$AA@  100d7510     LIBCMTD:nlsdata.obj
 0002:00035514       ??_C@_03HJBDCHOM@Feb?$AA@  100d7514     LIBCMTD:nlsdata.obj
 0002:00035518       ??_C@_03ODNJBKGA@Mar?$AA@  100d7518     LIBCMTD:nlsdata.obj
 0002:0003551c       ??_C@_03LEOLGMJP@Apr?$AA@  100d751c     LIBCMTD:nlsdata.obj
 0002:00035520       ??_C@_03CNMDKL@May?$AA@    100d7520     LIBCMTD:nlsdata.obj
 0002:00035524       ??_C@_03IDFGHECI@Jun?$AA@  100d7524     LIBCMTD:nlsdata.obj
 0002:00035528       ??_C@_03LBGABGKK@Jul?$AA@  100d7528     LIBCMTD:nlsdata.obj
 0002:0003552c       ??_C@_03IFJFEIGA@Aug?$AA@  100d752c     LIBCMTD:nlsdata.obj
 0002:00035530       ??_C@_03GGCAPAJC@Sep?$AA@  100d7530     LIBCMTD:nlsdata.obj
 0002:00035534       ??_C@_03BMAOKBAD@Oct?$AA@  100d7534     LIBCMTD:nlsdata.obj
 0002:00035538       ??_C@_03JPJOFNIA@Nov?$AA@  100d7538     LIBCMTD:nlsdata.obj
 0002:0003553c       ??_C@_03MKABNOCG@Dec?$AA@  100d753c     LIBCMTD:nlsdata.obj
 0002:00035540       ??_C@_07CGJPFGJA@January?$AA@ 100d7540     LIBCMTD:nlsdata.obj
 0002:00035548       ??_C@_08GNJGEPFN@February?$AA@ 100d7548     LIBCMTD:nlsdata.obj
 0002:00035554       ??_C@_05HPCKOFNC@March?$AA@ 100d7554     LIBCMTD:nlsdata.obj
 0002:0003555c       ??_C@_05DMJDNLEJ@April?$AA@ 100d755c     LIBCMTD:nlsdata.obj
 0002:00035564       ??_C@_04CNLMGBGM@June?$AA@ 100d7564     LIBCMTD:nlsdata.obj
 0002:0003556c       ??_C@_04MIEPOIFP@July?$AA@ 100d756c     LIBCMTD:nlsdata.obj
 0002:00035574       ??_C@_06LBBHFDDG@August?$AA@ 100d7574     LIBCMTD:nlsdata.obj
 0002:0003557c       ??_C@_09BHHEALKD@September?$AA@ 100d757c     LIBCMTD:nlsdata.obj
 0002:00035588       ??_C@_07JJNFCEND@October?$AA@ 100d7588     LIBCMTD:nlsdata.obj
 0002:00035590       ??_C@_08HCHEGEOA@November?$AA@ 100d7590     LIBCMTD:nlsdata.obj
 0002:0003559c       ??_C@_08EDHMEBNP@December?$AA@ 100d759c     LIBCMTD:nlsdata.obj
 0002:000355a8       ??_C@_02DEDBPAFC@AM?$AA@   100d75a8     LIBCMTD:nlsdata.obj
 0002:000355ac       ??_C@_02CJNFDJBF@PM?$AA@   100d75ac     LIBCMTD:nlsdata.obj
 0002:000355b0       ??_C@_08BPBNCDIB@MM?1dd?1yy?$AA@ 100d75b0     LIBCMTD:nlsdata.obj
 0002:000355bc       ??_C@_0BE@CKGJFCPC@dddd?0?5MMMM?5dd?0?5yyyy?$AA@ 100d75bc     LIBCMTD:nlsdata.obj
 0002:000355d0       ??_C@_08JCCMCCIL@HH?3mm?3ss?$AA@ 100d75d0     LIBCMTD:nlsdata.obj
 0002:000355dc       ??_C@_17MBGCMIPB@?$AAS?$AAu?$AAn?$AA?$AA@ 100d75dc     LIBCMTD:nlsdata.obj
 0002:000355e4       ??_C@_17KBOMKBF@?$AAM?$AAo?$AAn?$AA?$AA@ 100d75e4     LIBCMTD:nlsdata.obj
 0002:000355ec       ??_C@_17BMKGEGOJ@?$AAT?$AAu?$AAe?$AA?$AA@ 100d75ec     LIBCMTD:nlsdata.obj
 0002:000355f4       ??_C@_17CJEDCEPE@?$AAW?$AAe?$AAd?$AA?$AA@ 100d75f4     LIBCMTD:nlsdata.obj
 0002:000355fc       ??_C@_17PDPHAADD@?$AAT?$AAh?$AAu?$AA?$AA@ 100d75fc     LIBCMTD:nlsdata.obj
 0002:00035604       ??_C@_17HFOLPPLP@?$AAF?$AAr?$AAi?$AA?$AA@ 100d7604     LIBCMTD:nlsdata.obj
 0002:0003560c       ??_C@_17GGIBDPIH@?$AAS?$AAa?$AAt?$AA?$AA@ 100d760c     LIBCMTD:nlsdata.obj
 0002:00035614       ??_C@_1O@IHNHDHPB@?$AAS?$AAu?$AAn?$AAd?$AAa?$AAy?$AA?$AA@ 100d7614     LIBCMTD:nlsdata.obj
 0002:00035624       ??_C@_1O@MMNBFLIA@?$AAM?$AAo?$AAn?$AAd?$AAa?$AAy?$AA?$AA@ 100d7624     LIBCMTD:nlsdata.obj
 0002:00035634       ??_C@_1BA@ENFBFFEK@?$AAT?$AAu?$AAe?$AAs?$AAd?$AAa?$AAy?$AA?$AA@ 100d7634     LIBCMTD:nlsdata.obj
 0002:00035644       ??_C@_1BE@EBOGMDOH@?$AAW?$AAe?$AAd?$AAn?$AAe?$AAs?$AAd?$AAa?$AAy?$AA?$AA@ 100d7644     LIBCMTD:nlsdata.obj
 0002:00035658       ??_C@_1BC@HHMNLIHE@?$AAT?$AAh?$AAu?$AAr?$AAs?$AAd?$AAa?$AAy?$AA?$AA@ 100d7658     LIBCMTD:nlsdata.obj
 0002:0003566c       ??_C@_1O@PDICJHAG@?$AAF?$AAr?$AAi?$AAd?$AAa?$AAy?$AA?$AA@ 100d766c     LIBCMTD:nlsdata.obj
 0002:0003567c       ??_C@_1BC@ENMNNPAJ@?$AAS?$AAa?$AAt?$AAu?$AAr?$AAd?$AAa?$AAy?$AA?$AA@ 100d767c     LIBCMTD:nlsdata.obj
 0002:00035690       ??_C@_17DKNBKCHM@?$AAJ?$AAa?$AAn?$AA?$AA@ 100d7690     LIBCMTD:nlsdata.obj
 0002:00035698       ??_C@_17LMDJEKJN@?$AAF?$AAe?$AAb?$AA?$AA@ 100d7698     LIBCMTD:nlsdata.obj
 0002:000356a0       ??_C@_17CKNLEDEC@?$AAM?$AAa?$AAr?$AA?$AA@ 100d76a0     LIBCMTD:nlsdata.obj
 0002:000356a8       ??_C@_17LFPOIHDD@?$AAA?$AAp?$AAr?$AA?$AA@ 100d76a8     LIBCMTD:nlsdata.obj
 0002:000356b0       ??_C@_17PNNKMEED@?$AAM?$AAa?$AAy?$AA?$AA@ 100d76b0     LIBCMTD:nlsdata.obj
 0002:000356b8       ??_C@_17KCJGOCPB@?$AAJ?$AAu?$AAn?$AA?$AA@ 100d76b8     LIBCMTD:nlsdata.obj
 0002:000356c0       ??_C@_17IJPCKHK@?$AAJ?$AAu?$AAl?$AA?$AA@ 100d76c0     LIBCMTD:nlsdata.obj
 0002:000356c8       ??_C@_17ICPELBCN@?$AAA?$AAu?$AAg?$AA?$AA@ 100d76c8     LIBCMTD:nlsdata.obj
 0002:000356d0       ??_C@_17HCHCOKMG@?$AAS?$AAe?$AAp?$AA?$AA@ 100d76d0     LIBCMTD:nlsdata.obj
 0002:000356d8       ??_C@_17FNLKOI@?$AAO?$AAc?$AAt?$AA?$AA@ 100d76d8     LIBCMTD:nlsdata.obj
 0002:000356e0       ??_C@_17BBDMLCIG@?$AAN?$AAo?$AAv?$AA?$AA@ 100d76e0     LIBCMTD:nlsdata.obj
 0002:000356e8       ??_C@_17EGKACKIF@?$AAD?$AAe?$AAc?$AA?$AA@ 100d76e8     LIBCMTD:nlsdata.obj
 0002:000356f0       ??_C@_1BA@EFMEIEBA@?$AAJ?$AAa?$AAn?$AAu?$AAa?$AAr?$AAy?$AA?$AA@ 100d76f0     LIBCMTD:nlsdata.obj
 0002:00035700       ??_C@_1BC@JGDDFFAM@?$AAF?$AAe?$AAb?$AAr?$AAu?$AAa?$AAr?$AAy?$AA?$AA@ 100d7700     LIBCMTD:nlsdata.obj
 0002:00035714       ??_C@_1M@IKEENEDF@?$AAM?$AAa?$AAr?$AAc?$AAh?$AA?$AA@ 100d7714     LIBCMTD:nlsdata.obj
 0002:00035720       ??_C@_1M@GJNLMHFD@?$AAA?$AAp?$AAr?$AAi?$AAl?$AA?$AA@ 100d7720     LIBCMTD:nlsdata.obj
 0002:0003572c       ??_C@_19EPFLPGAP@?$AAJ?$AAu?$AAn?$AAe?$AA?$AA@ 100d772c     LIBCMTD:nlsdata.obj
 0002:00035738       ??_C@_19BIFMLPCD@?$AAJ?$AAu?$AAl?$AAy?$AA?$AA@ 100d7738     LIBCMTD:nlsdata.obj
 0002:00035744       ??_C@_1O@PAHLKOAC@?$AAA?$AAu?$AAg?$AAu?$AAs?$AAt?$AA?$AA@ 100d7744     LIBCMTD:nlsdata.obj
 0002:00035754       ??_C@_1BE@DKAAMBJL@?$AAS?$AAe?$AAp?$AAt?$AAe?$AAm?$AAb?$AAe?$AAr?$AA?$AA@ 100d7754     LIBCMTD:nlsdata.obj
 0002:00035768       ??_C@_1BA@EPANDLNG@?$AAO?$AAc?$AAt?$AAo?$AAb?$AAe?$AAr?$AA?$AA@ 100d7768     LIBCMTD:nlsdata.obj
 0002:00035778       ??_C@_1BC@BGLIFPF@?$AAN?$AAo?$AAv?$AAe?$AAm?$AAb?$AAe?$AAr?$AA?$AA@ 100d7778     LIBCMTD:nlsdata.obj
 0002:0003578c       ??_C@_1BC@FEMKIFH@?$AAD?$AAe?$AAc?$AAe?$AAm?$AAb?$AAe?$AAr?$AA?$AA@ 100d778c     LIBCMTD:nlsdata.obj
 0002:000357a0       ??_C@_15ODEHAHHF@?$AAA?$AAM?$AA?$AA@ 100d77a0     LIBCMTD:nlsdata.obj
 0002:000357a8       ??_C@_15CLMNNGEL@?$AAP?$AAM?$AA?$AA@ 100d77a8     LIBCMTD:nlsdata.obj
 0002:000357b0       ??_C@_1BC@IEBCMHCM@?$AAM?$AAM?$AA?1?$AAd?$AAd?$AA?1?$AAy?$AAy?$AA?$AA@ 100d77b0     LIBCMTD:nlsdata.obj
 0002:000357c4       ??_C@_1CI@KNAKOEBC@?$AAd?$AAd?$AAd?$AAd?$AA?0?$AA?5?$AAM?$AAM?$AAM?$AAM?$AA?5?$AAd?$AAd?$AA?0?$AA?5?$AAy?$AAy?$AAy?$AAy?$AA?$AA@ 100d77c4     LIBCMTD:nlsdata.obj
 0002:000357ec       ??_C@_1BC@GDGBMEMK@?$AAH?$AAH?$AA?3?$AAm?$AAm?$AA?3?$AAs?$AAs?$AA?$AA@ 100d77ec     LIBCMTD:nlsdata.obj
 0002:00035800       ??_C@_1M@BMHNFIME@?$AAe?$AAn?$AA?9?$AAU?$AAS?$AA?$AA@ 100d7800     LIBCMTD:nlsdata.obj
 0002:00035890       ??_C@_1FA@CKEACION@?$AAf?$AA?3?$AA?2?$AAd?$AAd?$AA?2?$AAv?$AAc?$AAt?$AAo?$AAo?$AAl?$AAs?$AA?2?$AAc?$AAr?$AAt?$AA?2?$AAc?$AAr?$AAt?$AAw?$AA3?$AA2?$AA?2?$AAs?$AAt?$AAd?$AAi?$AAo?$AA?2?$AAf@ 100d7890     LIBCMTD:fileno.obj
 0002:000358e0       ??_C@_1BA@JGHIEKKM@?$AA_?$AAf?$AAi?$AAl?$AAe?$AAn?$AAo?$AA?$AA@ 100d78e0     LIBCMTD:fileno.obj
 0002:000358f0       ??_C@_0CH@FPHLCLAF@f?3?2dd?2vctools?2crt?2crtw32?2stdio?2_@ 100d78f0     LIBCMTD:_file.obj
 0002:00035918       ??_C@_1FO@LPCLHKGE@?$AA?$CI?$AAf?$AAh?$AA?5?$AA?$DO?$AA?$DN?$AA?5?$AA0?$AA?5?$AA?$CG?$AA?$CG?$AA?5?$AA?$CI?$AAu?$AAn?$AAs?$AAi?$AAg?$AAn?$AAe?$AAd?$AA?$CJ?$AAf?$AAh?$AA?5?$AA?$DM?$AA?5?$AA?$CI?$AAu?$AAn?$AAs?$AAi@ 100d7918     LIBCMTD:close.obj
 0002:00035978       ??_C@_1EO@EJLBBGEB@?$AAf?$AA?3?$AA?2?$AAd?$AAd?$AA?2?$AAv?$AAc?$AAt?$AAo?$AAo?$AAl?$AAs?$AA?2?$AAc?$AAr?$AAt?$AA?2?$AAc?$AAr?$AAt?$AAw?$AA3?$AA2?$AA?2?$AAl?$AAo?$AAw?$AAi?$AAo?$AA?2?$AAc@ 100d7978     LIBCMTD:close.obj
 0002:000359c8       ??_C@_1O@EDEJGJBM@?$AA_?$AAc?$AAl?$AAo?$AAs?$AAe?$AA?$AA@ 100d79c8     LIBCMTD:close.obj
 0002:000359d8       ??_C@_1CM@OKGMMMDH@?$AA?$CI?$AA_?$AAo?$AAs?$AAf?$AAi?$AAl?$AAe?$AA?$CI?$AAf?$AAh?$AA?$CJ?$AA?5?$AA?$CG?$AA?5?$AAF?$AAO?$AAP?$AAE?$AAN?$AA?$CJ?$AA?$AA@ 100d79d8     LIBCMTD:close.obj
 0002:00035a08       ??_C@_1JE@ECKHFIFP@?$AA?$CI?$AA?$CC?$AAI?$AAn?$AAv?$AAa?$AAl?$AAi?$AAd?$AA?5?$AAf?$AAi?$AAl?$AAe?$AA?5?$AAd?$AAe?$AAs?$AAc?$AAr?$AAi?$AAp?$AAt?$AAo?$AAr?$AA?4?$AA?5?$AAF?$AAi?$AAl?$AAe?$AA?5@ 100d7a08     LIBCMTD:close.obj
 0002:00035a9c       ??_C@_1BO@KIJENGPH@?$AAs?$AAt?$AAr?$AAe?$AAa?$AAm?$AA?5?$AA?$CB?$AA?$DN?$AA?5?$AAN?$AAU?$AAL?$AAL?$AA?$AA@ 100d7a9c     LIBCMTD:_freebuf.obj
 0002:00035ac0       ??_C@_1FE@DBCNNJOP@?$AAf?$AA?3?$AA?2?$AAd?$AAd?$AA?2?$AAv?$AAc?$AAt?$AAo?$AAo?$AAl?$AAs?$AA?2?$AAc?$AAr?$AAt?$AA?2?$AAc?$AAr?$AAt?$AAw?$AA3?$AA2?$AA?2?$AAs?$AAt?$AAd?$AAi?$AAo?$AA?2?$AA_@ 100d7ac0     LIBCMTD:_freebuf.obj
 0002:00035b14       ??_C@_0CI@CCALCGFN@f?3?2dd?2vctools?2crt?2crtw32?2stdio?2s@ 100d7b14     LIBCMTD:stream.obj
 0002:00035b5c       ??_C@_1CC@JBMDNKJP@?$AAf?$AAi?$AAl?$AAe?$AAn?$AAa?$AAm?$AAe?$AA?5?$AA?$CB?$AA?$DN?$AA?5?$AAN?$AAU?$AAL?$AAL?$AA?$AA@ 100d7b5c     LIBCMTD:_open.obj
 0002:00035b80       ??_C@_1EO@FCBMLNIH@?$AAf?$AA?3?$AA?2?$AAd?$AAd?$AA?2?$AAv?$AAc?$AAt?$AAo?$AAo?$AAl?$AAs?$AA?2?$AAc?$AAr?$AAt?$AA?2?$AAc?$AAr?$AAt?$AAw?$AA3?$AA2?$AA?2?$AAs?$AAt?$AAd?$AAi?$AAo?$AA?2?$AA_@ 100d7b80     LIBCMTD:_open.obj
 0002:00035bd0       ??_C@_1BK@HGLMNMEC@?$AAm?$AAo?$AAd?$AAe?$AA?5?$AA?$CB?$AA?$DN?$AA?5?$AAN?$AAU?$AAL?$AAL?$AA?$AA@ 100d7bd0     LIBCMTD:_open.obj
 0002:00035bec       ??_C@_1BI@MFCLPIBM@?$AAs?$AAt?$AAr?$AA?5?$AA?$CB?$AA?$DN?$AA?5?$AAN?$AAU?$AAL?$AAL?$AA?$AA@ 100d7bec     LIBCMTD:_open.obj
 0002:00035c04       ??_C@_1DK@PKMJBLLN@?$AA?$CI?$AA?$CC?$AAI?$AAn?$AAv?$AAa?$AAl?$AAi?$AAd?$AA?5?$AAf?$AAi?$AAl?$AAe?$AA?5?$AAo?$AAp?$AAe?$AAn?$AA?5?$AAm?$AAo?$AAd?$AAe?$AA?$CC?$AA?0?$AA0?$AA?$CJ?$AA?$AA@ 100d7c04     LIBCMTD:_open.obj
 0002:00035c40       ??_C@_1BE@DONHJJKE@?$AA_?$AAo?$AAp?$AAe?$AAn?$AAf?$AAi?$AAl?$AAe?$AA?$AA@ 100d7c40     LIBCMTD:_open.obj
 0002:00035c54       ??_C@_1CI@KEDPFCAL@?$AA?$CI?$AA?$CK?$AAm?$AAo?$AAd?$AAe?$AA?5?$AA?$DN?$AA?$DN?$AA?5?$AA_?$AAT?$AA?$CI?$AA?8?$AA?2?$AA0?$AA?8?$AA?$CJ?$AA?$CJ?$AA?$AA@ 100d7c54     LIBCMTD:_open.obj
 0002:00035c80       ??_C@_1FC@KLDIFLFI@?$AAf?$AA?3?$AA?2?$AAd?$AAd?$AA?2?$AAv?$AAc?$AAt?$AAo?$AAo?$AAl?$AAs?$AA?2?$AAc?$AAr?$AAt?$AA?2?$AAc?$AAr?$AAt?$AAw?$AA3?$AA2?$AA?2?$AAs?$AAt?$AAd?$AAi?$AAo?$AA?2?$AA_@ 100d7c80     LIBCMTD:_filbuf.obj
 0002:00035cd4       ??_C@_1BA@IIKEPOGH@?$AA_?$AAf?$AAi?$AAl?$AAb?$AAu?$AAf?$AA?$AA@ 100d7cd4     LIBCMTD:_filbuf.obj
 0002:00035ce4       ??_C@_1BI@GKKCBDMD@?$AAd?$AAs?$AAt?$AA?5?$AA?$CB?$AA?$DN?$AA?5?$AAN?$AAU?$AAL?$AAL?$AA?$AA@ 100d7ce4     LIBCMTD:memcpy_s.obj
 0002:00035d00       ??_C@_1FG@COJCEIPE@?$AAf?$AA?3?$AA?2?$AAd?$AAd?$AA?2?$AAv?$AAc?$AAt?$AAo?$AAo?$AAl?$AAs?$AA?2?$AAc?$AAr?$AAt?$AA?2?$AAc?$AAr?$AAt?$AAw?$AA3?$AA2?$AA?2?$AAs?$AAt?$AAr?$AAi?$AAn?$AAg?$AA?2@ 100d7d00     LIBCMTD:memcpy_s.obj
 0002:00035d58       ??_C@_1BC@GKHDJMGB@?$AAm?$AAe?$AAm?$AAc?$AAp?$AAy?$AA_?$AAs?$AA?$AA@ 100d7d58     LIBCMTD:memcpy_s.obj
 0002:00035d6c       ??_C@_1BI@DCHLDCPP@?$AAs?$AAr?$AAc?$AA?5?$AA?$CB?$AA?$DN?$AA?5?$AAN?$AAU?$AAL?$AAL?$AA?$AA@ 100d7d6c     LIBCMTD:memcpy_s.obj
 0002:00035d84       ??_C@_1CK@DDKKOLAN@?$AAs?$AAi?$AAz?$AAe?$AAI?$AAn?$AAB?$AAy?$AAt?$AAe?$AAs?$AA?5?$AA?$DO?$AA?$DN?$AA?5?$AAc?$AAo?$AAu?$AAn?$AAt?$AA?$AA@ 100d7d84     LIBCMTD:memcpy_s.obj
 0002:00035db0       ??_C@_1EM@BALFJBIJ@?$AAf?$AA?3?$AA?2?$AAd?$AAd?$AA?2?$AAv?$AAc?$AAt?$AAo?$AAo?$AAl?$AAs?$AA?2?$AAc?$AAr?$AAt?$AA?2?$AAc?$AAr?$AAt?$AAw?$AA3?$AA2?$AA?2?$AAl?$AAo?$AAw?$AAi?$AAo?$AA?2?$AAr@ 100d7db0     LIBCMTD:read.obj
 0002:00035dfc       ??_C@_1M@NHJOLLDM@?$AA_?$AAr?$AAe?$AAa?$AAd?$AA?$AA@ 100d7dfc     LIBCMTD:read.obj
 0002:00035e08       ??_C@_1CC@HBLPFNKH@?$AA?$CI?$AAc?$AAn?$AAt?$AA?5?$AA?$DM?$AA?$DN?$AA?5?$AAI?$AAN?$AAT?$AA_?$AAM?$AAA?$AAX?$AA?$CJ?$AA?$AA@ 100d7e08     LIBCMTD:read.obj
 0002:00035e2c       ??_C@_1BK@JJBHNDKJ@?$AA_?$AAr?$AAe?$AAa?$AAd?$AA_?$AAn?$AAo?$AAl?$AAo?$AAc?$AAk?$AA?$AA@ 100d7e2c     LIBCMTD:read.obj
 0002:00035e48       ??_C@_1CG@OHLJHGGK@?$AA?$CI?$AAi?$AAn?$AAp?$AAu?$AAt?$AAb?$AAu?$AAf?$AA?5?$AA?$CB?$AA?$DN?$AA?5?$AAN?$AAU?$AAL?$AAL?$AA?$CJ?$AA?$AA@ 100d7e48     LIBCMTD:read.obj
 0002:00035e70       ??_C@_1CC@EEOLPHGO@?$AA?$CI?$AA?$CI?$AAc?$AAn?$AAt?$AA?5?$AA?$CG?$AA?5?$AA1?$AA?$CJ?$AA?5?$AA?$DN?$AA?$DN?$AA?5?$AA0?$AA?$CJ?$AA?$AA@ 100d7e70     LIBCMTD:read.obj
 0002:00035e94       ??_C@_0CG@JHNDLPLJ@f?3?2dd?2vctools?2crt?2crtw32?2lowio?2r@ 100d7e94     LIBCMTD:read.obj
 0002:00035ec0       ??_C@_1EO@CCHAPCBN@?$AAf?$AA?3?$AA?2?$AAd?$AAd?$AA?2?$AAv?$AAc?$AAt?$AAo?$AAo?$AAl?$AAs?$AA?2?$AAc?$AAr?$AAt?$AA?2?$AAc?$AAr?$AAt?$AAw?$AA3?$AA2?$AA?2?$AAl?$AAo?$AAw?$AAi?$AAo?$AA?2?$AAl@ 100d7ec0     LIBCMTD:lseek.obj
 0002:00035f10       ??_C@_1O@EDOIKGHF@?$AA_?$AAl?$AAs?$AAe?$AAe?$AAk?$AA?$AA@ 100d7f10     LIBCMTD:lseek.obj
 0002:00035f20       ??_C@_1DM@LMLOLGJ@?$AA?$CI?$AA?$CC?$AAI?$AAn?$AAv?$AAa?$AAl?$AAi?$AAd?$AA?5?$AAf?$AAi?$AAl?$AAe?$AA?5?$AAd?$AAe?$AAs?$AAc?$AAr?$AAi?$AAp?$AAt?$AAo?$AAr?$AA?$CC?$AA?0?$AA0?$AA?$CJ?$AA?$AA@ 100d7f20     LIBCMTD:lseek.obj
 0002:00035f60       ??_C@_1FE@NDDOFCDF@?$AAf?$AA?3?$AA?2?$AAd?$AAd?$AA?2?$AAv?$AAc?$AAt?$AAo?$AAo?$AAl?$AAs?$AA?2?$AAc?$AAr?$AAt?$AA?2?$AAc?$AAr?$AAt?$AAw?$AA3?$AA2?$AA?2?$AAl?$AAo?$AAw?$AAi?$AAo?$AA?2?$AAl@ 100d7f60     LIBCMTD:lseeki64.obj
 0002:00035fb4       ??_C@_1BE@KHFBJMNM@?$AA_?$AAl?$AAs?$AAe?$AAe?$AAk?$AAi?$AA6?$AA4?$AA?$AA@ 100d7fb4     LIBCMTD:lseeki64.obj
 0002:00035fc8       ??_C@_0CI@BIOGDJKL@f?3?2dd?2vctools?2crt?2crtw32?2lowio?2i@ 100d7fc8     LIBCMTD:ioinit.obj
 0002:00035ff0       ??_C@_1FC@OBEHAONE@?$AAf?$AA?3?$AA?2?$AAd?$AAd?$AA?2?$AAv?$AAc?$AAt?$AAo?$AAo?$AAl?$AAs?$AA?2?$AAc?$AAr?$AAt?$AA?2?$AAc?$AAr?$AAt?$AAw?$AA3?$AA2?$AA?2?$AAs?$AAt?$AAd?$AAi?$AAo?$AA?2?$AA_@ 100d7ff0     LIBCMTD:_flsbuf.obj
 0002:00036048       ??_C@_1HO@MLMGPAFH@?$AA?$CI?$AA?$CC?$AAi?$AAn?$AAc?$AAo?$AAn?$AAs?$AAi?$AAs?$AAt?$AAe?$AAn?$AAt?$AA?5?$AAI?$AAO?$AAB?$AA?5?$AAf?$AAi?$AAe?$AAl?$AAd?$AAs?$AA?$CC?$AA?0?$AA?5?$AAs?$AAt?$AAr?$AAe@ 100d8048     LIBCMTD:_flsbuf.obj
 0002:000360c8       ??_C@_1FE@CKCGICM@?$AAf?$AA?3?$AA?2?$AAd?$AAd?$AA?2?$AAv?$AAc?$AAt?$AAo?$AAo?$AAl?$AAs?$AA?2?$AAc?$AAr?$AAt?$AA?2?$AAc?$AAr?$AAt?$AAw?$AA3?$AA2?$AA?2?$AAs?$AAt?$AAd?$AAi?$AAo?$AA?2?$AAv@ 100d80c8     LIBCMTD:vsprintf.obj
 0002:0003611c       ??_C@_1CE@PCFPEIFI@?$AA_?$AAv?$AAs?$AAn?$AAp?$AAr?$AAi?$AAn?$AAt?$AAf?$AA_?$AAh?$AAe?$AAl?$AAp?$AAe?$AAr?$AA?$AA@ 100d811c     LIBCMTD:vsnprnc.obj
 0002:00036140       ??_C@_1EC@FABAOFFO@?$AA?$CI?$AAc?$AAo?$AAu?$AAn?$AAt?$AA?5?$AA?$DN?$AA?$DN?$AA?5?$AA0?$AA?$CJ?$AA?5?$AA?$HM?$AA?$HM?$AA?5?$AA?$CI?$AAs?$AAt?$AAr?$AAi?$AAn?$AAg?$AA?5?$AA?$CB?$AA?$DN?$AA?5?$AAN?$AAU?$AAL?$AAL?$AA?$CJ@ 100d8140     LIBCMTD:vsnprnc.obj
 0002:00036184       ??_C@_1BO@MLMCMBKN@?$AAf?$AAo?$AAr?$AAm?$AAa?$AAt?$AA?5?$AA?$CB?$AA?$DN?$AA?5?$AAN?$AAU?$AAL?$AAL?$AA?$AA@ 100d8184     LIBCMTD:vsnprnc.obj
 0002:000361a4       ??_C@_1BM@BLJALHEF@?$AA_?$AAv?$AAs?$AAp?$AAr?$AAi?$AAn?$AAt?$AAf?$AA_?$AAs?$AA_?$AAl?$AA?$AA@ 100d81a4     LIBCMTD:vsnprnc.obj
 0002:000361c0       ??_C@_1EE@OKCKIGFK@?$AAs?$AAt?$AAr?$AAi?$AAn?$AAg?$AA?5?$AA?$CB?$AA?$DN?$AA?5?$AAN?$AAU?$AAL?$AAL?$AA?5?$AA?$CG?$AA?$CG?$AA?5?$AAs?$AAi?$AAz?$AAe?$AAI?$AAn?$AAB?$AAy?$AAt?$AAe?$AAs?$AA?5?$AA?$DO?$AA?5@ 100d81c0     LIBCMTD:vsnprnc.obj
 0002:00036204       ??_C@_1DA@HPBFKMEB@?$AA?$CI?$AA?$CC?$AAB?$AAu?$AAf?$AAf?$AAe?$AAr?$AA?5?$AAt?$AAo?$AAo?$AA?5?$AAs?$AAm?$AAa?$AAl?$AAl?$AA?$CC?$AA?0?$AA?5?$AA0?$AA?$CJ?$AA?$AA@ 100d8204     LIBCMTD:vsnprnc.obj
 0002:00036234       ??_C@_1BO@MMPELNIM@?$AA_?$AAv?$AAs?$AAn?$AAp?$AAr?$AAi?$AAn?$AAt?$AAf?$AA_?$AAs?$AA_?$AAl?$AA?$AA@ 100d8234     LIBCMTD:vsnprnc.obj
 0002:00036254       ??_C@_06OJHGLDPL@?$CInull?$CJ?$AA@ 100d8254     LIBCMTD:output.obj
 0002:0003625c       ??_C@_1O@CEDCILHN@?$AA?$CI?$AAn?$AAu?$AAl?$AAl?$AA?$CJ?$AA?$AA@ 100d825c     LIBCMTD:output.obj
 0002:00036270       ___lookuptable             100d8270     LIBCMTD:output.obj
 0002:000362d0       ??_C@_1FA@KMIJDCIC@?$AAf?$AA?3?$AA?2?$AAd?$AAd?$AA?2?$AAv?$AAc?$AAt?$AAo?$AAo?$AAl?$AAs?$AA?2?$AAc?$AAr?$AAt?$AA?2?$AAc?$AAr?$AAt?$AAw?$AA3?$AA2?$AA?2?$AAs?$AAt?$AAd?$AAi?$AAo?$AA?2?$AAo@ 100d82d0     LIBCMTD:output.obj
 0002:00036320       ??_C@_1BAA@ODEGEDCK@?$AA?$CI?$AA?5?$AA?$CI?$AA_?$AAS?$AAt?$AAr?$AAe?$AAa?$AAm?$AA?9?$AA?$DO?$AA_?$AAf?$AAl?$AAa?$AAg?$AA?5?$AA?$CG?$AA?5?$AA_?$AAI?$AAO?$AAS?$AAT?$AAR?$AAG?$AA?$CJ?$AA?5?$AA?$HM?$AA?$HM?$AA?5@ 100d8320     LIBCMTD:output.obj
 0002:00036420       ??_C@_1CC@IFFHEMNF@?$AA?$CI?$AAc?$AAh?$AA?5?$AA?$CB?$AA?$DN?$AA?5?$AA_?$AAT?$AA?$CI?$AA?8?$AA?2?$AA0?$AA?8?$AA?$CJ?$AA?$CJ?$AA?$AA@ 100d8420     LIBCMTD:output.obj
 0002:00036448       ??_C@_1EK@PNGFDECN@?$AA?$CI?$AA?$CC?$AA?8?$AAn?$AA?8?$AA?5?$AAf?$AAo?$AAr?$AAm?$AAa?$AAt?$AA?5?$AAs?$AAp?$AAe?$AAc?$AAi?$AAf?$AAi?$AAe?$AAr?$AA?5?$AAd?$AAi?$AAs?$AAa?$AAb?$AAl?$AAe?$AAd?$AA?$CC@ 100d8448     LIBCMTD:output.obj
 0002:00036494       ??_C@_0CI@CMOPBIOD@f?3?2dd?2vctools?2crt?2crtw32?2stdio?2o@ 100d8494     LIBCMTD:output.obj
 0002:000364bc       ??_C@_03KHJOGHMM@exp?$AA@  100d84bc     LIBCMTD:fpexcept.obj
 0002:000364c0       ??_C@_03JGHBODFD@pow?$AA@  100d84c0     LIBCMTD:fpexcept.obj
 0002:000364c4       ??_C@_03MGHMBJCF@log?$AA@  100d84c4     LIBCMTD:fpexcept.obj
 0002:000364c8       ??_C@_05HGHHAHAP@log10?$AA@ 100d84c8     LIBCMTD:fpexcept.obj
 0002:000364d0       ??_C@_04COOMCNPB@sinh?$AA@ 100d84d0     LIBCMTD:fpexcept.obj
 0002:000364d8       ??_C@_04HPJJNFIM@cosh?$AA@ 100d84d8     LIBCMTD:fpexcept.obj
 0002:000364e0       ??_C@_04FJHINJAO@tanh?$AA@ 100d84e0     LIBCMTD:fpexcept.obj
 0002:000364e8       ??_C@_04FIHNOPOL@asin?$AA@ 100d84e8     LIBCMTD:fpexcept.obj
 0002:000364f0       ??_C@_04PDIFKINK@acos?$AA@ 100d84f0     LIBCMTD:fpexcept.obj
 0002:000364f8       ??_C@_04MLLJIGOK@atan?$AA@ 100d84f8     LIBCMTD:fpexcept.obj
 0002:00036500       ??_C@_05KNGEOGJB@atan2?$AA@ 100d8500     LIBCMTD:fpexcept.obj
 0002:00036508       ??_C@_04EIAKFFMI@sqrt?$AA@ 100d8508     LIBCMTD:fpexcept.obj
 0002:00036510       ??_C@_03BLEJJJBH@sin?$AA@  100d8510     LIBCMTD:fpexcept.obj
 0002:00036514       ??_C@_03LALBNOCG@cos?$AA@  100d8514     LIBCMTD:fpexcept.obj
 0002:00036518       ??_C@_03IIINPABG@tan?$AA@  100d8518     LIBCMTD:fpexcept.obj
 0002:0003651c       ??_C@_04GFPJNGEK@ceil?$AA@ 100d851c     LIBCMTD:fpexcept.obj
 0002:00036524       ??_C@_05PBJFFIGL@floor?$AA@ 100d8524     LIBCMTD:fpexcept.obj
 0002:0003652c       ??_C@_04ODHECPBC@fabs?$AA@ 100d852c     LIBCMTD:fpexcept.obj
 0002:00036534       ??_C@_04EHEDPDJG@modf?$AA@ 100d8534     LIBCMTD:fpexcept.obj
 0002:0003653c       ??_C@_05CEJMAHNP@ldexp?$AA@ 100d853c     LIBCMTD:fpexcept.obj
 0002:00036544       ??_C@_05KBKMEMPO@_cabs?$AA@ 100d8544     LIBCMTD:fpexcept.obj
 0002:0003654c       ??_C@_06MEIMCGCF@_hypot?$AA@ 100d854c     LIBCMTD:fpexcept.obj
 0002:00036554       ??_C@_04KEPJIHGP@fmod?$AA@ 100d8554     LIBCMTD:fpexcept.obj
 0002:0003655c       ??_C@_05GKKHEGJL@frexp?$AA@ 100d855c     LIBCMTD:fpexcept.obj
 0002:00036564       ??_C@_03MJLDFKDL@_y0?$AA@  100d8564     LIBCMTD:fpexcept.obj
 0002:00036568       ??_C@_03NAKIGLHK@_y1?$AA@  100d8568     LIBCMTD:fpexcept.obj
 0002:0003656c       ??_C@_03ONILCKOB@_yn?$AA@  100d856c     LIBCMTD:fpexcept.obj
 0002:00036570       ??_C@_05JGDBENOH@_logb?$AA@ 100d8570     LIBCMTD:fpexcept.obj
 0002:00036578       ??_C@_0L@KDOEJCKC@_nextafter?$AA@ 100d8578     LIBCMTD:fpexcept.obj
 0002:00036584       ___dnames                  100d8584     LIBCMTD:timeset.obj
 0002:0003659c       ___mnames                  100d859c     LIBCMTD:timeset.obj
 0002:000365c4       ??_C@_1CI@MKJEHFPG@?$AA?$CI?$AA_?$AAD?$AAa?$AAy?$AAl?$AAi?$AAg?$AAh?$AAt?$AA?5?$AA?$CB?$AA?$DN?$AA?5?$AAN?$AAU?$AAL?$AAL?$AA?$CJ?$AA?$AA@ 100d85c4     LIBCMTD:timeset.obj
 0002:000365f0       ??_C@_1FA@KOPEOCAM@?$AAf?$AA?3?$AA?2?$AAd?$AAd?$AA?2?$AAv?$AAc?$AAt?$AAo?$AAo?$AAl?$AAs?$AA?2?$AAc?$AAr?$AAt?$AA?2?$AAc?$AAr?$AAt?$AAw?$AA3?$AA2?$AA?2?$AAt?$AAi?$AAm?$AAe?$AA?2?$AAt?$AAi@ 100d85f0     LIBCMTD:timeset.obj
 0002:00036640       ??_C@_1BM@FIMHBHEB@?$AA_?$AAg?$AAe?$AAt?$AA_?$AAd?$AAa?$AAy?$AAl?$AAi?$AAg?$AAh?$AAt?$AA?$AA@ 100d8640     LIBCMTD:timeset.obj
 0002:00036660       ??_C@_1EC@PKDJPAAB@?$AA?$CI?$AA_?$AAD?$AAa?$AAy?$AAl?$AAi?$AAg?$AAh?$AAt?$AA_?$AAs?$AAa?$AAv?$AAi?$AAn?$AAg?$AAs?$AA_?$AAb?$AAi?$AAa?$AAs?$AA?5?$AA?$CB?$AA?$DN?$AA?5?$AAN?$AAU?$AAL?$AAL?$AA?$CJ@ 100d8660     LIBCMTD:timeset.obj
 0002:000366a4       ??_C@_1BK@EMODDHEE@?$AA_?$AAg?$AAe?$AAt?$AA_?$AAd?$AAs?$AAt?$AAb?$AAi?$AAa?$AAs?$AA?$AA@ 100d86a4     LIBCMTD:timeset.obj
 0002:000366c0       ??_C@_1CI@PODJJGAL@?$AA?$CI?$AA_?$AAT?$AAi?$AAm?$AAe?$AAz?$AAo?$AAn?$AAe?$AA?5?$AA?$CB?$AA?$DN?$AA?5?$AAN?$AAU?$AAL?$AAL?$AA?$CJ?$AA?$AA@ 100d86c0     LIBCMTD:timeset.obj
 0002:000366e8       ??_C@_1BM@MGEAKPEJ@?$AA_?$AAg?$AAe?$AAt?$AA_?$AAt?$AAi?$AAm?$AAe?$AAz?$AAo?$AAn?$AAe?$AA?$AA@ 100d86e8     LIBCMTD:timeset.obj
 0002:00036708       ??_C@_1FC@NBJCLAE@?$AAf?$AA?3?$AA?2?$AAd?$AAd?$AA?2?$AAv?$AAc?$AAt?$AAo?$AAo?$AAl?$AAs?$AA?2?$AAc?$AAr?$AAt?$AA?2?$AAc?$AAr?$AAt?$AAw?$AA3?$AA2?$AA?2?$AAt?$AAi?$AAm?$AAe?$AA?2?$AAg?$AAm@ 100d8708     LIBCMTD:gmtime64.obj
 0002:0003675c       ??_C@_1BI@BFNFPMLP@?$AA_?$AAg?$AAm?$AAt?$AAi?$AAm?$AAe?$AA6?$AA4?$AA_?$AAs?$AA?$AA@ 100d875c     LIBCMTD:gmtime64.obj
 0002:00036774       ??_C@_1CC@FPMHPAM@?$AA?$CI?$AA?5?$AAt?$AAi?$AAm?$AAp?$AA?5?$AA?$CB?$AA?$DN?$AA?5?$AAN?$AAU?$AAL?$AAL?$AA?5?$AA?$CJ?$AA?$AA@ 100d8774     LIBCMTD:gmtime64.obj
 0002:00036798       ??_C@_1EM@OKECDHDE@?$AAf?$AA?3?$AA?2?$AAd?$AAd?$AA?2?$AAv?$AAc?$AAt?$AAo?$AAo?$AAl?$AAs?$AA?2?$AAc?$AAr?$AAt?$AA?2?$AAc?$AAr?$AAt?$AAw?$AA3?$AA2?$AA?2?$AAt?$AAi?$AAm?$AAe?$AA?2?$AAt?$AAz@ 100d8798     LIBCMTD:tzset.obj
 0002:000367e4       ??_C@_1BM@IIODHMJC@?$AA_?$AAt?$AAz?$AAs?$AAe?$AAt?$AA_?$AAn?$AAo?$AAl?$AAo?$AAc?$AAk?$AA?$AA@ 100d87e4     LIBCMTD:tzset.obj
 0002:00036800       ??_C@_02CLFPBFFP@TZ?$AA@   100d8800     LIBCMTD:tzset.obj
 0002:00036804       ??_C@_0CG@LOFJMIGF@f?3?2dd?2vctools?2crt?2crtw32?2time?2tz@ 100d8804     LIBCMTD:tzset.obj
 0002:00036830       ??_C@_1EK@MCAIMDPB@?$AAs?$AAt?$AAr?$AAc?$AAp?$AAy?$AA_?$AAs?$AA?$CI?$AAl?$AAa?$AAs?$AAt?$AAT?$AAZ?$AA?0?$AA?5?$AAs?$AAt?$AAr?$AAl?$AAe?$AAn?$AA?$CI?$AAT?$AAZ?$AA?$CJ?$AA?5?$AA?$CL?$AA?5?$AA1?$AA?0@ 100d8830     LIBCMTD:tzset.obj
 0002:00036880       ??_C@_1EA@FIJBKALB@?$AAs?$AAt?$AAr?$AAn?$AAc?$AAp?$AAy?$AA_?$AAs?$AA?$CI?$AAt?$AAz?$AAn?$AAa?$AAm?$AAe?$AA?$FL?$AA0?$AA?$FN?$AA?0?$AA?5?$AA6?$AA4?$AA?0?$AA?5?$AAT?$AAZ?$AA?0?$AA?5?$AA3?$AA?$CJ?$AA?$AA@ 100d8880     LIBCMTD:tzset.obj
 0002:000368c0       ??_C@_1EA@GEPBEDLJ@?$AAs?$AAt?$AAr?$AAn?$AAc?$AAp?$AAy?$AA_?$AAs?$AA?$CI?$AAt?$AAz?$AAn?$AAa?$AAm?$AAe?$AA?$FL?$AA1?$AA?$FN?$AA?0?$AA?5?$AA6?$AA4?$AA?0?$AA?5?$AAT?$AAZ?$AA?0?$AA?5?$AA3?$AA?$CJ?$AA?$AA@ 100d88c0     LIBCMTD:tzset.obj
 0002:00036900       ??_C@_1BA@GOCKIDGO@?$AAc?$AAv?$AAt?$AAd?$AAa?$AAt?$AAe?$AA?$AA@ 100d8900     LIBCMTD:tzset.obj
 0002:00036910       ??_C@_1CA@GOLIIEDM@?$AA_?$AAi?$AAs?$AAi?$AAn?$AAd?$AAs?$AAt?$AA_?$AAn?$AAo?$AAl?$AAo?$AAc?$AAk?$AA?$AA@ 100d8910     LIBCMTD:tzset.obj
 0002:00036930       ??_C@_1FC@PFMLEHKI@?$AA?$CI?$AA?$CI?$AA_?$AAD?$AAs?$AAt?$AA?$CJ?$AA?$CJ?$AA?5?$AA?$CB?$AA?$DN?$AA?5?$AAN?$AAU?$AAL?$AAL?$AA?5?$AA?$CG?$AA?$CG?$AA?5?$AA?$CI?$AA?$CI?$AA_?$AAS?$AAi?$AAz?$AAe?$AAI?$AAn?$AAW?$AAo?$AAr@ 100d8930     LIBCMTD:wcscat_s.obj
 0002:00036988       ??_C@_1FA@EDIAPAPE@?$AAf?$AA?3?$AA?2?$AAd?$AAd?$AA?2?$AAv?$AAc?$AAt?$AAo?$AAo?$AAl?$AAs?$AA?2?$AAc?$AAr?$AAt?$AA?2?$AAc?$AAr?$AAt?$AAw?$AA3?$AA2?$AA?2?$AAh?$AA?2?$AAt?$AAc?$AAs?$AAc?$AAa@ 100d8988     LIBCMTD:wcscat_s.obj
 0002:000369d8       ??_C@_1BC@PLIEPKPJ@?$AAw?$AAc?$AAs?$AAc?$AAa?$AAt?$AA_?$AAs?$AA?$AA@ 100d89d8     LIBCMTD:wcscat_s.obj
 0002:000369ec       ??_C@_1DM@FHLMIEG@?$AAS?$AAt?$AAr?$AAi?$AAn?$AAg?$AA?5?$AAi?$AAs?$AA?5?$AAn?$AAo?$AAt?$AA?5?$AAn?$AAu?$AAl?$AAl?$AA?5?$AAt?$AAe?$AAr?$AAm?$AAi?$AAn?$AAa?$AAt?$AAe?$AAd?$AA?$AA@ 100d89ec     LIBCMTD:wcscat_s.obj
 0002:00036a28       ??_C@_1FA@MJKDNFFB@?$AA?$CI?$AAL?$AA?$CC?$AAS?$AAt?$AAr?$AAi?$AAn?$AAg?$AA?5?$AAi?$AAs?$AA?5?$AAn?$AAo?$AAt?$AA?5?$AAn?$AAu?$AAl?$AAl?$AA?5?$AAt?$AAe?$AAr?$AAm?$AAi?$AAn?$AAa?$AAt?$AAe?$AAd@ 100d8a28     LIBCMTD:wcscat_s.obj
 0002:00036a78       ??_C@_1FA@ILDLFIFE@?$AAf?$AA?3?$AA?2?$AAd?$AAd?$AA?2?$AAv?$AAc?$AAt?$AAo?$AAo?$AAl?$AAs?$AA?2?$AAc?$AAr?$AAt?$AA?2?$AAc?$AAr?$AAt?$AAw?$AA3?$AA2?$AA?2?$AAh?$AA?2?$AAt?$AAc?$AAs?$AAc?$AAp@ 100d8a78     LIBCMTD:wcscpy_s.obj
 0002:00036ac8       ??_C@_1BC@KIONAFPO@?$AAw?$AAc?$AAs?$AAc?$AAp?$AAy?$AA_?$AAs?$AA?$AA@ 100d8ac8     LIBCMTD:wcscpy_s.obj
 0002:00036ae0       ??_C@_1FC@HNAKBBDB@?$AAf?$AA?3?$AA?2?$AAd?$AAd?$AA?2?$AAv?$AAc?$AAt?$AAo?$AAo?$AAl?$AAs?$AA?2?$AAc?$AAr?$AAt?$AA?2?$AAc?$AAr?$AAt?$AAw?$AA3?$AA2?$AA?2?$AAh?$AA?2?$AAt?$AAc?$AAs?$AAn?$AAc@ 100d8ae0     LIBCMTD:wcsncat_s.obj
 0002:00036b34       ??_C@_1BE@KPKIKKCF@?$AAw?$AAc?$AAs?$AAn?$AAc?$AAa?$AAt?$AA_?$AAs?$AA?$AA@ 100d8b34     LIBCMTD:wcsncat_s.obj
 0002:00036b48       ??_C@_1BI@BGOHAHKC@?$AAm?$AAs?$AAc?$AAo?$AAr?$AAe?$AAe?$AA?4?$AAd?$AAl?$AAl?$AA?$AA@ 100d8b48     LIBCMTD:crt0dat.obj
 0002:00036b60       ??_C@_0P@MIGLKIOC@CorExitProcess?$AA@ 100d8b60     LIBCMTD:crt0dat.obj
 0002:00036b70       ??_C@_1FG@MHCBBJEK@?$AAf?$AA?3?$AA?2?$AAd?$AAd?$AA?2?$AAv?$AAc?$AAt?$AAo?$AAo?$AAl?$AAs?$AA?2?$AAc?$AAr?$AAt?$AA?2?$AAc?$AAr?$AAt?$AAw?$AA3?$AA2?$AA?2?$AAs?$AAt?$AAa?$AAr?$AAt?$AAu?$AAp@ 100d8b70     LIBCMTD:crt0dat.obj
 0002:00036bc8       ??_C@_1BK@DJNILIMN@?$AAp?$AAa?$AAt?$AAh?$AA?5?$AA?$CB?$AA?$DN?$AA?5?$AAN?$AAU?$AAL?$AAL?$AA?$AA@ 100d8bc8     LIBCMTD:crt0dat.obj
 0002:00036be4       ??_C@_1DG@KANBJOCK@?$AA_?$AA_?$AAc?$AAo?$AAp?$AAy?$AA_?$AAp?$AAa?$AAt?$AAh?$AA_?$AAt?$AAo?$AA_?$AAw?$AAi?$AAd?$AAe?$AA_?$AAs?$AAt?$AAr?$AAi?$AAn?$AAg?$AA?$AA@ 100d8be4     LIBCMTD:crt0dat.obj
 0002:00036c1c       ??_C@_1CA@BGODLPHH@?$AAo?$AAu?$AAt?$AAP?$AAa?$AAt?$AAh?$AA?5?$AA?$CB?$AA?$DN?$AA?5?$AAN?$AAU?$AAL?$AAL?$AA?$AA@ 100d8c1c     LIBCMTD:crt0dat.obj
 0002:00036c3c       ??_C@_0CL@LMMOJFEN@f?3?2dd?2vctools?2crt?2crtw32?2startup@ 100d8c3c     LIBCMTD:crt0dat.obj
 0002:00036c68       ??_C@_1DE@BCNCAIK@?$AA?$CI?$AA?$CC?$AAI?$AAn?$AAv?$AAa?$AAl?$AAi?$AAd?$AA?5?$AAe?$AAr?$AAr?$AAo?$AAr?$AA_?$AAm?$AAo?$AAd?$AAe?$AA?$CC?$AA?0?$AA?5?$AA0?$AA?$CJ?$AA?$AA@ 100d8c68     LIBCMTD:errmode.obj
 0002:00036ca0       ??_C@_1FA@PBBGNIFD@?$AAf?$AA?3?$AA?2?$AAd?$AAd?$AA?2?$AAv?$AAc?$AAt?$AAo?$AAo?$AAl?$AAs?$AA?2?$AAc?$AAr?$AAt?$AA?2?$AAc?$AAr?$AAt?$AAw?$AA3?$AA2?$AA?2?$AAm?$AAi?$AAs?$AAc?$AA?2?$AAe?$AAr@ 100d8ca0     LIBCMTD:errmode.obj
 0002:00036cf0       ??_C@_1CA@LFDHAMEM@?$AA_?$AAs?$AAe?$AAt?$AA_?$AAe?$AAr?$AAr?$AAo?$AAr?$AA_?$AAm?$AAo?$AAd?$AAe?$AA?$AA@ 100d8cf0     LIBCMTD:errmode.obj
 0002:00036d10       ??_C@_1BI@ICGGMGLK@?$AAb?$AAu?$AAf?$AA?5?$AA?$CB?$AA?$DN?$AA?5?$AAN?$AAU?$AAL?$AAL?$AA?$AA@ 100d8d10     LIBCMTD:xtows.obj
 0002:00036d28       ??_C@_1FA@LEFFAILN@?$AAf?$AA?3?$AA?2?$AAd?$AAd?$AA?2?$AAv?$AAc?$AAt?$AAo?$AAo?$AAl?$AAs?$AA?2?$AAc?$AAr?$AAt?$AA?2?$AAc?$AAr?$AAt?$AAw?$AA3?$AA2?$AA?2?$AAc?$AAo?$AAn?$AAv?$AAe?$AAr?$AAt@ 100d8d28     LIBCMTD:xtows.obj
 0002:00036d78       ??_C@_1O@NCBFODOE@?$AAx?$AAt?$AAo?$AAw?$AA_?$AAs?$AA?$AA@ 100d8d78     LIBCMTD:xtows.obj
 0002:00036d88       ??_C@_1CC@JNJFIMGE@?$AAs?$AAi?$AAz?$AAe?$AAI?$AAn?$AAT?$AAC?$AAh?$AAa?$AAr?$AAs?$AA?5?$AA?$DO?$AA?5?$AA0?$AA?$AA@ 100d8d88     LIBCMTD:xtows.obj
 0002:00036db0       ??_C@_1FA@MKGGAGEI@?$AAs?$AAi?$AAz?$AAe?$AAI?$AAn?$AAT?$AAC?$AAh?$AAa?$AAr?$AAs?$AA?5?$AA?$DO?$AA?5?$AA?$CI?$AAs?$AAi?$AAz?$AAe?$AA_?$AAt?$AA?$CJ?$AA?$CI?$AAi?$AAs?$AA_?$AAn?$AAe?$AAg?$AA?5?$AA?$DP@ 100d8db0     LIBCMTD:xtows.obj
 0002:00036e00       ??_C@_1DE@PCJGDBBD@?$AA2?$AA?5?$AA?$DM?$AA?$DN?$AA?5?$AAr?$AAa?$AAd?$AAi?$AAx?$AA?5?$AA?$CG?$AA?$CG?$AA?5?$AAr?$AAa?$AAd?$AAi?$AAx?$AA?5?$AA?$DM?$AA?$DN?$AA?5?$AA3?$AA6?$AA?$AA@ 100d8e00     LIBCMTD:xtows.obj
 0002:00036e34       ??_C@_1CM@HABGDNLJ@?$AAl?$AAe?$AAn?$AAg?$AAt?$AAh?$AA?5?$AA?$DM?$AA?5?$AAs?$AAi?$AAz?$AAe?$AAI?$AAn?$AAT?$AAC?$AAh?$AAa?$AAr?$AAs?$AA?$AA@ 100d8e34     LIBCMTD:xtows.obj
 0002:00036e60       ??_C@_1FC@NDJMHBOK@?$AAf?$AA?3?$AA?2?$AAd?$AAd?$AA?2?$AAv?$AAc?$AAt?$AAo?$AAo?$AAl?$AAs?$AA?2?$AAc?$AAr?$AAt?$AA?2?$AAc?$AAr?$AAt?$AAw?$AA3?$AA2?$AA?2?$AAs?$AAt?$AAd?$AAi?$AAo?$AA?2?$AAs@ 100d8e60     LIBCMTD:setvbuf.obj
 0002:00036eb4       ??_C@_1BA@OGODIODK@?$AAs?$AAe?$AAt?$AAv?$AAb?$AAu?$AAf?$AA?$AA@ 100d8eb4     LIBCMTD:setvbuf.obj
 0002:00036ec8       ??_C@_1HC@CBFEDAGG@?$AA?$CI?$AAt?$AAy?$AAp?$AAe?$AA?5?$AA?$DN?$AA?$DN?$AA?5?$AA_?$AAI?$AAO?$AAN?$AAB?$AAF?$AA?$CJ?$AA?5?$AA?$HM?$AA?$HM?$AA?5?$AA?$CI?$AAt?$AAy?$AAp?$AAe?$AA?5?$AA?$DN?$AA?$DN?$AA?5?$AA_?$AAI?$AAO@ 100d8ec8     LIBCMTD:setvbuf.obj
 0002:00036f40       ??_C@_1EG@IJNJIDNB@?$AA?$CI?$AA?$CI?$AA2?$AA?5?$AA?$DM?$AA?$DN?$AA?5?$AAs?$AAi?$AAz?$AAe?$AA?$CJ?$AA?5?$AA?$CG?$AA?$CG?$AA?5?$AA?$CI?$AAs?$AAi?$AAz?$AAe?$AA?5?$AA?$DM?$AA?$DN?$AA?5?$AAI?$AAN?$AAT?$AA_?$AAM?$AAA?$AAX@ 100d8f40     LIBCMTD:setvbuf.obj
 0002:00036f88       ??_C@_0CJ@IACMAHEB@f?3?2dd?2vctools?2crt?2crtw32?2stdio?2s@ 100d8f88     LIBCMTD:setvbuf.obj
 0002:00036fb8       ??_C@_1FE@OFLIMJDE@?$AAf?$AA?3?$AA?2?$AAd?$AAd?$AA?2?$AAv?$AAc?$AAt?$AAo?$AAo?$AAl?$AAs?$AA?2?$AAc?$AAr?$AAt?$AA?2?$AAc?$AAr?$AAt?$AAw?$AA3?$AA2?$AA?2?$AAs?$AAt?$AAd?$AAi?$AAo?$AA?2?$AAf@ 100d8fb8     LIBCMTD:fwprintf.obj
 0002:0003700c       ??_C@_1BC@BHLPNJBO@?$AAf?$AAw?$AAp?$AAr?$AAi?$AAn?$AAt?$AAf?$AA?$AA@ 100d900c     LIBCMTD:fwprintf.obj
 0002:00037020       ??_C@_1FE@DHCMIOFC@?$AAf?$AA?3?$AA?2?$AAd?$AAd?$AA?2?$AAv?$AAc?$AAt?$AAo?$AAo?$AAl?$AAs?$AA?2?$AAc?$AAr?$AAt?$AA?2?$AAc?$AAr?$AAt?$AAw?$AA3?$AA2?$AA?2?$AAs?$AAt?$AAd?$AAi?$AAo?$AA?2?$AAv@ 100d9020     LIBCMTD:vswprnc.obj
 0002:00037074       ??_C@_1CE@IGKFIJFD@?$AA_?$AAv?$AAs?$AAw?$AAp?$AAr?$AAi?$AAn?$AAt?$AAf?$AA_?$AAh?$AAe?$AAl?$AAp?$AAe?$AAr?$AA?$AA@ 100d9074     LIBCMTD:vswprnc.obj
 0002:00037098       ??_C@_1EE@MPCHJFGP@?$AAs?$AAt?$AAr?$AAi?$AAn?$AAg?$AA?5?$AA?$CB?$AA?$DN?$AA?5?$AAN?$AAU?$AAL?$AAL?$AA?5?$AA?$CG?$AA?$CG?$AA?5?$AAs?$AAi?$AAz?$AAe?$AAI?$AAn?$AAW?$AAo?$AAr?$AAd?$AAs?$AA?5?$AA?$DO?$AA?5@ 100d9098     LIBCMTD:vswprnc.obj
 0002:000370dc       ??_C@_1CA@BKFKMJFF@?$AA_?$AAv?$AAs?$AAn?$AAw?$AAp?$AAr?$AAi?$AAn?$AAt?$AAf?$AA_?$AAs?$AA_?$AAl?$AA?$AA@ 100d90dc     LIBCMTD:vswprnc.obj
 0002:000370fc       ??_C@_1DO@MLNEDKGB@?$AA?$CI?$AA?$CC?$AAI?$AAn?$AAv?$AAa?$AAl?$AAi?$AAd?$AA?5?$AAs?$AAi?$AAg?$AAn?$AAa?$AAl?$AA?5?$AAo?$AAr?$AA?5?$AAe?$AAr?$AAr?$AAo?$AAr?$AA?$CC?$AA?0?$AA?5?$AA0?$AA?$CJ?$AA?$AA@ 100d90fc     LIBCMTD:winsig.obj
 0002:00037140       ??_C@_1EO@BCKLPCCI@?$AAf?$AA?3?$AA?2?$AAd?$AAd?$AA?2?$AAv?$AAc?$AAt?$AAo?$AAo?$AAl?$AAs?$AA?2?$AAc?$AAr?$AAt?$AA?2?$AAc?$AAr?$AAt?$AAw?$AA3?$AA2?$AA?2?$AAm?$AAi?$AAs?$AAc?$AA?2?$AAw?$AAi@ 100d9140     LIBCMTD:winsig.obj
 0002:00037190       ??_C@_1M@DMJEIKHL@?$AAr?$AAa?$AAi?$AAs?$AAe?$AA?$AA@ 100d9190     LIBCMTD:winsig.obj
 0002:0003719c       ??_C@_1BG@GOEBHBDC@?$AAU?$AAS?$AAE?$AAR?$AA3?$AA2?$AA?4?$AAD?$AAL?$AAL?$AA?$AA@ 100d919c     LIBCMTD:crtmboxw.obj
 0002:000371b4       ??_C@_0M@DLDCCGNP@MessageBoxW?$AA@ 100d91b4     LIBCMTD:crtmboxw.obj
 0002:000371c0       ??_C@_0BA@HNOPNCHB@GetActiveWindow?$AA@ 100d91c0     LIBCMTD:crtmboxw.obj
 0002:000371d0       ??_C@_0BD@HHGDFDBJ@GetLastActivePopup?$AA@ 100d91d0     LIBCMTD:crtmboxw.obj
 0002:000371e4       ??_C@_0BK@DEKFELLI@GetUserObjectInformationW?$AA@ 100d91e4     LIBCMTD:crtmboxw.obj
 0002:00037200       ??_C@_0BI@DFKBFLJE@GetProcessWindowStation?$AA@ 100d9200     LIBCMTD:crtmboxw.obj
 0002:000372d0       ??_C@_1FK@PGACCAFB@?$AAR?$AA6?$AA0?$AA0?$AA2?$AA?$AN?$AA?6?$AA?9?$AA?5?$AAf?$AAl?$AAo?$AAa?$AAt?$AAi?$AAn?$AAg?$AA?5?$AAp?$AAo?$AAi?$AAn?$AAt?$AA?5?$AAs?$AAu?$AAp?$AAp?$AAo?$AAr?$AAt?$AA?5@ 100d92d0     LIBCMTD:crt0msg.obj
 0002:00037330       ??_C@_1FE@LLNEDJMD@?$AAR?$AA6?$AA0?$AA0?$AA8?$AA?$AN?$AA?6?$AA?9?$AA?5?$AAn?$AAo?$AAt?$AA?5?$AAe?$AAn?$AAo?$AAu?$AAg?$AAh?$AA?5?$AAs?$AAp?$AAa?$AAc?$AAe?$AA?5?$AAf?$AAo?$AAr?$AA?5?$AAa?$AAr@ 100d9330     LIBCMTD:crt0msg.obj
 0002:00037388       ??_C@_1FI@HONFMGBI@?$AAR?$AA6?$AA0?$AA0?$AA9?$AA?$AN?$AA?6?$AA?9?$AA?5?$AAn?$AAo?$AAt?$AA?5?$AAe?$AAn?$AAo?$AAu?$AAg?$AAh?$AA?5?$AAs?$AAp?$AAa?$AAc?$AAe?$AA?5?$AAf?$AAo?$AAr?$AA?5?$AAe?$AAn@ 100d9388     LIBCMTD:crt0msg.obj
 0002:000373e0       ??_C@_1EG@BEHAGFJD@?$AAR?$AA6?$AA0?$AA1?$AA0?$AA?$AN?$AA?6?$AA?9?$AA?5?$AAa?$AAb?$AAo?$AAr?$AAt?$AA?$CI?$AA?$CJ?$AA?5?$AAh?$AAa?$AAs?$AA?5?$AAb?$AAe?$AAe?$AAn?$AA?5?$AAc?$AAa?$AAl?$AAl?$AAe?$AAd@ 100d93e0     LIBCMTD:crt0msg.obj
 0002:00037428       ??_C@_1FI@LOGNIKDM@?$AAR?$AA6?$AA0?$AA1?$AA6?$AA?$AN?$AA?6?$AA?9?$AA?5?$AAn?$AAo?$AAt?$AA?5?$AAe?$AAn?$AAo?$AAu?$AAg?$AAh?$AA?5?$AAs?$AAp?$AAa?$AAc?$AAe?$AA?5?$AAf?$AAo?$AAr?$AA?5?$AAt?$AAh@ 100d9428     LIBCMTD:crt0msg.obj
 0002:00037480       ??_C@_1FK@BEOGODMC@?$AAR?$AA6?$AA0?$AA1?$AA7?$AA?$AN?$AA?6?$AA?9?$AA?5?$AAu?$AAn?$AAe?$AAx?$AAp?$AAe?$AAc?$AAt?$AAe?$AAd?$AA?5?$AAm?$AAu?$AAl?$AAt?$AAi?$AAt?$AAh?$AAr?$AAe?$AAa?$AAd?$AA?5@ 100d9480     LIBCMTD:crt0msg.obj
 0002:000374e0       ??_C@_1EC@JIBHAOPH@?$AAR?$AA6?$AA0?$AA1?$AA8?$AA?$AN?$AA?6?$AA?9?$AA?5?$AAu?$AAn?$AAe?$AAx?$AAp?$AAe?$AAc?$AAt?$AAe?$AAd?$AA?5?$AAh?$AAe?$AAa?$AAp?$AA?5?$AAe?$AAr?$AAr?$AAo?$AAr?$AA?$AN?$AA?6@ 100d94e0     LIBCMTD:crt0msg.obj
 0002:00037528       ??_C@_1FC@ECHBIFBC@?$AAR?$AA6?$AA0?$AA1?$AA9?$AA?$AN?$AA?6?$AA?9?$AA?5?$AAu?$AAn?$AAa?$AAb?$AAl?$AAe?$AA?5?$AAt?$AAo?$AA?5?$AAo?$AAp?$AAe?$AAn?$AA?5?$AAc?$AAo?$AAn?$AAs?$AAo?$AAl?$AAe?$AA?5@ 100d9528     LIBCMTD:crt0msg.obj
 0002:00037580       ??_C@_1GK@FHCKBEFA@?$AAR?$AA6?$AA0?$AA2?$AA4?$AA?$AN?$AA?6?$AA?9?$AA?5?$AAn?$AAo?$AAt?$AA?5?$AAe?$AAn?$AAo?$AAu?$AAg?$AAh?$AA?5?$AAs?$AAp?$AAa?$AAc?$AAe?$AA?5?$AAf?$AAo?$AAr?$AA?5?$AA_?$AAo@ 100d9580     LIBCMTD:crt0msg.obj
 0002:000375f0       ??_C@_1EM@MAADIHMB@?$AAR?$AA6?$AA0?$AA2?$AA5?$AA?$AN?$AA?6?$AA?9?$AA?5?$AAp?$AAu?$AAr?$AAe?$AA?5?$AAv?$AAi?$AAr?$AAt?$AAu?$AAa?$AAl?$AA?5?$AAf?$AAu?$AAn?$AAc?$AAt?$AAi?$AAo?$AAn?$AA?5?$AAc@ 100d95f0     LIBCMTD:crt0msg.obj
 0002:00037640       ??_C@_1GK@MCAAGJMO@?$AAR?$AA6?$AA0?$AA2?$AA6?$AA?$AN?$AA?6?$AA?9?$AA?5?$AAn?$AAo?$AAt?$AA?5?$AAe?$AAn?$AAo?$AAu?$AAg?$AAh?$AA?5?$AAs?$AAp?$AAa?$AAc?$AAe?$AA?5?$AAf?$AAo?$AAr?$AA?5?$AAs?$AAt@ 100d9640     LIBCMTD:crt0msg.obj
 0002:000376b0       ??_C@_1GK@MFGOKLAG@?$AAR?$AA6?$AA0?$AA2?$AA7?$AA?$AN?$AA?6?$AA?9?$AA?5?$AAn?$AAo?$AAt?$AA?5?$AAe?$AAn?$AAo?$AAu?$AAg?$AAh?$AA?5?$AAs?$AAp?$AAa?$AAc?$AAe?$AA?5?$AAf?$AAo?$AAr?$AA?5?$AAl?$AAo@ 100d96b0     LIBCMTD:crt0msg.obj
 0002:00037720       ??_C@_1EK@HHFLMAOL@?$AAR?$AA6?$AA0?$AA2?$AA8?$AA?$AN?$AA?6?$AA?9?$AA?5?$AAu?$AAn?$AAa?$AAb?$AAl?$AAe?$AA?5?$AAt?$AAo?$AA?5?$AAi?$AAn?$AAi?$AAt?$AAi?$AAa?$AAl?$AAi?$AAz?$AAe?$AA?5?$AAh?$AAe@ 100d9720     LIBCMTD:crt0msg.obj
 0002:0003776c       ??_C@_1DO@BMFCDCD@?$AAR?$AA6?$AA0?$AA3?$AA0?$AA?$AN?$AA?6?$AA?9?$AA?5?$AAC?$AAR?$AAT?$AA?5?$AAn?$AAo?$AAt?$AA?5?$AAi?$AAn?$AAi?$AAt?$AAi?$AAa?$AAl?$AAi?$AAz?$AAe?$AAd?$AA?$AN?$AA?6?$AA?$AA@ 100d976c     LIBCMTD:crt0msg.obj
 0002:000377b0       ??_C@_1MG@ENCOOIDF@?$AAR?$AA6?$AA0?$AA3?$AA1?$AA?$AN?$AA?6?$AA?9?$AA?5?$AAA?$AAt?$AAt?$AAe?$AAm?$AAp?$AAt?$AA?5?$AAt?$AAo?$AA?5?$AAi?$AAn?$AAi?$AAt?$AAi?$AAa?$AAl?$AAi?$AAz?$AAe?$AA?5?$AAt@ 100d97b0     LIBCMTD:crt0msg.obj
 0002:00037878       ??_C@_1GG@GOPILAJP@?$AAR?$AA6?$AA0?$AA3?$AA2?$AA?$AN?$AA?6?$AA?9?$AA?5?$AAn?$AAo?$AAt?$AA?5?$AAe?$AAn?$AAo?$AAu?$AAg?$AAh?$AA?5?$AAs?$AAp?$AAa?$AAc?$AAe?$AA?5?$AAf?$AAo?$AAr?$AA?5?$AAl?$AAo@ 100d9878     LIBCMTD:crt0msg.obj
 0002:000378e0       ??_C@_1BOO@KGEDBGAJ@?$AAR?$AA6?$AA0?$AA3?$AA3?$AA?$AN?$AA?6?$AA?9?$AA?5?$AAA?$AAt?$AAt?$AAe?$AAm?$AAp?$AAt?$AA?5?$AAt?$AAo?$AA?5?$AAu?$AAs?$AAe?$AA?5?$AAM?$AAS?$AAI?$AAL?$AA?5?$AAc?$AAo?$AAd@ 100d98e0     LIBCMTD:crt0msg.obj
 0002:00037ad0       ??_C@_1GG@MKFPEKFO@?$AAR?$AA6?$AA0?$AA3?$AA4?$AA?$AN?$AA?6?$AA?9?$AA?5?$AAi?$AAn?$AAc?$AAo?$AAn?$AAs?$AAi?$AAs?$AAt?$AAe?$AAn?$AAt?$AA?5?$AAo?$AAn?$AAe?$AAx?$AAi?$AAt?$AA?5?$AAb?$AAe?$AAg@ 100d9ad0     LIBCMTD:crt0msg.obj
 0002:00037b38       ??_C@_1BO@BFCDCGC@?$AAD?$AAO?$AAM?$AAA?$AAI?$AAN?$AA?5?$AAe?$AAr?$AAr?$AAo?$AAr?$AA?$AN?$AA?6?$AA?$AA@ 100d9b38     LIBCMTD:crt0msg.obj
 0002:00037b58       ??_C@_1BK@KMOMNAAI@?$AAS?$AAI?$AAN?$AAG?$AA?5?$AAe?$AAr?$AAr?$AAo?$AAr?$AA?$AN?$AA?6?$AA?$AA@ 100d9b58     LIBCMTD:crt0msg.obj
 0002:00037b74       ??_C@_1BM@JBBEPPHI@?$AAT?$AAL?$AAO?$AAS?$AAS?$AA?5?$AAe?$AAr?$AAr?$AAo?$AAr?$AA?$AN?$AA?6?$AA?$AA@ 100d9b74     LIBCMTD:crt0msg.obj
 0002:00037b90       ??_C@_15JNBOKNOG@?$AA?$AN?$AA?6?$AA?$AA@ 100d9b90     LIBCMTD:crt0msg.obj
 0002:00037b98       ??_C@_1BO@BKOMIGKJ@?$AAr?$AAu?$AAn?$AAt?$AAi?$AAm?$AAe?$AA?5?$AAe?$AAr?$AAr?$AAo?$AAr?$AA?5?$AA?$AA@ 100d9b98     LIBCMTD:crt0msg.obj
 0002:00037bb8       ??_C@_1FG@ILOHEEMG@?$AAf?$AA?3?$AA?2?$AAd?$AAd?$AA?2?$AAv?$AAc?$AAt?$AAo?$AAo?$AAl?$AAs?$AA?2?$AAc?$AAr?$AAt?$AA?2?$AAc?$AAr?$AAt?$AAw?$AA3?$AA2?$AA?2?$AAs?$AAt?$AAa?$AAr?$AAt?$AAu?$AAp@ 100d9bb8     LIBCMTD:crt0msg.obj
 0002:00037c10       ??_C@_1BI@EAHMBMEC@?$AA_?$AAN?$AAM?$AAS?$AAG?$AA_?$AAW?$AAR?$AAI?$AAT?$AAE?$AA?$AA@ 100d9c10     LIBCMTD:crt0msg.obj
 0002:00037c28       ??_C@_1KO@BKLCKNFL@?$AAw?$AAc?$AAs?$AAc?$AAp?$AAy?$AA_?$AAs?$AA?$CI?$AAo?$AAu?$AAt?$AAm?$AAs?$AAg?$AA?0?$AA?5?$AA?$CI?$AAs?$AAi?$AAz?$AAe?$AAo?$AAf?$AA?$CI?$AAo?$AAu?$AAt?$AAm?$AAs?$AAg?$AA?$CJ@ 100d9c28     LIBCMTD:crt0msg.obj
 0002:00037cd8       ??_C@_1DE@JNGNBFGO@?$AAR?$AAu?$AAn?$AAt?$AAi?$AAm?$AAe?$AA?5?$AAE?$AAr?$AAr?$AAo?$AAr?$AA?$CB?$AA?6?$AA?6?$AAP?$AAr?$AAo?$AAg?$AAr?$AAa?$AAm?$AA?3?$AA?5?$AA?$AA@ 100d9cd8     LIBCMTD:crt0msg.obj
 0002:00037d10       ??_C@_1HK@FJJNAABO@?$AAw?$AAc?$AAs?$AAc?$AAp?$AAy?$AA_?$AAs?$AA?$CI?$AAp?$AAr?$AAo?$AAg?$AAn?$AAa?$AAm?$AAe?$AA?0?$AA?5?$AAp?$AAr?$AAo?$AAg?$AAn?$AAa?$AAm?$AAe?$AA_?$AAs?$AAi?$AAz?$AAe@ 100d9d10     LIBCMTD:crt0msg.obj
 0002:00037d90       ??_C@_1HI@FLHKGEBE@?$AAw?$AAc?$AAs?$AAn?$AAc?$AAp?$AAy?$AA_?$AAs?$AA?$CI?$AAp?$AAc?$AAh?$AA?0?$AA?5?$AAp?$AAr?$AAo?$AAg?$AAn?$AAa?$AAm?$AAe?$AA_?$AAs?$AAi?$AAz?$AAe?$AA?5?$AA?9?$AA?5?$AA?$CI@ 100d9d90     LIBCMTD:crt0msg.obj
 0002:00037e08       ??_C@_1IA@DCJGKHFO@?$AAw?$AAc?$AAs?$AAc?$AAa?$AAt?$AA_?$AAs?$AA?$CI?$AAo?$AAu?$AAt?$AAm?$AAs?$AAg?$AA?0?$AA?5?$AA?$CI?$AAs?$AAi?$AAz?$AAe?$AAo?$AAf?$AA?$CI?$AAo?$AAu?$AAt?$AAm?$AAs?$AAg?$AA?$CJ@ 100d9e08     LIBCMTD:crt0msg.obj
 0002:00037e88       ??_C@_1IG@NMONDPP@?$AAw?$AAc?$AAs?$AAc?$AAa?$AAt?$AA_?$AAs?$AA?$CI?$AAo?$AAu?$AAt?$AAm?$AAs?$AAg?$AA?0?$AA?5?$AA?$CI?$AAs?$AAi?$AAz?$AAe?$AAo?$AAf?$AA?$CI?$AAo?$AAu?$AAt?$AAm?$AAs?$AAg?$AA?$CJ@ 100d9e88     LIBCMTD:crt0msg.obj
 0002:00037f10       __OP_ATAN2jmptab           100d9f10     LIBCMTD:87triga.obj
 0002:00037ff8       ??_C@_05EOHGHCHD@exp10?$AA@ 100d9ff8     LIBCMTD:libm_error.obj
 0002:00038000       ??_C@_1EG@OHONNKNN@?$AAf?$AA?3?$AA?2?$AAd?$AAd?$AA?2?$AAv?$AAc?$AAt?$AAo?$AAo?$AAl?$AAs?$AA?2?$AAc?$AAr?$AAt?$AA?2?$AAf?$AAp?$AAw?$AA3?$AA2?$AA?2?$AAc?$AAo?$AAn?$AAv?$AA?2?$AAc?$AAv?$AAt@ 100da000     LIBCMTD:cvt.obj
 0002:00038048       ??_C@_1BE@OLBNEILL@?$AA_?$AAc?$AAf?$AAt?$AAo?$AAe?$AA2?$AA_?$AAl?$AA?$AA@ 100da048     LIBCMTD:cvt.obj
 0002:0003805c       ??_C@_1CA@CBMNPEO@?$AAs?$AAi?$AAz?$AAe?$AAI?$AAn?$AAB?$AAy?$AAt?$AAe?$AAs?$AA?5?$AA?$DO?$AA?5?$AA0?$AA?$AA@ 100da05c     LIBCMTD:cvt.obj
 0002:00038080       ??_C@_1HE@NACBNDPP@?$AAs?$AAi?$AAz?$AAe?$AAI?$AAn?$AAB?$AAy?$AAt?$AAe?$AAs?$AA?5?$AA?$DO?$AA?5?$AA?$CI?$AAs?$AAi?$AAz?$AAe?$AA_?$AAt?$AA?$CJ?$AA?$CI?$AA3?$AA?5?$AA?$CL?$AA?5?$AA?$CI?$AAn?$AAd?$AAe?$AAc@ 100da080     LIBCMTD:cvt.obj
 0002:000380f8       ??_C@_1LE@EOIFGNCJ@?$AAs?$AAt?$AAr?$AAc?$AAp?$AAy?$AA_?$AAs?$AA?$CI?$AAp?$AA?0?$AA?5?$AA?$CI?$AAs?$AAi?$AAz?$AAe?$AAI?$AAn?$AAB?$AAy?$AAt?$AAe?$AAs?$AA?5?$AA?$DN?$AA?$DN?$AA?5?$AA?$CI?$AAs?$AAi?$AAz@ 100da0f8     LIBCMTD:cvt.obj
 0002:000381ac       ??_C@_05KLBDPFGC@e?$CL000?$AA@ 100da1ac     LIBCMTD:cvt.obj
 0002:000381b4       ??_C@_1BC@INKAPMHI@?$AA_?$AAc?$AAf?$AAt?$AAo?$AAe?$AA_?$AAl?$AA?$AA@ 100da1b4     LIBCMTD:cvt.obj
 0002:000381c8       ??_C@_1BC@JOKPCIC@?$AA_?$AAc?$AAf?$AAt?$AAo?$AAa?$AA_?$AAl?$AA?$AA@ 100da1c8     LIBCMTD:cvt.obj
 0002:000381e0       ??_C@_1FC@IKIMAMJB@?$AAs?$AAi?$AAz?$AAe?$AAI?$AAn?$AAB?$AAy?$AAt?$AAe?$AAs?$AA?5?$AA?$DO?$AA?5?$AA?$CI?$AAs?$AAi?$AAz?$AAe?$AA_?$AAt?$AA?$CJ?$AA?$CI?$AA1?$AA?5?$AA?$CL?$AA?5?$AA4?$AA?5?$AA?$CL?$AA?5?$AAn@ 100da1e0     LIBCMTD:cvt.obj
 0002:00038234       ??_C@_1BE@CKPDLI@?$AA_?$AAc?$AAf?$AAt?$AAo?$AAf?$AA2?$AA_?$AAl?$AA?$AA@ 100da234     LIBCMTD:cvt.obj
 0002:00038248       ??_C@_1BC@DCPPLJL@?$AA_?$AAc?$AAf?$AAt?$AAo?$AAf?$AA_?$AAl?$AA?$AA@ 100da248     LIBCMTD:cvt.obj
 0002:0003825c       ??_C@_1BC@MPIFPLAF@?$AA_?$AAc?$AAf?$AAt?$AAo?$AAg?$AA_?$AAl?$AA?$AA@ 100da25c     LIBCMTD:cvt.obj
 0002:00038270       ??_C@_1FI@JJOJLGLE@?$AAf?$AA?3?$AA?2?$AAd?$AAd?$AA?2?$AAv?$AAc?$AAt?$AAo?$AAo?$AAl?$AAs?$AA?2?$AAc?$AAr?$AAt?$AA?2?$AAc?$AAr?$AAt?$AAw?$AA3?$AA2?$AA?2?$AAs?$AAt?$AAa?$AAr?$AAt?$AAu?$AAp@ 100da270     LIBCMTD:fp8.obj
 0002:000382c8       ??_C@_1CK@JMKHCBEI@?$AA_?$AAs?$AAe?$AAt?$AAd?$AAe?$AAf?$AAa?$AAu?$AAl?$AAt?$AAp?$AAr?$AAe?$AAc?$AAi?$AAs?$AAi?$AAo?$AAn?$AA?$AA@ 100da2c8     LIBCMTD:fp8.obj
 0002:000382f8       ??_C@_1GE@KOCFNGPB@?$AA_?$AAc?$AAo?$AAn?$AAt?$AAr?$AAo?$AAl?$AAf?$AAp?$AA_?$AAs?$AA?$CI?$AA?$CI?$AA?$CI?$AAv?$AAo?$AAi?$AAd?$AA?5?$AA?$CK?$AA?$CJ?$AA0?$AA?$CJ?$AA?0?$AA?5?$AA0?$AAx?$AA0?$AA0?$AA0?$AA1@ 100da2f8     LIBCMTD:fp8.obj
 0002:00038360       __XcptActTab               100da360     LIBCMTD:winxfltr.obj
 0002:000383f0       __XcptActTabCount          100da3f0     LIBCMTD:winxfltr.obj
 0002:000383f4       __XcptActTabSize           100da3f4     LIBCMTD:winxfltr.obj
 0002:000383f8       __First_FPE_Indx           100da3f8     LIBCMTD:winxfltr.obj
 0002:000383fc       __Num_FPE                  100da3fc     LIBCMTD:winxfltr.obj
 0002:00038400       ??_C@_0CL@OBKFGCKK@f?3?2dd?2vctools?2crt?2crtw32?2startup@ 100da400     LIBCMTD:stdargv.obj
 0002:0003842c       ??_C@_0CL@BJBFGFLH@f?3?2dd?2vctools?2crt?2crtw32?2startup@ 100da42c     LIBCMTD:stdenvp.obj
 0002:00038458       ??_C@_1FG@MHBLOJIO@?$AAf?$AA?3?$AA?2?$AAd?$AAd?$AA?2?$AAv?$AAc?$AAt?$AAo?$AAo?$AAl?$AAs?$AA?2?$AAc?$AAr?$AAt?$AA?2?$AAc?$AAr?$AAt?$AAw?$AA3?$AA2?$AA?2?$AAs?$AAt?$AAa?$AAr?$AAt?$AAu?$AAp@ 100da458     LIBCMTD:stdenvp.obj
 0002:000384b0       ??_C@_1BC@GHMCNHHL@?$AA_?$AAs?$AAe?$AAt?$AAe?$AAn?$AAv?$AAp?$AA?$AA@ 100da4b0     LIBCMTD:stdenvp.obj
 0002:000384c4       ??_C@_1DE@MMOGFGHF@?$AAs?$AAt?$AAr?$AAc?$AAp?$AAy?$AA_?$AAs?$AA?$CI?$AA?$CK?$AAe?$AAn?$AAv?$AA?0?$AA?5?$AAc?$AAc?$AAh?$AAa?$AAr?$AAs?$AA?0?$AA?5?$AAp?$AA?$CJ?$AA?$AA@ 100da4c4     LIBCMTD:stdenvp.obj
 0002:000384f8       ??_C@_0CG@NNNNMKLF@f?3?2dd?2vctools?2crt?2crtw32?2misc?2a_@ 100da4f8     LIBCMTD:a_env.obj
 0002:00038520       ??_C@_0CJ@LPLBAFNO@f?3?2dd?2vctools?2crt?2crtw32?2startup@ 100da520     LIBCMTD:mlock.obj
 0002:00038550       ??_C@_1FA@PPLJBGMP@?$AAf?$AA?3?$AA?2?$AAd?$AAd?$AA?2?$AAv?$AAc?$AAt?$AAo?$AAo?$AAl?$AAs?$AA?2?$AAc?$AAr?$AAt?$AA?2?$AAc?$AAr?$AAt?$AAw?$AA3?$AA2?$AA?2?$AAm?$AAi?$AAs?$AAc?$AA?2?$AAd?$AAb@ 100da550     LIBCMTD:dbgrptt.obj
 0002:000385a0       ??_C@_1CA@KHJHLKA@?$AA_?$AAV?$AAC?$AAr?$AAt?$AAD?$AAb?$AAg?$AAR?$AAe?$AAp?$AAo?$AAr?$AAt?$AAA?$AA?$AA@ 100da5a0     LIBCMTD:dbgrptt.obj
 0002:000385c0       ??_C@_1FA@JPHJBHEM@?$AA_?$AAi?$AAt?$AAo?$AAa?$AA_?$AAs?$AA?$CI?$AAn?$AAL?$AAi?$AAn?$AAe?$AA?0?$AA?5?$AAs?$AAz?$AAL?$AAi?$AAn?$AAe?$AAM?$AAe?$AAs?$AAs?$AAa?$AAg?$AAe?$AA?0?$AA?5?$AA4?$AA0@ 100da5c0     LIBCMTD:dbgrptt.obj
 0002:00038610       ??_C@_0CG@BNGLOCEO@Second?5Chance?5Assertion?5Failed?3?5@ 100da610     LIBCMTD:dbgrptt.obj
 0002:00038638       ??_C@_0P@DFJNDPOP@?$DMfile?5unknown?$DO?$AA@ 100da638     LIBCMTD:dbgrptt.obj
 0002:00038648       ??_C@_07BHGABMGB@?0?5Line?5?$AA@ 100da648     LIBCMTD:dbgrptt.obj
 0002:00038650       ??_C@_01EEMJAFIK@?6?$AA@   100da650     LIBCMTD:dbgrptt.obj
 0002:00038658       ??_C@_1JI@GAALPGBM@?$AAs?$AAt?$AAr?$AAc?$AAp?$AAy?$AA_?$AAs?$AA?$CI?$AAs?$AAz?$AAU?$AAs?$AAe?$AAr?$AAM?$AAe?$AAs?$AAs?$AAa?$AAg?$AAe?$AA?0?$AA?5?$AA4?$AA0?$AA9?$AA6?$AA?0?$AA?5?$AA?$CC?$AA_@ 100da658     LIBCMTD:dbgrptt.obj
 0002:000386f0       ??_C@_0CL@EACFGMNB@_CrtDbgReport?3?5String?5too?5long?5o@ 100da6f0     LIBCMTD:dbgrptt.obj
 0002:00038720       ??_C@_1KK@GIGAEDMO@?$AAs?$AAt?$AAr?$AAc?$AAp?$AAy?$AA_?$AAs?$AA?$CI?$AAs?$AAz?$AAL?$AAi?$AAn?$AAe?$AAM?$AAe?$AAs?$AAs?$AAa?$AAg?$AAe?$AA?0?$AA?5?$AA4?$AA0?$AA9?$AA6?$AA?0?$AA?5?$AAs?$AAz@ 100da720     LIBCMTD:dbgrptt.obj
 0002:000387cc       ??_C@_0BD@CAENFOHP@Assertion?5failed?3?5?$AA@ 100da7cc     LIBCMTD:dbgrptt.obj
 0002:000387e0       ??_C@_0BC@LAIDCHCH@Assertion?5failed?$CB?$AA@ 100da7e0     LIBCMTD:dbgrptt.obj
 0002:000387f8       ??_C@_1FK@NPGBPOFO@?$AAs?$AAt?$AAr?$AAc?$AAa?$AAt?$AA_?$AAs?$AA?$CI?$AAs?$AAz?$AAL?$AAi?$AAn?$AAe?$AAM?$AAe?$AAs?$AAs?$AAa?$AAg?$AAe?$AA?0?$AA?5?$AA4?$AA0?$AA9?$AA6?$AA?0?$AA?5?$AAs?$AAz@ 100da7f8     LIBCMTD:dbgrptt.obj
 0002:00038858       ??_C@_1EI@CACDLAFK@?$AAs?$AAt?$AAr?$AAc?$AAa?$AAt?$AA_?$AAs?$AA?$CI?$AAs?$AAz?$AAL?$AAi?$AAn?$AAe?$AAM?$AAe?$AAs?$AAs?$AAa?$AAg?$AAe?$AA?0?$AA?5?$AA4?$AA0?$AA9?$AA6?$AA?0?$AA?5?$AA?$CC?$AA?2@ 100da858     LIBCMTD:dbgrptt.obj
 0002:000388a0       ??_C@_01LIIJDEN@?$AN?$AA@  100da8a0     LIBCMTD:dbgrptt.obj
 0002:000388a8       ??_C@_1EI@LDHJEDO@?$AAs?$AAt?$AAr?$AAc?$AAa?$AAt?$AA_?$AAs?$AA?$CI?$AAs?$AAz?$AAL?$AAi?$AAn?$AAe?$AAM?$AAe?$AAs?$AAs?$AAa?$AAg?$AAe?$AA?0?$AA?5?$AA4?$AA0?$AA9?$AA6?$AA?0?$AA?5?$AA?$CC?$AA?2@ 100da8a8     LIBCMTD:dbgrptt.obj
 0002:000388f0       ??_C@_0M@IPILFDFN@?$CFs?$CI?$CFd?$CJ?5?3?5?$CFs?$AA@ 100da8f0     LIBCMTD:dbgrptt.obj
 0002:00038900       ??_C@_1JG@CPKCIOEE@?$AAs?$AAt?$AAr?$AAc?$AAp?$AAy?$AA_?$AAs?$AA?$CI?$AAs?$AAz?$AAO?$AAu?$AAt?$AAM?$AAe?$AAs?$AAs?$AAa?$AAg?$AAe?$AA?0?$AA?5?$AA4?$AA0?$AA9?$AA6?$AA?0?$AA?5?$AA?$CC?$AA_?$AAC@ 100da900     LIBCMTD:dbgrptt.obj
 0002:00038998       ??_C@_1FI@IBIOIHEG@?$AAs?$AAt?$AAr?$AAc?$AAp?$AAy?$AA_?$AAs?$AA?$CI?$AAs?$AAz?$AAO?$AAu?$AAt?$AAM?$AAe?$AAs?$AAs?$AAa?$AAg?$AAe?$AA?0?$AA?5?$AA4?$AA0?$AA9?$AA6?$AA?0?$AA?5?$AAs?$AAz?$AAL@ 100da998     LIBCMTD:dbgrptt.obj
 0002:000389f0       ??_C@_1IM@OOKIFKOH@?$AAe?$AA?5?$AA?$DN?$AA?5?$AAm?$AAb?$AAs?$AAt?$AAo?$AAw?$AAc?$AAs?$AA_?$AAs?$AA?$CI?$AA?$CG?$AAr?$AAe?$AAt?$AA?0?$AA?5?$AAs?$AAz?$AAO?$AAu?$AAt?$AAM?$AAe?$AAs?$AAs?$AAa?$AAg@ 100da9f0     LIBCMTD:dbgrptt.obj
 0002:00038a80       ??_C@_1MC@IGEECMDB@?$AAw?$AAc?$AAs?$AAc?$AAp?$AAy?$AA_?$AAs?$AA?$CI?$AAs?$AAz?$AAO?$AAu?$AAt?$AAM?$AAe?$AAs?$AAs?$AAa?$AAg?$AAe?$AA2?$AA?0?$AA?5?$AA4?$AA0?$AA9?$AA6?$AA?0?$AA?5?$AAL?$AA?$CC@ 100daa80     LIBCMTD:dbgrptt.obj
 0002:00038b48       ??_C@_1HO@PJOFIKFE@?$AA_?$AAC?$AAr?$AAt?$AAD?$AAb?$AAg?$AAR?$AAe?$AAp?$AAo?$AAr?$AAt?$AA?3?$AA?5?$AAS?$AAt?$AAr?$AAi?$AAn?$AAg?$AA?5?$AAt?$AAo?$AAo?$AA?5?$AAl?$AAo?$AAn?$AAg?$AA?5?$AAo@ 100dab48     LIBCMTD:dbgrptt.obj
 0002:00038bc8       ??_C@_1CA@HPALHDOD@?$AA_?$AAV?$AAC?$AAr?$AAt?$AAD?$AAb?$AAg?$AAR?$AAe?$AAp?$AAo?$AAr?$AAt?$AAW?$AA?$AA@ 100dabc8     LIBCMTD:dbgrptt.obj
 0002:00038be8       ??_C@_1FA@CNLLOMHI@?$AA_?$AAi?$AAt?$AAo?$AAw?$AA_?$AAs?$AA?$CI?$AAn?$AAL?$AAi?$AAn?$AAe?$AA?0?$AA?5?$AAs?$AAz?$AAL?$AAi?$AAn?$AAe?$AAM?$AAe?$AAs?$AAs?$AAa?$AAg?$AAe?$AA?0?$AA?5?$AA4?$AA0@ 100dabe8     LIBCMTD:dbgrptt.obj
 0002:00038c38       ??_C@_1EM@MJFLEDMB@?$AAS?$AAe?$AAc?$AAo?$AAn?$AAd?$AA?5?$AAC?$AAh?$AAa?$AAn?$AAc?$AAe?$AA?5?$AAA?$AAs?$AAs?$AAe?$AAr?$AAt?$AAi?$AAo?$AAn?$AA?5?$AAF?$AAa?$AAi?$AAl?$AAe?$AAd?$AA?3?$AA?5@ 100dac38     LIBCMTD:dbgrptt.obj
 0002:00038c84       ??_C@_1BO@OCHMLCAG@?$AA?$DM?$AAf?$AAi?$AAl?$AAe?$AA?5?$AAu?$AAn?$AAk?$AAn?$AAo?$AAw?$AAn?$AA?$DO?$AA?$AA@ 100dac84     LIBCMTD:dbgrptt.obj
 0002:00038ca4       ??_C@_1BA@ELMMDCFC@?$AA?0?$AA?5?$AAL?$AAi?$AAn?$AAe?$AA?5?$AA?$AA@ 100daca4     LIBCMTD:dbgrptt.obj
 0002:00038cb8       ??_C@_1JK@KHFABAEO@?$AAw?$AAc?$AAs?$AAc?$AAp?$AAy?$AA_?$AAs?$AA?$CI?$AAs?$AAz?$AAU?$AAs?$AAe?$AAr?$AAM?$AAe?$AAs?$AAs?$AAa?$AAg?$AAe?$AA?0?$AA?5?$AA4?$AA0?$AA9?$AA6?$AA?0?$AA?5?$AAL?$AA?$CC@ 100dacb8     LIBCMTD:dbgrptt.obj
 0002:00038d58       ??_C@_1KO@DGAHENCH@?$AAw?$AAc?$AAs?$AAc?$AAp?$AAy?$AA_?$AAs?$AA?$CI?$AAs?$AAz?$AAL?$AAi?$AAn?$AAe?$AAM?$AAe?$AAs?$AAs?$AAa?$AAg?$AAe?$AA?0?$AA?5?$AA4?$AA0?$AA9?$AA6?$AA?0?$AA?5?$AAs?$AAz@ 100dad58     LIBCMTD:dbgrptt.obj
 0002:00038e08       ??_C@_1CG@FFFGGODN@?$AAA?$AAs?$AAs?$AAe?$AAr?$AAt?$AAi?$AAo?$AAn?$AA?5?$AAf?$AAa?$AAi?$AAl?$AAe?$AAd?$AA?3?$AA?5?$AA?$AA@ 100dae08     LIBCMTD:dbgrptt.obj
 0002:00038e30       ??_C@_1FK@HPADHBBD@?$AAw?$AAc?$AAs?$AAc?$AAa?$AAt?$AA_?$AAs?$AA?$CI?$AAs?$AAz?$AAL?$AAi?$AAn?$AAe?$AAM?$AAe?$AAs?$AAs?$AAa?$AAg?$AAe?$AA?0?$AA?5?$AA4?$AA0?$AA9?$AA6?$AA?0?$AA?5?$AAs?$AAz@ 100dae30     LIBCMTD:dbgrptt.obj
 0002:00038e90       ??_C@_1EK@NMDFGHMF@?$AAw?$AAc?$AAs?$AAc?$AAa?$AAt?$AA_?$AAs?$AA?$CI?$AAs?$AAz?$AAL?$AAi?$AAn?$AAe?$AAM?$AAe?$AAs?$AAs?$AAa?$AAg?$AAe?$AA?0?$AA?5?$AA4?$AA0?$AA9?$AA6?$AA?0?$AA?5?$AAL?$AA?$CC@ 100dae90     LIBCMTD:dbgrptt.obj
 0002:00038edc       ??_C@_13CMNBPIDO@?$AA?$AN?$AA?$AA@ 100daedc     LIBCMTD:dbgrptt.obj
 0002:00038ee0       ??_C@_1EK@PHCBEDKB@?$AAw?$AAc?$AAs?$AAc?$AAa?$AAt?$AA_?$AAs?$AA?$CI?$AAs?$AAz?$AAL?$AAi?$AAn?$AAe?$AAM?$AAe?$AAs?$AAs?$AAa?$AAg?$AAe?$AA?0?$AA?5?$AA4?$AA0?$AA9?$AA6?$AA?0?$AA?5?$AAL?$AA?$CC@ 100daee0     LIBCMTD:dbgrptt.obj
 0002:00038f2c       ??_C@_1BI@JIDBEPIG@?$AA?$CF?$AAs?$AA?$CI?$AA?$CF?$AAd?$AA?$CJ?$AA?5?$AA?3?$AA?5?$AA?$CF?$AAs?$AA?$AA@ 100daf2c     LIBCMTD:dbgrptt.obj
 0002:00038f48       ??_C@_1FI@DBAIJPJE@?$AAw?$AAc?$AAs?$AAc?$AAp?$AAy?$AA_?$AAs?$AA?$CI?$AAs?$AAz?$AAO?$AAu?$AAt?$AAM?$AAe?$AAs?$AAs?$AAa?$AAg?$AAe?$AA?0?$AA?5?$AA4?$AA0?$AA9?$AA6?$AA?0?$AA?5?$AAs?$AAz?$AAL@ 100daf48     LIBCMTD:dbgrptt.obj
 0002:00038fa0       ??_C@_1JC@EOAPFDLN@?$AAw?$AAc?$AAs?$AAt?$AAo?$AAm?$AAb?$AAs?$AA_?$AAs?$AA?$CI?$AA?$CI?$AA?$CI?$AAv?$AAo?$AAi?$AAd?$AA?5?$AA?$CK?$AA?$CJ?$AA0?$AA?$CJ?$AA?0?$AA?5?$AAs?$AAz?$AAO?$AAu?$AAt?$AAM?$AAe?$AAs@ 100dafa0     LIBCMTD:dbgrptt.obj
 0002:00039038       ??_C@_1MA@LBAMNNOB@?$AAs?$AAt?$AAr?$AAc?$AAp?$AAy?$AA_?$AAs?$AA?$CI?$AAs?$AAz?$AAO?$AAu?$AAt?$AAM?$AAe?$AAs?$AAs?$AAa?$AAg?$AAe?$AA2?$AA?0?$AA?5?$AA4?$AA0?$AA9?$AA6?$AA?0?$AA?5?$AA?$CC?$AA_@ 100db038     LIBCMTD:dbgrptt.obj
 0002:000390f8       ??_C@_0DP@GNPEPHJD@_CrtDbgReport?3?5String?5too?5long?5o@ 100db0f8     LIBCMTD:dbgrptt.obj
 0002:00039138       ??_C@_1IE@CPGKIAGP@?$AAw?$AAc?$AAs?$AAt?$AAo?$AAm?$AAb?$AAs?$AA_?$AAs?$AA?$CI?$AA?$CG?$AAr?$AAe?$AAt?$AA?0?$AA?5?$AAs?$AAz?$AAa?$AAO?$AAu?$AAt?$AAM?$AAe?$AAs?$AAs?$AAa?$AAg?$AAe?$AA?0?$AA?5@ 100db138     LIBCMTD:dbgrptt.obj
 0002:000391bc       ??_C@_1BO@KFIJIAEA@?$AAp?$AAB?$AAl?$AAo?$AAc?$AAk?$AA?5?$AA?$CB?$AA?$DN?$AA?5?$AAN?$AAU?$AAL?$AAL?$AA?$AA@ 100db1bc     LIBCMTD:expand.obj
 0002:000391e0       ??_C@_1EO@BOMKIKJB@?$AAf?$AA?3?$AA?2?$AAd?$AAd?$AA?2?$AAv?$AAc?$AAt?$AAo?$AAo?$AAl?$AAs?$AA?2?$AAc?$AAr?$AAt?$AA?2?$AAc?$AAr?$AAt?$AAw?$AA3?$AA2?$AA?2?$AAh?$AAe?$AAa?$AAp?$AA?2?$AAe?$AAx@ 100db1e0     LIBCMTD:expand.obj
 0002:00039230       ??_C@_1BK@JMCGJOCC@?$AA_?$AAe?$AAx?$AAp?$AAa?$AAn?$AAd?$AA_?$AAb?$AAa?$AAs?$AAe?$AA?$AA@ 100db230     LIBCMTD:expand.obj
 0002:00039258       ??_C@_03KHICJKCI@?4?4?4?$AA@ 100db258     LIBCMTD:dbgrpt.obj
 0002:0003925c       ??_C@_1CI@IDOKFLAJ@?$AA_?$AA_?$AAc?$AAr?$AAt?$AAM?$AAe?$AAs?$AAs?$AAa?$AAg?$AAe?$AAW?$AAi?$AAn?$AAd?$AAo?$AAw?$AAA?$AA?$AA@ 100db25c     LIBCMTD:dbgrpt.obj
 0002:00039288       ??_C@_1GG@DLDHOIGE@?$AAs?$AAt?$AAr?$AAc?$AAp?$AAy?$AA_?$AAs?$AA?$CI?$AAs?$AAz?$AAE?$AAx?$AAe?$AAN?$AAa?$AAm?$AAe?$AA?0?$AA?5?$AA2?$AA6?$AA0?$AA?0?$AA?5?$AA?$CC?$AA?$DM?$AAp?$AAr?$AAo?$AAg?$AAr@ 100db288     LIBCMTD:dbgrpt.obj
 0002:000392f0       ??_C@_0BH@DNAGHKFM@?$DMprogram?5name?5unknown?$DO?$AA@ 100db2f0     LIBCMTD:dbgrpt.obj
 0002:00039307       ??_C@_00CNPNBAHC@?$AA@     100db307     LIBCMTD:dbgrpt.obj
 0002:00039308       ??_C@_1LG@BEHAHJLI@?$AAD?$AAe?$AAb?$AAu?$AAg?$AA?5?$AA?$CF?$AAs?$AA?$CB?$AA?6?$AA?6?$AAP?$AAr?$AAo?$AAg?$AAr?$AAa?$AAm?$AA?3?$AA?5?$AA?$CF?$AAh?$AAs?$AA?$CF?$AAs?$AA?$CF?$AAs?$AA?$CF?$AAh?$AAs?$AA?$CF?$AAs@ 100db308     LIBCMTD:dbgrpt.obj
 0002:000393c0       ??_C@_1CA@MBDBOHIB@?$AA_?$AAL?$AAo?$AAc?$AAa?$AAl?$AAe?$AA?5?$AA?$CB?$AA?$DN?$AA?5?$AAN?$AAU?$AAL?$AAL?$AA?$AA@ 100db3c0     LIBCMTD:strgtold.obj
 0002:000393e0       ??_C@_1FO@OFJNJPKB@?$AAf?$AA?3?$AA?2?$AAd?$AAd?$AA?2?$AAv?$AAc?$AAt?$AAo?$AAo?$AAl?$AAs?$AA?2?$AAc?$AAr?$AAt?$AA?2?$AAf?$AAp?$AAw?$AA3?$AA2?$AA?2?$AAi?$AAn?$AAc?$AAl?$AAu?$AAd?$AAe?$AA?2@ 100db3e0     LIBCMTD:strgtold.obj
 0002:00039440       ??_C@_1BO@IHLJHOPI@?$AA_?$AA_?$AAs?$AAt?$AAr?$AAg?$AAt?$AAo?$AAl?$AAd?$AA1?$AA2?$AA_?$AAl?$AA?$AA@ 100db440     LIBCMTD:strgtold.obj
 0002:00039460       ??_C@_1FE@KNPCCODH@?$AA?$CI?$AA?$CC?$AAC?$AAo?$AAr?$AAr?$AAu?$AAp?$AAt?$AAe?$AAd?$AA?5?$AAp?$AAo?$AAi?$AAn?$AAt?$AAe?$AAr?$AA?5?$AAp?$AAa?$AAs?$AAs?$AAe?$AAd?$AA?5?$AAt?$AAo?$AA?5?$AA_?$AAf@ 100db460     LIBCMTD:a_map.obj
 0002:000394b8       ??_C@_1EI@DKDOCKPJ@?$AAf?$AA?3?$AA?2?$AAd?$AAd?$AA?2?$AAv?$AAc?$AAt?$AAo?$AAo?$AAl?$AAs?$AA?2?$AAc?$AAr?$AAt?$AA?2?$AAc?$AAr?$AAt?$AAw?$AA3?$AA2?$AA?2?$AAh?$AA?2?$AAm?$AAa?$AAl?$AAl?$AAo@ 100db4b8     LIBCMTD:a_map.obj
 0002:00039500       ___newctype                100db500     LIBCMTD:ctype.obj
 0002:00039800       __wctype                   100db800     LIBCMTD:ctype.obj
 0002:00039a08       ___newclmap                100dba08     LIBCMTD:ctype.obj
 0002:00039b88       ___newcumap                100dbb88     LIBCMTD:ctype.obj
 0002:00039d08       __pDestructExceptionObject 100dbd08     LIBCMTD:frame.obj
 0002:00039d10       ??_7bad_exception@std@@6B@ 100dbd10     LIBCMTD:frame.obj
 0002:00039d18       ??_C@_0O@DPKOEFFH@bad?5exception?$AA@ 100dbd18     LIBCMTD:frame.obj
 0002:00039d28       ??_C@_1BE@PMMBFFCC@?$AAw?$AAc?$AAs?$AAn?$AAc?$AAp?$AAy?$AA_?$AAs?$AA?$AA@ 100dbd28     LIBCMTD:wcsncpy_s.obj
 0002:00039d3c       ??_C@_15PJPFLCCM@?$AAu?$AAk?$AA?$AA@ 100dbd3c     LIBCMTD:getqloc.obj
 0002:00039d44       ___rg_language_count       100dbd44     LIBCMTD:getqloc.obj
 0002:00039d48       ___rg_country_count        100dbd48     LIBCMTD:getqloc.obj
 0002:00039d4c       ??_C@_15EDMHLDMO@?$AAc?$AAa?$AA?$AA@ 100dbd4c     LIBCMTD:winapinls.obj
 0002:00039d54       ??_C@_1O@BPEAJADD@?$AAz?$AAh?$AA?9?$AAC?$AAH?$AAS?$AA?$AA@ 100dbd54     LIBCMTD:winapinls.obj
 0002:00039d64       ??_C@_15LJNHCMNK@?$AAc?$AAs?$AA?$AA@ 100dbd64     LIBCMTD:winapinls.obj
 0002:00039d6c       ??_C@_15FOMCIDHG@?$AAd?$AAa?$AA?$AA@ 100dbd6c     LIBCMTD:winapinls.obj
 0002:00039d74       ??_C@_15NBKABECB@?$AAd?$AAe?$AA?$AA@ 100dbd74     LIBCMTD:winapinls.obj
 0002:00039d7c       ??_C@_15GHPEIIAO@?$AAe?$AAl?$AA?$AA@ 100dbd7c     LIBCMTD:winapinls.obj
 0002:00039d84       ??_C@_15MNPNEAIF@?$AAe?$AAn?$AA?$AA@ 100dbd84     LIBCMTD:winapinls.obj
 0002:00039d8c       ??_C@_15GPIOMPMH@?$AAe?$AAs?$AA?$AA@ 100dbd8c     LIBCMTD:winapinls.obj
 0002:00039d94       ??_C@_15NGLOAKJC@?$AAf?$AAi?$AA?$AA@ 100dbd94     LIBCMTD:winapinls.obj
 0002:00039d9c       ??_C@_15FBKGNKAM@?$AAf?$AAr?$AA?$AA@ 100dbd9c     LIBCMTD:winapinls.obj
 0002:00039da4       ??_C@_15KGGCNEFK@?$AAh?$AAe?$AA?$AA@ 100dbda4     LIBCMTD:winapinls.obj
 0002:00039dac       ??_C@_15PGHLIDMF@?$AAh?$AAu?$AA?$AA@ 100dbdac     LIBCMTD:winapinls.obj
 0002:00039db4       ??_C@_15BIEMAPLM@?$AAi?$AAs?$AA?$AA@ 100dbdb4     LIBCMTD:winapinls.obj
 0002:00039dbc       ??_C@_15IFJLDHAF@?$AAi?$AAt?$AA?$AA@ 100dbdbc     LIBCMTD:winapinls.obj
 0002:00039dc4       ??_C@_15GEMIOCAG@?$AAj?$AAa?$AA?$AA@ 100dbdc4     LIBCMTD:winapinls.obj
 0002:00039dcc       ??_C@_15EPELEGJA@?$AAk?$AAo?$AA?$AA@ 100dbdcc     LIBCMTD:winapinls.obj
 0002:00039dd4       ??_C@_15NDDHIMN@?$AAn?$AAl?$AA?$AA@ 100dbdd4     LIBCMTD:winapinls.obj
 0002:00039ddc       ??_C@_15BPIGNHCD@?$AAn?$AAo?$AA?$AA@ 100dbddc     LIBCMTD:winapinls.obj
 0002:00039de4       ??_C@_15DEOPBLCG@?$AAp?$AAl?$AA?$AA@ 100dbde4     LIBCMTD:winapinls.obj
 0002:00039dec       ??_C@_15KBECGEFG@?$AAp?$AAt?$AA?$AA@ 100dbdec     LIBCMTD:winapinls.obj
 0002:00039df4       ??_C@_15GLJCBFMD@?$AAr?$AAo?$AA?$AA@ 100dbdf4     LIBCMTD:winapinls.obj
 0002:00039dfc       ??_C@_15FEDGKCDI@?$AAr?$AAu?$AA?$AA@ 100dbdfc     LIBCMTD:winapinls.obj
 0002:00039e04       ??_C@_15GLKMLLHM@?$AAh?$AAr?$AA?$AA@ 100dbe04     LIBCMTD:winapinls.obj
 0002:00039e0c       ??_C@_15CPKMFBDB@?$AAs?$AAk?$AA?$AA@ 100dbe0c     LIBCMTD:winapinls.obj
 0002:00039e14       ??_C@_15BAAIOGMK@?$AAs?$AAq?$AA?$AA@ 100dbe14     LIBCMTD:winapinls.obj
 0002:00039e1c       ??_C@_15INNPNOHD@?$AAs?$AAv?$AA?$AA@ 100dbe1c     LIBCMTD:winapinls.obj
 0002:00039e24       ??_C@_15CABMMOGH@?$AAt?$AAh?$AA?$AA@ 100dbe24     LIBCMTD:winapinls.obj
 0002:00039e2c       ??_C@_15BPLIHJJM@?$AAt?$AAr?$AA?$AA@ 100dbe2c     LIBCMTD:winapinls.obj
 0002:00039e34       ??_C@_15NEOEKKDJ@?$AAu?$AAr?$AA?$AA@ 100dbe34     LIBCMTD:winapinls.obj
 0002:00039e3c       ??_C@_15NFICGAJK@?$AAi?$AAd?$AA?$AA@ 100dbe3c     LIBCMTD:winapinls.obj
 0002:00039e44       ??_C@_15HPJPHDM@?$AAb?$AAe?$AA?$AA@ 100dbe44     LIBCMTD:winapinls.obj
 0002:00039e4c       ??_C@_15LCHLGJII@?$AAs?$AAl?$AA?$AA@ 100dbe4c     LIBCMTD:winapinls.obj
 0002:00039e54       ??_C@_15PCFJPHHO@?$AAe?$AAt?$AA?$AA@ 100dbe54     LIBCMTD:winapinls.obj
 0002:00039e5c       ??_C@_15HPFPGODN@?$AAl?$AAv?$AA?$AA@ 100dbe5c     LIBCMTD:winapinls.obj
 0002:00039e64       ??_C@_15NFFGKGLG@?$AAl?$AAt?$AA?$AA@ 100dbe64     LIBCMTD:winapinls.obj
 0002:00039e6c       ??_C@_15BDAKCCHN@?$AAf?$AAa?$AA?$AA@ 100dbe6c     LIBCMTD:winapinls.obj
 0002:00039e74       ??_C@_15NFGIAIAJ@?$AAv?$AAi?$AA?$AA@ 100dbe74     LIBCMTD:winapinls.obj
 0002:00039e7c       ??_C@_15LMKNDMHN@?$AAh?$AAy?$AA?$AA@ 100dbe7c     LIBCMTD:winapinls.obj
 0002:00039e84       ??_C@_15IJBHMCFL@?$AAa?$AAz?$AA?$AA@ 100dbe84     LIBCMTD:winapinls.obj
 0002:00039e8c       ??_C@_15EKOFJABL@?$AAe?$AAu?$AA?$AA@ 100dbe8c     LIBCMTD:winapinls.obj
 0002:00039e94       ??_C@_15BGHADCNK@?$AAm?$AAk?$AA?$AA@ 100dbe94     LIBCMTD:winapinls.obj
 0002:00039e9c       ??_C@_15JDNICKHM@?$AAa?$AAf?$AA?$AA@ 100dbe9c     LIBCMTD:winapinls.obj
 0002:00039ea4       ??_C@_15KPJEDBKD@?$AAk?$AAa?$AA?$AA@ 100dbea4     LIBCMTD:winapinls.obj
 0002:00039eac       ??_C@_15PDNFFFEO@?$AAf?$AAo?$AA?$AA@ 100dbeac     LIBCMTD:winapinls.obj
 0002:00039eb4       ??_C@_15OMLEGLOC@?$AAh?$AAi?$AA?$AA@ 100dbeb4     LIBCMTD:winapinls.obj
 0002:00039ebc       ??_C@_15IDNNENKK@?$AAm?$AAs?$AA?$AA@ 100dbebc     LIBCMTD:winapinls.obj
 0002:00039ec4       ??_C@_15MACJNBMH@?$AAk?$AAk?$AA?$AA@ 100dbec4     LIBCMTD:winapinls.obj
 0002:00039ecc       ??_C@_15DKDJEOND@?$AAk?$AAy?$AA?$AA@ 100dbecc     LIBCMTD:winapinls.obj
 0002:00039ed4       ??_C@_15DFGDLJBG@?$AAs?$AAw?$AA?$AA@ 100dbed4     LIBCMTD:winapinls.obj
 0002:00039edc       ??_C@_15BBFAICNG@?$AAu?$AAz?$AA?$AA@ 100dbedc     LIBCMTD:winapinls.obj
 0002:00039ee4       ??_C@_15DKNDCGEA@?$AAt?$AAt?$AA?$AA@ 100dbee4     LIBCMTD:winapinls.obj
 0002:00039eec       ??_C@_15MGIFMDPL@?$AAp?$AAa?$AA?$AA@ 100dbeec     LIBCMTD:winapinls.obj
 0002:00039ef4       ??_C@_15HCNDBBA@?$AAg?$AAu?$AA?$AA@ 100dbef4     LIBCMTD:winapinls.obj
 0002:00039efc       ??_C@_15FNBEIBON@?$AAt?$AAa?$AA?$AA@ 100dbefc     LIBCMTD:winapinls.obj
 0002:00039f04       ??_C@_15NCHGBGLK@?$AAt?$AAe?$AA?$AA@ 100dbf04     LIBCMTD:winapinls.obj
 0002:00039f0c       ??_C@_15PHPHCBPF@?$AAk?$AAn?$AA?$AA@ 100dbf0c     LIBCMTD:winapinls.obj
 0002:00039f14       ??_C@_15DLGBCKMP@?$AAm?$AAr?$AA?$AA@ 100dbf14     LIBCMTD:winapinls.obj
 0002:00039f1c       ??_C@_15EABBLBFF@?$AAs?$AAa?$AA?$AA@ 100dbf1c     LIBCMTD:winapinls.obj
 0002:00039f24       ??_C@_15CBKOMCOI@?$AAm?$AAn?$AA?$AA@ 100dbf24     LIBCMTD:winapinls.obj
 0002:00039f2c       ??_C@_15CKDMCJAF@?$AAg?$AAl?$AA?$AA@ 100dbf2c     LIBCMTD:winapinls.obj
 0002:00039f34       ??_C@_17CNJFBPG@?$AAk?$AAo?$AAk?$AA?$AA@ 100dbf34     LIBCMTD:winapinls.obj
 0002:00039f3c       ??_C@_17FFBJICPL@?$AAs?$AAy?$AAr?$AA?$AA@ 100dbf3c     LIBCMTD:winapinls.obj
 0002:00039f44       ??_C@_17KPNDCPAF@?$AAd?$AAi?$AAv?$AA?$AA@ 100dbf44     LIBCMTD:winapinls.obj
 0002:00039f4c       ??_C@_1M@OKAHONE@?$AAa?$AAr?$AA?9?$AAS?$AAA?$AA?$AA@ 100dbf4c     LIBCMTD:winapinls.obj
 0002:00039f58       ??_C@_1M@FFFIGIGK@?$AAb?$AAg?$AA?9?$AAB?$AAG?$AA?$AA@ 100dbf58     LIBCMTD:winapinls.obj
 0002:00039f64       ??_C@_1M@BJNKEDC@?$AAc?$AAa?$AA?9?$AAE?$AAS?$AA?$AA@ 100dbf64     LIBCMTD:winapinls.obj
 0002:00039f70       ??_C@_1M@IJJHFJHA@?$AAc?$AAs?$AA?9?$AAC?$AAZ?$AA?$AA@ 100dbf70     LIBCMTD:winapinls.obj
 0002:00039f7c       ??_C@_1M@CLPEOBGI@?$AAd?$AAa?$AA?9?$AAD?$AAK?$AA?$AA@ 100dbf7c     LIBCMTD:winapinls.obj
 0002:00039f88       ??_C@_1M@MCMADGCB@?$AAd?$AAe?$AA?9?$AAD?$AAE?$AA?$AA@ 100dbf88     LIBCMTD:winapinls.obj
 0002:00039f94       ??_C@_1M@OOCKEMAM@?$AAe?$AAl?$AA?9?$AAG?$AAR?$AA?$AA@ 100dbf94     LIBCMTD:winapinls.obj
 0002:00039fa0       ??_C@_1M@DDNJFGID@?$AAf?$AAi?$AA?9?$AAF?$AAI?$AA?$AA@ 100dbfa0     LIBCMTD:winapinls.obj
 0002:00039fac       ??_C@_1M@GLIPPMAC@?$AAf?$AAr?$AA?9?$AAF?$AAR?$AA?$AA@ 100dbfac     LIBCMTD:winapinls.obj
 0002:00039fb8       ??_C@_1M@GFMCHPE@?$AAh?$AAe?$AA?9?$AAI?$AAL?$AA?$AA@ 100dbfb8     LIBCMTD:winapinls.obj
 0002:00039fc4       ??_C@_1M@MHLPGNKM@?$AAh?$AAu?$AA?9?$AAH?$AAU?$AA?$AA@ 100dbfc4     LIBCMTD:winapinls.obj
 0002:00039fd0       ??_C@_1M@LPDDNNPN@?$AAi?$AAs?$AA?9?$AAI?$AAS?$AA?$AA@ 100dbfd0     LIBCMTD:winapinls.obj
 0002:00039fdc       ??_C@_1M@MADIPODN@?$AAi?$AAt?$AA?9?$AAI?$AAT?$AA?$AA@ 100dbfdc     LIBCMTD:winapinls.obj
 0002:00039fe8       ??_C@_1M@IHBJJGG@?$AAn?$AAl?$AA?9?$AAN?$AAL?$AA?$AA@ 100dbfe8     LIBCMTD:winapinls.obj
 0002:00039ff4       ??_C@_1M@EANAGDL@?$AAn?$AAb?$AA?9?$AAN?$AAO?$AA?$AA@ 100dbff4     LIBCMTD:winapinls.obj
 0002:0003a000       ??_C@_1M@NEIEMEGP@?$AAp?$AAl?$AA?9?$AAP?$AAL?$AA?$AA@ 100dc000     LIBCMTD:winapinls.obj
 0002:0003a00c       ??_C@_1M@BOCFIGEP@?$AAp?$AAt?$AA?9?$AAB?$AAR?$AA?$AA@ 100dc00c     LIBCMTD:winapinls.obj
 0002:0003a018       ??_C@_1M@IMPFOPBG@?$AAr?$AAo?$AA?9?$AAR?$AAO?$AA?$AA@ 100dc018     LIBCMTD:winapinls.obj
 0002:0003a024       ??_C@_1M@IDNNEJMM@?$AAr?$AAu?$AA?9?$AAR?$AAU?$AA?$AA@ 100dc024     LIBCMTD:winapinls.obj
 0002:0003a030       ??_C@_1M@LILEEOGM@?$AAh?$AAr?$AA?9?$AAH?$AAR?$AA?$AA@ 100dc030     LIBCMTD:winapinls.obj
 0002:0003a03c       ??_C@_1M@FKIFEHPB@?$AAs?$AAk?$AA?9?$AAS?$AAK?$AA?$AA@ 100dc03c     LIBCMTD:winapinls.obj
 0002:0003a048       ??_C@_1M@LJMAMNPJ@?$AAs?$AAq?$AA?9?$AAA?$AAL?$AA?$AA@ 100dc048     LIBCMTD:winapinls.obj
 0002:0003a054       ??_C@_1M@GIAKDKJK@?$AAs?$AAv?$AA?9?$AAS?$AAE?$AA?$AA@ 100dc054     LIBCMTD:winapinls.obj
 0002:0003a060       ??_C@_1M@MKJKIKCL@?$AAt?$AAh?$AA?9?$AAT?$AAH?$AA?$AA@ 100dc060     LIBCMTD:winapinls.obj
 0002:0003a06c       ??_C@_1M@MFLCCMPB@?$AAt?$AAr?$AA?9?$AAT?$AAR?$AA?$AA@ 100dc06c     LIBCMTD:winapinls.obj
 0002:0003a078       ??_C@_1M@OIJHDKJN@?$AAu?$AAr?$AA?9?$AAP?$AAK?$AA?$AA@ 100dc078     LIBCMTD:winapinls.obj
 0002:0003a084       ??_C@_1M@LHIPCIEK@?$AAi?$AAd?$AA?9?$AAI?$AAD?$AA?$AA@ 100dc084     LIBCMTD:winapinls.obj
 0002:0003a090       ??_C@_1M@MFMOBGI@?$AAu?$AAk?$AA?9?$AAU?$AAA?$AA?$AA@ 100dc090     LIBCMTD:winapinls.obj
 0002:0003a09c       ??_C@_1M@OBGLJIPL@?$AAb?$AAe?$AA?9?$AAB?$AAY?$AA?$AA@ 100dc09c     LIBCMTD:winapinls.obj
 0002:0003a0a8       ??_C@_1M@BCFAJEAD@?$AAs?$AAl?$AA?9?$AAS?$AAI?$AA?$AA@ 100dc0a8     LIBCMTD:winapinls.obj
 0002:0003a0b4       ??_C@_1M@FKFFEDDN@?$AAe?$AAt?$AA?9?$AAE?$AAE?$AA?$AA@ 100dc0b4     LIBCMTD:winapinls.obj
 0002:0003a0c0       ??_C@_1M@KGKKAACI@?$AAl?$AAv?$AA?9?$AAL?$AAV?$AA?$AA@ 100dc0c0     LIBCMTD:winapinls.obj
 0002:0003a0cc       ??_C@_1M@IFGBIJO@?$AAl?$AAt?$AA?9?$AAL?$AAT?$AA?$AA@ 100dc0cc     LIBCMTD:winapinls.obj
 0002:0003a0d8       ??_C@_1M@FGEAHEDM@?$AAf?$AAa?$AA?9?$AAI?$AAR?$AA?$AA@ 100dc0d8     LIBCMTD:winapinls.obj
 0002:0003a0e4       ??_C@_1M@KBMAIBFN@?$AAv?$AAi?$AA?9?$AAV?$AAN?$AA?$AA@ 100dc0e4     LIBCMTD:winapinls.obj
 0002:0003a0f0       ??_C@_1M@GPCBKDJK@?$AAh?$AAy?$AA?9?$AAA?$AAM?$AA?$AA@ 100dc0f0     LIBCMTD:winapinls.obj
 0002:0003a0fc       ??_C@_1BG@BECMDDJB@?$AAa?$AAz?$AA?9?$AAA?$AAZ?$AA?9?$AAL?$AAa?$AAt?$AAn?$AA?$AA@ 100dc0fc     LIBCMTD:winapinls.obj
 0002:0003a114       ??_C@_1M@MAOFCAEA@?$AAe?$AAu?$AA?9?$AAE?$AAS?$AA?$AA@ 100dc114     LIBCMTD:winapinls.obj
 0002:0003a120       ??_C@_1M@IGHABKPI@?$AAm?$AAk?$AA?9?$AAM?$AAK?$AA?$AA@ 100dc120     LIBCMTD:winapinls.obj
 0002:0003a12c       ??_C@_1M@IAIGNEJG@?$AAt?$AAn?$AA?9?$AAZ?$AAA?$AA?$AA@ 100dc12c     LIBCMTD:winapinls.obj
 0002:0003a138       ??_C@_1M@IIJCOJFA@?$AAx?$AAh?$AA?9?$AAZ?$AAA?$AA?$AA@ 100dc138     LIBCMTD:winapinls.obj
 0002:0003a144       ??_C@_1M@LGPJHNJH@?$AAz?$AAu?$AA?9?$AAZ?$AAA?$AA?$AA@ 100dc144     LIBCMTD:winapinls.obj
 0002:0003a150       ??_C@_1M@HOKAOIO@?$AAa?$AAf?$AA?9?$AAZ?$AAA?$AA?$AA@ 100dc150     LIBCMTD:winapinls.obj
 0002:0003a15c       ??_C@_1M@DPCLHLIE@?$AAk?$AAa?$AA?9?$AAG?$AAE?$AA?$AA@ 100dc15c     LIBCMTD:winapinls.obj
 0002:0003a168       ??_C@_1M@BLKMHJBI@?$AAf?$AAo?$AA?9?$AAF?$AAO?$AA?$AA@ 100dc168     LIBCMTD:winapinls.obj
 0002:0003a174       ??_C@_1M@LGGJAPPB@?$AAh?$AAi?$AA?9?$AAI?$AAN?$AA?$AA@ 100dc174     LIBCMTD:winapinls.obj
 0002:0003a180       ??_C@_1M@FIKPIHFE@?$AAm?$AAt?$AA?9?$AAM?$AAT?$AA?$AA@ 100dc180     LIBCMTD:winapinls.obj
 0002:0003a18c       ??_C@_1M@HEGGPBFA@?$AAs?$AAe?$AA?9?$AAN?$AAO?$AA?$AA@ 100dc18c     LIBCMTD:winapinls.obj
 0002:0003a198       ??_C@_1M@EIBJEEPA@?$AAm?$AAs?$AA?9?$AAM?$AAY?$AA?$AA@ 100dc198     LIBCMTD:winapinls.obj
 0002:0003a1a4       ??_C@_1M@FHLBGMPP@?$AAk?$AAk?$AA?9?$AAK?$AAZ?$AA?$AA@ 100dc1a4     LIBCMTD:winapinls.obj
 0002:0003a1b0       ??_C@_1M@NGJJLCGI@?$AAk?$AAy?$AA?9?$AAK?$AAG?$AA?$AA@ 100dc1b0     LIBCMTD:winapinls.obj
 0002:0003a1bc       ??_C@_1M@GIENNBFC@?$AAs?$AAw?$AA?9?$AAK?$AAE?$AA?$AA@ 100dc1bc     LIBCMTD:winapinls.obj
 0002:0003a1c8       ??_C@_1BG@NDGMJIMJ@?$AAu?$AAz?$AA?9?$AAU?$AAZ?$AA?9?$AAL?$AAa?$AAt?$AAn?$AA?$AA@ 100dc1c8     LIBCMTD:winapinls.obj
 0002:0003a1e0       ??_C@_1M@IDCCIHBC@?$AAt?$AAt?$AA?9?$AAR?$AAU?$AA?$AA@ 100dc1e0     LIBCMTD:winapinls.obj
 0002:0003a1ec       ??_C@_1M@LOICPMOJ@?$AAb?$AAn?$AA?9?$AAI?$AAN?$AA?$AA@ 100dc1ec     LIBCMTD:winapinls.obj
 0002:0003a1f8       ??_C@_1M@KPKKNEAH@?$AAp?$AAa?$AA?9?$AAI?$AAN?$AA?$AA@ 100dc1f8     LIBCMTD:winapinls.obj
 0002:0003a204       ??_C@_1M@PJGPPBOG@?$AAg?$AAu?$AA?9?$AAI?$AAN?$AA?$AA@ 100dc204     LIBCMTD:winapinls.obj
 0002:0003a210       ??_C@_1M@KMKMOPHI@?$AAt?$AAa?$AA?9?$AAI?$AAN?$AA?$AA@ 100dc210     LIBCMTD:winapinls.obj
 0002:0003a21c       ??_C@_1M@KFEHEPAC@?$AAt?$AAe?$AA?9?$AAI?$AAN?$AA?$AA@ 100dc21c     LIBCMTD:winapinls.obj
 0002:0003a228       ??_C@_1M@CDCLMGHI@?$AAk?$AAn?$AA?9?$AAI?$AAN?$AA?$AA@ 100dc228     LIBCMTD:winapinls.obj
 0002:0003a234       ??_C@_1M@MIODLDKF@?$AAm?$AAl?$AA?9?$AAI?$AAN?$AA?$AA@ 100dc234     LIBCMTD:winapinls.obj
 0002:0003a240       ??_C@_1M@PBIEACPO@?$AAm?$AAr?$AA?9?$AAI?$AAN?$AA?$AA@ 100dc240     LIBCMTD:winapinls.obj
 0002:0003a24c       ??_C@_1M@NIDEAGPH@?$AAs?$AAa?$AA?9?$AAI?$AAN?$AA?$AA@ 100dc24c     LIBCMTD:winapinls.obj
 0002:0003a258       ??_C@_1M@FHIHCBIO@?$AAm?$AAn?$AA?9?$AAM?$AAN?$AA?$AA@ 100dc258     LIBCMTD:winapinls.obj
 0002:0003a264       ??_C@_1M@JAIJPENP@?$AAc?$AAy?$AA?9?$AAG?$AAB?$AA?$AA@ 100dc264     LIBCMTD:winapinls.obj
 0002:0003a270       ??_C@_1M@PHGFBEPN@?$AAg?$AAl?$AA?9?$AAE?$AAS?$AA?$AA@ 100dc270     LIBCMTD:winapinls.obj
 0002:0003a27c       ??_C@_1O@KPIPDNCP@?$AAk?$AAo?$AAk?$AA?9?$AAI?$AAN?$AA?$AA@ 100dc27c     LIBCMTD:winapinls.obj
 0002:0003a28c       ??_C@_1O@KNHJLDJA@?$AAs?$AAy?$AAr?$AA?9?$AAS?$AAY?$AA?$AA@ 100dc28c     LIBCMTD:winapinls.obj
 0002:0003a29c       ??_C@_1O@MKEKBLAH@?$AAd?$AAi?$AAv?$AA?9?$AAM?$AAV?$AA?$AA@ 100dc29c     LIBCMTD:winapinls.obj
 0002:0003a2ac       ??_C@_1O@OHDCKDDF@?$AAq?$AAu?$AAz?$AA?9?$AAB?$AAO?$AA?$AA@ 100dc2ac     LIBCMTD:winapinls.obj
 0002:0003a2bc       ??_C@_1M@LEPJNLFD@?$AAn?$AAs?$AA?9?$AAZ?$AAA?$AA?$AA@ 100dc2bc     LIBCMTD:winapinls.obj
 0002:0003a2c8       ??_C@_1M@OMLEIIJB@?$AAm?$AAi?$AA?9?$AAN?$AAZ?$AA?$AA@ 100dc2c8     LIBCMTD:winapinls.obj
 0002:0003a2d4       ??_C@_1M@PMPEAILG@?$AAa?$AAr?$AA?9?$AAI?$AAQ?$AA?$AA@ 100dc2d4     LIBCMTD:winapinls.obj
 0002:0003a2e0       ??_C@_1M@CNKPNOEE@?$AAd?$AAe?$AA?9?$AAC?$AAH?$AA?$AA@ 100dc2e0     LIBCMTD:winapinls.obj
 0002:0003a2ec       ??_C@_1M@LKMGMLKO@?$AAe?$AAn?$AA?9?$AAG?$AAB?$AA?$AA@ 100dc2ec     LIBCMTD:winapinls.obj
 0002:0003a2f8       ??_C@_1M@PGKJFFGL@?$AAe?$AAs?$AA?9?$AAM?$AAX?$AA?$AA@ 100dc2f8     LIBCMTD:winapinls.obj
 0002:0003a304       ??_C@_1M@DNNANBDC@?$AAf?$AAr?$AA?9?$AAB?$AAE?$AA?$AA@ 100dc304     LIBCMTD:winapinls.obj
 0002:0003a310       ??_C@_1M@HLGMDFHM@?$AAi?$AAt?$AA?9?$AAC?$AAH?$AA?$AA@ 100dc310     LIBCMTD:winapinls.obj
 0002:0003a31c       ??_C@_1M@CLLBGJH@?$AAn?$AAl?$AA?9?$AAB?$AAE?$AA?$AA@ 100dc31c     LIBCMTD:winapinls.obj
 0002:0003a328       ??_C@_1M@BODBOGLF@?$AAn?$AAn?$AA?9?$AAN?$AAO?$AA?$AA@ 100dc328     LIBCMTD:winapinls.obj
 0002:0003a334       ??_C@_1M@HFFAHKAD@?$AAp?$AAt?$AA?9?$AAP?$AAT?$AA?$AA@ 100dc334     LIBCMTD:winapinls.obj
 0002:0003a340       ??_C@_1BG@LNOAKHIE@?$AAs?$AAr?$AA?9?$AAS?$AAP?$AA?9?$AAL?$AAa?$AAt?$AAn?$AA?$AA@ 100dc340     LIBCMTD:winapinls.obj
 0002:0003a358       ??_C@_1M@HBMHBGAK@?$AAs?$AAv?$AA?9?$AAF?$AAI?$AA?$AA@ 100dc358     LIBCMTD:winapinls.obj
 0002:0003a364       ??_C@_1BG@DGCJGJBE@?$AAa?$AAz?$AA?9?$AAA?$AAZ?$AA?9?$AAC?$AAy?$AAr?$AAl?$AA?$AA@ 100dc364     LIBCMTD:winapinls.obj
 0002:0003a37c       ??_C@_1M@KEJDAAHB@?$AAs?$AAe?$AA?9?$AAS?$AAE?$AA?$AA@ 100dc37c     LIBCMTD:winapinls.obj
 0002:0003a388       ??_C@_1M@HEIBJJAD@?$AAm?$AAs?$AA?9?$AAB?$AAN?$AA?$AA@ 100dc388     LIBCMTD:winapinls.obj
 0002:0003a394       ??_C@_1BG@PBGJMCEM@?$AAu?$AAz?$AA?9?$AAU?$AAZ?$AA?9?$AAC?$AAy?$AAr?$AAl?$AA?$AA@ 100dc394     LIBCMTD:winapinls.obj
 0002:0003a3ac       ??_C@_1O@LAOBCMDF@?$AAq?$AAu?$AAz?$AA?9?$AAE?$AAC?$AA?$AA@ 100dc3ac     LIBCMTD:winapinls.obj
 0002:0003a3bc       ??_C@_1M@POEEMAIO@?$AAa?$AAr?$AA?9?$AAE?$AAG?$AA?$AA@ 100dc3bc     LIBCMTD:winapinls.obj
 0002:0003a3c8       ??_C@_1M@EFAKDEDL@?$AAz?$AAh?$AA?9?$AAH?$AAK?$AA?$AA@ 100dc3c8     LIBCMTD:winapinls.obj
 0002:0003a3d4       ??_C@_1M@HKKIJHGI@?$AAd?$AAe?$AA?9?$AAA?$AAT?$AA?$AA@ 100dc3d4     LIBCMTD:winapinls.obj
 0002:0003a3e0       ??_C@_1M@KBFBEHJF@?$AAe?$AAn?$AA?9?$AAA?$AAU?$AA?$AA@ 100dc3e0     LIBCMTD:winapinls.obj
 0002:0003a3ec       ??_C@_1M@MNPLFAAH@?$AAe?$AAs?$AA?9?$AAE?$AAS?$AA?$AA@ 100dc3ec     LIBCMTD:winapinls.obj
 0002:0003a3f8       ??_C@_1M@HJOOJFMA@?$AAf?$AAr?$AA?9?$AAC?$AAA?$AA?$AA@ 100dc3f8     LIBCMTD:winapinls.obj
 0002:0003a404       ??_C@_1BG@JPOFPNAB@?$AAs?$AAr?$AA?9?$AAS?$AAP?$AA?9?$AAC?$AAy?$AAr?$AAl?$AA?$AA@ 100dc404     LIBCMTD:winapinls.obj
 0002:0003a41c       ??_C@_1M@LNFOCMOB@?$AAs?$AAe?$AA?9?$AAF?$AAI?$AA?$AA@ 100dc41c     LIBCMTD:winapinls.obj
 0002:0003a428       ??_C@_1O@MGJBOAMB@?$AAq?$AAu?$AAz?$AA?9?$AAP?$AAE?$AA?$AA@ 100dc428     LIBCMTD:winapinls.obj
 0002:0003a438       ??_C@_1M@GJINLBOK@?$AAa?$AAr?$AA?9?$AAL?$AAY?$AA?$AA@ 100dc438     LIBCMTD:winapinls.obj
 0002:0003a444       ??_C@_1M@GGMNHJNL@?$AAz?$AAh?$AA?9?$AAS?$AAG?$AA?$AA@ 100dc444     LIBCMTD:winapinls.obj
 0002:0003a450       ??_C@_1M@HOIKODND@?$AAd?$AAe?$AA?9?$AAL?$AAU?$AA?$AA@ 100dc450     LIBCMTD:winapinls.obj
 0002:0003a45c       ??_C@_1M@DDOCCGFG@?$AAe?$AAn?$AA?9?$AAC?$AAA?$AA?$AA@ 100dc45c     LIBCMTD:winapinls.obj
 0002:0003a468       ??_C@_1M@BNOEMJLF@?$AAe?$AAs?$AA?9?$AAG?$AAT?$AA?$AA@ 100dc468     LIBCMTD:winapinls.obj
 0002:0003a474       ??_C@_1M@EOGNKEK@?$AAf?$AAr?$AA?9?$AAC?$AAH?$AA?$AA@ 100dc474     LIBCMTD:winapinls.obj
 0002:0003a480       ??_C@_1M@FLIDJFHL@?$AAh?$AAr?$AA?9?$AAB?$AAA?$AA?$AA@ 100dc480     LIBCMTD:winapinls.obj
 0002:0003a48c       ??_C@_1O@FMCELNAJ@?$AAs?$AAm?$AAj?$AA?9?$AAN?$AAO?$AA?$AA@ 100dc48c     LIBCMTD:winapinls.obj
 0002:0003a49c       ??_C@_1M@JHGLJMGJ@?$AAa?$AAr?$AA?9?$AAD?$AAZ?$AA?$AA@ 100dc49c     LIBCMTD:winapinls.obj
 0002:0003a4a8       ??_C@_1M@JKKFDCNP@?$AAz?$AAh?$AA?9?$AAM?$AAO?$AA?$AA@ 100dc4a8     LIBCMTD:winapinls.obj
 0002:0003a4b4       ??_C@_1M@GEEFALPE@?$AAd?$AAe?$AA?9?$AAL?$AAI?$AA?$AA@ 100dc4b4     LIBCMTD:winapinls.obj
 0002:0003a4c0       ??_C@_1M@IGEOFBG@?$AAe?$AAn?$AA?9?$AAN?$AAZ?$AA?$AA@ 100dc4c0     LIBCMTD:winapinls.obj
 0002:0003a4cc       ??_C@_1M@KDBONEHP@?$AAe?$AAs?$AA?9?$AAC?$AAR?$AA?$AA@ 100dc4cc     LIBCMTD:winapinls.obj
 0002:0003a4d8       ??_C@_1M@FHMDOHNN@?$AAf?$AAr?$AA?9?$AAL?$AAU?$AA?$AA@ 100dc4d8     LIBCMTD:winapinls.obj
 0002:0003a4e4       ??_C@_1BG@NFKKMAFG@?$AAb?$AAs?$AA?9?$AAB?$AAA?$AA?9?$AAL?$AAa?$AAt?$AAn?$AA?$AA@ 100dc4e4     LIBCMTD:winapinls.obj
 0002:0003a4fc       ??_C@_1O@IMNBEMCI@?$AAs?$AAm?$AAj?$AA?9?$AAS?$AAE?$AA?$AA@ 100dc4fc     LIBCMTD:winapinls.obj
 0002:0003a50c       ??_C@_1M@DHHMBNDP@?$AAa?$AAr?$AA?9?$AAM?$AAA?$AA?$AA@ 100dc50c     LIBCMTD:winapinls.obj
 0002:0003a518       ??_C@_1M@BNBLJCGH@?$AAe?$AAn?$AA?9?$AAI?$AAE?$AA?$AA@ 100dc518     LIBCMTD:winapinls.obj
 0002:0003a524       ??_C@_1M@GEPAFMDL@?$AAe?$AAs?$AA?9?$AAP?$AAA?$AA?$AA@ 100dc524     LIBCMTD:winapinls.obj
 0002:0003a530       ??_C@_1M@OJONDMDL@?$AAf?$AAr?$AA?9?$AAM?$AAC?$AA?$AA@ 100dc530     LIBCMTD:winapinls.obj
 0002:0003a53c       ??_C@_1BG@OBCNFJB@?$AAs?$AAr?$AA?9?$AAB?$AAA?$AA?9?$AAL?$AAa?$AAt?$AAn?$AA?$AA@ 100dc53c     LIBCMTD:winapinls.obj
 0002:0003a554       ??_C@_1O@KEMEEGPO@?$AAs?$AAm?$AAa?$AA?9?$AAN?$AAO?$AA?$AA@ 100dc554     LIBCMTD:winapinls.obj
 0002:0003a564       ??_C@_1M@ELMGFODK@?$AAa?$AAr?$AA?9?$AAT?$AAN?$AA?$AA@ 100dc564     LIBCMTD:winapinls.obj
 0002:0003a570       ??_C@_1M@BHDLHFAF@?$AAe?$AAn?$AA?9?$AAZ?$AAA?$AA?$AA@ 100dc570     LIBCMTD:winapinls.obj
 0002:0003a57c       ??_C@_1M@BMGIGLIF@?$AAe?$AAs?$AA?9?$AAD?$AAO?$AA?$AA@ 100dc57c     LIBCMTD:winapinls.obj
 0002:0003a588       ??_C@_1BG@CMBHIPBE@?$AAs?$AAr?$AA?9?$AAB?$AAA?$AA?9?$AAC?$AAy?$AAr?$AAl?$AA?$AA@ 100dc588     LIBCMTD:winapinls.obj
 0002:0003a5a0       ??_C@_1O@HEDBLHNP@?$AAs?$AAm?$AAa?$AA?9?$AAS?$AAE?$AA?$AA@ 100dc5a0     LIBCMTD:winapinls.obj
 0002:0003a5b0       ??_C@_1M@DAGCADIM@?$AAa?$AAr?$AA?9?$AAO?$AAM?$AA?$AA@ 100dc5b0     LIBCMTD:winapinls.obj
 0002:0003a5bc       ??_C@_1M@FODLMICG@?$AAe?$AAn?$AA?9?$AAJ?$AAM?$AA?$AA@ 100dc5bc     LIBCMTD:winapinls.obj
 0002:0003a5c8       ??_C@_1M@DNMLCIHB@?$AAe?$AAs?$AA?9?$AAV?$AAE?$AA?$AA@ 100dc5c8     LIBCMTD:winapinls.obj
 0002:0003a5d4       ??_C@_1O@EOKHMKJK@?$AAs?$AAm?$AAs?$AA?9?$AAF?$AAI?$AA?$AA@ 100dc5d4     LIBCMTD:winapinls.obj
 0002:0003a5e4       ??_C@_1M@CAFJMKOF@?$AAa?$AAr?$AA?9?$AAY?$AAE?$AA?$AA@ 100dc5e4     LIBCMTD:winapinls.obj
 0002:0003a5f0       ??_C@_1M@CBFHIJLI@?$AAe?$AAn?$AA?9?$AAC?$AAB?$AA?$AA@ 100dc5f0     LIBCMTD:winapinls.obj
 0002:0003a5fc       ??_C@_1M@BGNFLDN@?$AAe?$AAs?$AA?9?$AAC?$AAO?$AA?$AA@ 100dc5fc     LIBCMTD:winapinls.obj
 0002:0003a608       ??_C@_1O@JMPHMAMC@?$AAs?$AAm?$AAn?$AA?9?$AAF?$AAI?$AA?$AA@ 100dc608     LIBCMTD:winapinls.obj
 0002:0003a618       ??_C@_1M@JLANABKE@?$AAa?$AAr?$AA?9?$AAS?$AAY?$AA?$AA@ 100dc618     LIBCMTD:winapinls.obj
 0002:0003a624       ??_C@_1M@HPKGCFGN@?$AAe?$AAn?$AA?9?$AAB?$AAZ?$AA?$AA@ 100dc624     LIBCMTD:winapinls.obj
 0002:0003a630       ??_C@_1M@OLJCMLGM@?$AAe?$AAs?$AA?9?$AAP?$AAE?$AA?$AA@ 100dc630     LIBCMTD:winapinls.obj
 0002:0003a63c       ??_C@_1M@MKKGFKLE@?$AAa?$AAr?$AA?9?$AAJ?$AAO?$AA?$AA@ 100dc63c     LIBCMTD:winapinls.obj
 0002:0003a648       ??_C@_1M@EKPGLDNI@?$AAe?$AAn?$AA?9?$AAT?$AAT?$AA?$AA@ 100dc648     LIBCMTD:winapinls.obj
 0002:0003a654       ??_C@_1M@OONGHFHE@?$AAe?$AAs?$AA?9?$AAA?$AAR?$AA?$AA@ 100dc654     LIBCMTD:winapinls.obj
 0002:0003a660       ??_C@_1M@OOJFGBHE@?$AAa?$AAr?$AA?9?$AAL?$AAB?$AA?$AA@ 100dc660     LIBCMTD:winapinls.obj
 0002:0003a66c       ??_C@_1M@GCEJHNEG@?$AAe?$AAn?$AA?9?$AAZ?$AAW?$AA?$AA@ 100dc66c     LIBCMTD:winapinls.obj
 0002:0003a678       ??_C@_1M@JNOCAHJI@?$AAe?$AAs?$AA?9?$AAE?$AAC?$AA?$AA@ 100dc678     LIBCMTD:winapinls.obj
 0002:0003a684       ??_C@_1M@JEFHPGGB@?$AAa?$AAr?$AA?9?$AAK?$AAW?$AA?$AA@ 100dc684     LIBCMTD:winapinls.obj
 0002:0003a690       ??_C@_1M@MLKIBJOJ@?$AAe?$AAn?$AA?9?$AAP?$AAH?$AA?$AA@ 100dc690     LIBCMTD:winapinls.obj
 0002:0003a69c       ??_C@_1M@BDNIPEND@?$AAe?$AAs?$AA?9?$AAC?$AAL?$AA?$AA@ 100dc69c     LIBCMTD:winapinls.obj
 0002:0003a6a8       ??_C@_1M@MPNMEKBD@?$AAa?$AAr?$AA?9?$AAA?$AAE?$AA?$AA@ 100dc6a8     LIBCMTD:winapinls.obj
 0002:0003a6b4       ??_C@_1M@KBJALCPI@?$AAe?$AAs?$AA?9?$AAU?$AAY?$AA?$AA@ 100dc6b4     LIBCMTD:winapinls.obj
 0002:0003a6c0       ??_C@_1M@LLCCOAGA@?$AAa?$AAr?$AA?9?$AAB?$AAH?$AA?$AA@ 100dc6c0     LIBCMTD:winapinls.obj
 0002:0003a6cc       ??_C@_1M@PBFNCDEL@?$AAe?$AAs?$AA?9?$AAP?$AAY?$AA?$AA@ 100dc6cc     LIBCMTD:winapinls.obj
 0002:0003a6d8       ??_C@_1M@EDGINPNP@?$AAa?$AAr?$AA?9?$AAQ?$AAA?$AA?$AA@ 100dc6d8     LIBCMTD:winapinls.obj
 0002:0003a6e4       ??_C@_1M@MKDBIIJI@?$AAe?$AAs?$AA?9?$AAB?$AAO?$AA?$AA@ 100dc6e4     LIBCMTD:winapinls.obj
 0002:0003a6f0       ??_C@_1M@CPKKEBLD@?$AAe?$AAs?$AA?9?$AAS?$AAV?$AA?$AA@ 100dc6f0     LIBCMTD:winapinls.obj
 0002:0003a6fc       ??_C@_1M@NDBGMMJL@?$AAe?$AAs?$AA?9?$AAH?$AAN?$AA?$AA@ 100dc6fc     LIBCMTD:winapinls.obj
 0002:0003a708       ??_C@_1M@JIJIBHDP@?$AAe?$AAs?$AA?9?$AAN?$AAI?$AA?$AA@ 100dc708     LIBCMTD:winapinls.obj
 0002:0003a714       ??_C@_1M@CGFMKEEK@?$AAe?$AAs?$AA?9?$AAP?$AAR?$AA?$AA@ 100dc714     LIBCMTD:winapinls.obj
 0002:0003a720       ??_C@_1O@ICJHKIIK@?$AAz?$AAh?$AA?9?$AAC?$AAH?$AAT?$AA?$AA@ 100dc720     LIBCMTD:winapinls.obj
 0002:0003a730       ??_C@_15CLNEJCE@?$AAs?$AAr?$AA?$AA@ 100dc730     LIBCMTD:winapinls.obj
 0002:0003a738       _LocaleNameToIndexTable    100dc738     LIBCMTD:winapinls.obj
 0002:0003ae58       _LcidToLocaleNameTable     100dce58     LIBCMTD:winapinls.obj
 0002:0003b578       ??_C@_1M@KAHEKEIG@?$AAa?$AAf?$AA?9?$AAz?$AAa?$AA?$AA@ 100dd578     LIBCMTD:winapinls.obj
 0002:0003b584       ??_C@_1M@GIECOABL@?$AAa?$AAr?$AA?9?$AAa?$AAe?$AA?$AA@ 100dd584     LIBCMTD:winapinls.obj
 0002:0003b590       ??_C@_1M@BMLMEKGI@?$AAa?$AAr?$AA?9?$AAb?$AAh?$AA?$AA@ 100dd590     LIBCMTD:winapinls.obj
 0002:0003b59c       ??_C@_1M@DAPFDGGB@?$AAa?$AAr?$AA?9?$AAd?$AAz?$AA?$AA@ 100dd59c     LIBCMTD:winapinls.obj
 0002:0003b5a8       ??_C@_1M@FJNKGKIG@?$AAa?$AAr?$AA?9?$AAe?$AAg?$AA?$AA@ 100dd5a8     LIBCMTD:winapinls.obj
 0002:0003b5b4       ??_C@_1M@FLGKKCLO@?$AAa?$AAr?$AA?9?$AAi?$AAq?$AA?$AA@ 100dd5b4     LIBCMTD:winapinls.obj
 0002:0003b5c0       ??_C@_1M@GNDIPALM@?$AAa?$AAr?$AA?9?$AAj?$AAo?$AA?$AA@ 100dd5c0     LIBCMTD:winapinls.obj
 0002:0003b5cc       ??_C@_1M@DDMJFMGJ@?$AAa?$AAr?$AA?9?$AAk?$AAw?$AA?$AA@ 100dd5cc     LIBCMTD:winapinls.obj
 0002:0003b5d8       ??_C@_1M@EJALMLHM@?$AAa?$AAr?$AA?9?$AAl?$AAb?$AA?$AA@ 100dd5d8     LIBCMTD:winapinls.obj
 0002:0003b5e4       ??_C@_1M@MOBDBLOC@?$AAa?$AAr?$AA?9?$AAl?$AAy?$AA?$AA@ 100dd5e4     LIBCMTD:winapinls.obj
 0002:0003b5f0       ??_C@_1M@JAOCLHDH@?$AAa?$AAr?$AA?9?$AAm?$AAa?$AA?$AA@ 100dd5f0     LIBCMTD:winapinls.obj
 0002:0003b5fc       ??_C@_1M@JHPMKJIE@?$AAa?$AAr?$AA?9?$AAo?$AAm?$AA?$AA@ 100dd5fc     LIBCMTD:winapinls.obj
 0002:0003b608       ??_C@_1M@OEPGHFNH@?$AAa?$AAr?$AA?9?$AAq?$AAa?$AA?$AA@ 100dd608     LIBCMTD:winapinls.obj
 0002:0003b614       ??_C@_1M@KJDONENM@?$AAa?$AAr?$AA?9?$AAs?$AAa?$AA?$AA@ 100dd614     LIBCMTD:winapinls.obj
 0002:0003b620       ??_C@_1M@DMJDKLKM@?$AAa?$AAr?$AA?9?$AAs?$AAy?$AA?$AA@ 100dd620     LIBCMTD:winapinls.obj
 0002:0003b62c       ??_C@_1M@OMFIPEDC@?$AAa?$AAr?$AA?9?$AAt?$AAn?$AA?$AA@ 100dd62c     LIBCMTD:winapinls.obj
 0002:0003b638       ??_C@_1M@IHMHGAON@?$AAa?$AAr?$AA?9?$AAy?$AAe?$AA?$AA@ 100dd638     LIBCMTD:winapinls.obj
 0002:0003b644       ??_C@_1BG@KDCPGJGB@?$AAa?$AAz?$AA?9?$AAa?$AAz?$AA?9?$AAc?$AAy?$AAr?$AAl?$AA?$AA@ 100dd644     LIBCMTD:winapinls.obj
 0002:0003b65c       ??_C@_1BG@IBCKDDOE@?$AAa?$AAz?$AA?9?$AAa?$AAz?$AA?9?$AAl?$AAa?$AAt?$AAn?$AA?$AA@ 100dd65c     LIBCMTD:winapinls.obj
 0002:0003b674       ??_C@_1M@EGPFDCPD@?$AAb?$AAe?$AA?9?$AAb?$AAy?$AA?$AA@ 100dd674     LIBCMTD:winapinls.obj
 0002:0003b680       ??_C@_1M@PCMGMCGC@?$AAb?$AAg?$AA?9?$AAb?$AAg?$AA?$AA@ 100dd680     LIBCMTD:winapinls.obj
 0002:0003b68c       ??_C@_1M@BJBMFGOB@?$AAb?$AAn?$AA?9?$AAi?$AAn?$AA?$AA@ 100dd68c     LIBCMTD:winapinls.obj
 0002:0003b698       ??_C@_1BG@EAKMMACD@?$AAb?$AAs?$AA?9?$AAb?$AAa?$AA?9?$AAl?$AAa?$AAt?$AAn?$AA?$AA@ 100dd698     LIBCMTD:winapinls.obj
 0002:0003b6b0       ??_C@_1M@KGADAODK@?$AAc?$AAa?$AA?9?$AAe?$AAs?$AA?$AA@ 100dd6b0     LIBCMTD:winapinls.obj
 0002:0003b6bc       ??_C@_1M@COAJPDHI@?$AAc?$AAs?$AA?9?$AAc?$AAz?$AA?$AA@ 100dd6bc     LIBCMTD:winapinls.obj
 0002:0003b6c8       ??_C@_1M@DHBHFONH@?$AAc?$AAy?$AA?9?$AAg?$AAb?$AA?$AA@ 100dd6c8     LIBCMTD:winapinls.obj
 0002:0003b6d4       ??_C@_1M@IMGKELGA@?$AAd?$AAa?$AA?9?$AAd?$AAk?$AA?$AA@ 100dd6d4     LIBCMTD:winapinls.obj
 0002:0003b6e0       ??_C@_1M@NNDGDNGA@?$AAd?$AAe?$AA?9?$AAa?$AAt?$AA?$AA@ 100dd6e0     LIBCMTD:winapinls.obj
 0002:0003b6ec       ??_C@_1M@IKDBHEEM@?$AAd?$AAe?$AA?9?$AAc?$AAh?$AA?$AA@ 100dd6ec     LIBCMTD:winapinls.obj
 0002:0003b6f8       ??_C@_1M@GFFOJMCJ@?$AAd?$AAe?$AA?9?$AAd?$AAe?$AA?$AA@ 100dd6f8     LIBCMTD:winapinls.obj
 0002:0003b704       ??_C@_1M@MDNLKBPM@?$AAd?$AAe?$AA?9?$AAl?$AAi?$AA?$AA@ 100dd704     LIBCMTD:winapinls.obj
 0002:0003b710       ??_C@_1M@NJBEEJNL@?$AAd?$AAe?$AA?9?$AAl?$AAu?$AA?$AA@ 100dd710     LIBCMTD:winapinls.obj
 0002:0003b71c       ??_C@_1O@GNNELBAP@?$AAd?$AAi?$AAv?$AA?9?$AAm?$AAv?$AA?$AA@ 100dd71c     LIBCMTD:winapinls.obj
 0002:0003b72c       ??_C@_1M@EJLEOGAE@?$AAe?$AAl?$AA?9?$AAg?$AAr?$AA?$AA@ 100dd72c     LIBCMTD:winapinls.obj
 0002:0003b738       ??_C@_1M@GMPONJN@?$AAe?$AAn?$AA?9?$AAa?$AAu?$AA?$AA@ 100dd738     LIBCMTD:winapinls.obj
 0002:0003b744       ??_C@_1M@NIDIIPGF@?$AAe?$AAn?$AA?9?$AAb?$AAz?$AA?$AA@ 100dd744     LIBCMTD:winapinls.obj
 0002:0003b750       ??_C@_1M@JEHMIMFO@?$AAe?$AAn?$AA?9?$AAc?$AAa?$AA?$AA@ 100dd750     LIBCMTD:winapinls.obj
 0002:0003b75c       ??_C@_1M@IGMJCDLA@?$AAe?$AAn?$AA?9?$AAc?$AAb?$AA?$AA@ 100dd75c     LIBCMTD:winapinls.obj
 0002:0003b768       ??_C@_1M@BNFIGBKG@?$AAe?$AAn?$AA?9?$AAg?$AAb?$AA?$AA@ 100dd768     LIBCMTD:winapinls.obj
 0002:0003b774       ??_C@_1M@LKIFDIGP@?$AAe?$AAn?$AA?9?$AAi?$AAe?$AA?$AA@ 100dd774     LIBCMTD:winapinls.obj
 0002:0003b780       ??_C@_1M@PJKFGCCO@?$AAe?$AAn?$AA?9?$AAj?$AAm?$AA?$AA@ 100dd780     LIBCMTD:winapinls.obj
 0002:0003b78c       ??_C@_1M@KPPKEPBO@?$AAe?$AAn?$AA?9?$AAn?$AAz?$AA?$AA@ 100dd78c     LIBCMTD:winapinls.obj
 0002:0003b798       ??_C@_1M@GMDGLDOB@?$AAe?$AAn?$AA?9?$AAp?$AAh?$AA?$AA@ 100dd798     LIBCMTD:winapinls.obj
 0002:0003b7a4       ??_C@_1M@ONGIBJNA@?$AAe?$AAn?$AA?9?$AAt?$AAt?$AA?$AA@ 100dd7a4     LIBCMTD:winapinls.obj
 0002:0003b7b0       ??_C@_1M@LLODPCMM@?$AAe?$AAn?$AA?9?$AAu?$AAs?$AA?$AA@ 100dd7b0     LIBCMTD:winapinls.obj
 0002:0003b7bc       ??_C@_1M@LAKFNPAN@?$AAe?$AAn?$AA?9?$AAz?$AAa?$AA?$AA@ 100dd7bc     LIBCMTD:winapinls.obj
 0002:0003b7c8       ??_C@_1M@MFNHNHEO@?$AAe?$AAn?$AA?9?$AAz?$AAw?$AA?$AA@ 100dd7c8     LIBCMTD:winapinls.obj
 0002:0003b7d4       ??_C@_1M@EJEINPHM@?$AAe?$AAs?$AA?9?$AAa?$AAr?$AA?$AA@ 100dd7d4     LIBCMTD:winapinls.obj
 0002:0003b7e0       ??_C@_1M@GNKPCCJA@?$AAe?$AAs?$AA?9?$AAb?$AAo?$AA?$AA@ 100dd7e0     LIBCMTD:winapinls.obj
 0002:0003b7ec       ??_C@_1M@LEEGFONL@?$AAe?$AAs?$AA?9?$AAc?$AAl?$AA?$AA@ 100dd7ec     LIBCMTD:winapinls.obj
 0002:0003b7f8       ??_C@_1M@KGPDPBDF@?$AAe?$AAs?$AA?9?$AAc?$AAo?$AA?$AA@ 100dd7f8     LIBCMTD:winapinls.obj
 0002:0003b804       ??_C@_1M@EIAHOHH@?$AAe?$AAs?$AA?9?$AAc?$AAr?$AA?$AA@ 100dd804     LIBCMTD:winapinls.obj
 0002:0003b810       ??_C@_1M@LLPGMBIN@?$AAe?$AAs?$AA?9?$AAd?$AAo?$AA?$AA@ 100dd810     LIBCMTD:winapinls.obj
 0002:0003b81c       ??_C@_1M@DKHMKNJA@?$AAe?$AAs?$AA?9?$AAe?$AAc?$AA?$AA@ 100dd81c     LIBCMTD:winapinls.obj
 0002:0003b828       ??_C@_1M@GKGFPKAP@?$AAe?$AAs?$AA?9?$AAe?$AAs?$AA?$AA@ 100dd828     LIBCMTD:winapinls.obj
 0002:0003b834       ??_C@_1M@LKHKGDLN@?$AAe?$AAs?$AA?9?$AAg?$AAt?$AA?$AA@ 100dd834     LIBCMTD:winapinls.obj
 0002:0003b840       ??_C@_1M@HEIIGGJD@?$AAe?$AAs?$AA?9?$AAh?$AAn?$AA?$AA@ 100dd840     LIBCMTD:winapinls.obj
 0002:0003b84c       ??_C@_1M@FBDHPPGD@?$AAe?$AAs?$AA?9?$AAm?$AAx?$AA?$AA@ 100dd84c     LIBCMTD:winapinls.obj
 0002:0003b858       ??_C@_1M@DPAGLNDH@?$AAe?$AAs?$AA?9?$AAn?$AAi?$AA?$AA@ 100dd858     LIBCMTD:winapinls.obj
 0002:0003b864       ??_C@_1M@MDGOPGDD@?$AAe?$AAs?$AA?9?$AAp?$AAa?$AA?$AA@ 100dd864     LIBCMTD:winapinls.obj
 0002:0003b870       ??_C@_1M@EMAMGBGE@?$AAe?$AAs?$AA?9?$AAp?$AAe?$AA?$AA@ 100dd870     LIBCMTD:winapinls.obj
 0002:0003b87c       ??_C@_1M@IBMCAOEC@?$AAe?$AAs?$AA?9?$AAp?$AAr?$AA?$AA@ 100dd87c     LIBCMTD:winapinls.obj
 0002:0003b888       ??_C@_1M@FGMDIJED@?$AAe?$AAs?$AA?9?$AAp?$AAy?$AA?$AA@ 100dd888     LIBCMTD:winapinls.obj
 0002:0003b894       ??_C@_1M@IIDEOLLL@?$AAe?$AAs?$AA?9?$AAs?$AAv?$AA?$AA@ 100dd894     LIBCMTD:winapinls.obj
 0002:0003b8a0       ??_C@_1M@GAOBIPA@?$AAe?$AAs?$AA?9?$AAu?$AAy?$AA?$AA@ 100dd8a0     LIBCMTD:winapinls.obj
 0002:0003b8ac       ??_C@_1M@JKFFICHJ@?$AAe?$AAs?$AA?9?$AAv?$AAe?$AA?$AA@ 100dd8ac     LIBCMTD:winapinls.obj
 0002:0003b8b8       ??_C@_1M@PNMLOJDF@?$AAe?$AAt?$AA?9?$AAe?$AAe?$AA?$AA@ 100dd8b8     LIBCMTD:winapinls.obj
 0002:0003b8c4       ??_C@_1M@GHHLIKEI@?$AAe?$AAu?$AA?9?$AAe?$AAs?$AA?$AA@ 100dd8c4     LIBCMTD:winapinls.obj
 0002:0003b8d0       ??_C@_1M@PBNONODE@?$AAf?$AAa?$AA?9?$AAi?$AAr?$AA?$AA@ 100dd8d0     LIBCMTD:winapinls.obj
 0002:0003b8dc       ??_C@_1M@JEEHPMIL@?$AAf?$AAi?$AA?9?$AAf?$AAi?$AA?$AA@ 100dd8dc     LIBCMTD:winapinls.obj
 0002:0003b8e8       ??_C@_1M@LMDCNDBA@?$AAf?$AAo?$AA?9?$AAf?$AAo?$AA?$AA@ 100dd8e8     LIBCMTD:winapinls.obj
 0002:0003b8f4       ??_C@_1M@JKEOHLDK@?$AAf?$AAr?$AA?9?$AAb?$AAe?$AA?$AA@ 100dd8f4     LIBCMTD:winapinls.obj
 0002:0003b900       ??_C@_1M@NOHADPMI@?$AAf?$AAr?$AA?9?$AAc?$AAa?$AA?$AA@ 100dd900     LIBCMTD:winapinls.obj
 0002:0003b90c       ??_C@_1M@KDHIHAEC@?$AAf?$AAr?$AA?9?$AAc?$AAh?$AA?$AA@ 100dd90c     LIBCMTD:winapinls.obj
 0002:0003b918       ??_C@_1M@MMBBFGAK@?$AAf?$AAr?$AA?9?$AAf?$AAr?$AA?$AA@ 100dd918     LIBCMTD:winapinls.obj
 0002:0003b924       ??_C@_1M@PAFNENNF@?$AAf?$AAr?$AA?9?$AAl?$AAu?$AA?$AA@ 100dd924     LIBCMTD:winapinls.obj
 0002:0003b930       ??_C@_1M@EOHDJGDD@?$AAf?$AAr?$AA?9?$AAm?$AAc?$AA?$AA@ 100dd930     LIBCMTD:winapinls.obj
 0002:0003b93c       ??_C@_1M@FAPLLOPF@?$AAg?$AAl?$AA?9?$AAe?$AAs?$AA?$AA@ 100dd93c     LIBCMTD:winapinls.obj
 0002:0003b948       ??_C@_1M@FOPBFLOO@?$AAg?$AAu?$AA?9?$AAi?$AAn?$AA?$AA@ 100dd948     LIBCMTD:winapinls.obj
 0002:0003b954       ??_C@_1M@KBMCINPM@?$AAh?$AAe?$AA?9?$AAi?$AAl?$AA?$AA@ 100dd954     LIBCMTD:winapinls.obj
 0002:0003b960       ??_C@_1M@BBPHKFPJ@?$AAh?$AAi?$AA?9?$AAi?$AAn?$AA?$AA@ 100dd960     LIBCMTD:winapinls.obj
 0002:0003b96c       ??_C@_1M@PMBNDPHD@?$AAh?$AAr?$AA?9?$AAb?$AAa?$AA?$AA@ 100dd96c     LIBCMTD:winapinls.obj
 0002:0003b978       ??_C@_1M@BPCKOEGE@?$AAh?$AAr?$AA?9?$AAh?$AAr?$AA?$AA@ 100dd978     LIBCMTD:winapinls.obj
 0002:0003b984       ??_C@_1M@GACBMHKE@?$AAh?$AAu?$AA?9?$AAh?$AAu?$AA?$AA@ 100dd984     LIBCMTD:winapinls.obj
 0002:0003b990       ??_C@_1M@MILPAJJC@?$AAh?$AAy?$AA?9?$AAa?$AAm?$AA?$AA@ 100dd990     LIBCMTD:winapinls.obj
 0002:0003b99c       ??_C@_1M@BABBICEC@?$AAi?$AAd?$AA?9?$AAi?$AAd?$AA?$AA@ 100dd99c     LIBCMTD:winapinls.obj
 0002:0003b9a8       ??_C@_1M@BIKNHHPF@?$AAi?$AAs?$AA?9?$AAi?$AAs?$AA?$AA@ 100dd9a8     LIBCMTD:winapinls.obj
 0002:0003b9b4       ??_C@_1M@NMPCJPHE@?$AAi?$AAt?$AA?9?$AAc?$AAh?$AA?$AA@ 100dd9b4     LIBCMTD:winapinls.obj
 0002:0003b9c0       ??_C@_1M@GHKGFEDF@?$AAi?$AAt?$AA?9?$AAi?$AAt?$AA?$AA@ 100dd9c0     LIBCMTD:winapinls.obj
 0002:0003b9cc       ??_C@_1M@NIEJCJJA@?$AAj?$AAa?$AA?9?$AAj?$AAp?$AA?$AA@ 100dd9cc     LIBCMTD:winapinls.obj
 0002:0003b9d8       ??_C@_1M@JILFNBIM@?$AAk?$AAa?$AA?9?$AAg?$AAe?$AA?$AA@ 100dd9d8     LIBCMTD:winapinls.obj
 0002:0003b9e4       ??_C@_1M@PACPMGPH@?$AAk?$AAk?$AA?9?$AAk?$AAz?$AA?$AA@ 100dd9e4     LIBCMTD:winapinls.obj
 0002:0003b9f0       ??_C@_1M@IELFGMHA@?$AAk?$AAn?$AA?9?$AAi?$AAn?$AA?$AA@ 100dd9f0     LIBCMTD:winapinls.obj
 0002:0003b9fc       ??_C@_1O@IBBJHCH@?$AAk?$AAo?$AAk?$AA?9?$AAi?$AAn?$AA?$AA@ 100dd9fc     LIBCMTD:winapinls.obj
 0002:0003ba0c       ??_C@_1M@DMHAEOGC@?$AAk?$AAo?$AA?9?$AAk?$AAr?$AA?$AA@ 100dda0c     LIBCMTD:winapinls.obj
 0002:0003ba18       ??_C@_1M@HBAHBIGA@?$AAk?$AAy?$AA?9?$AAk?$AAg?$AA?$AA@ 100dda18     LIBCMTD:winapinls.obj
 0002:0003ba24       ??_C@_1M@KPMILCJG@?$AAl?$AAt?$AA?9?$AAl?$AAt?$AA?$AA@ 100dda24     LIBCMTD:winapinls.obj
 0002:0003ba30       ??_C@_1M@BDEKKCA@?$AAl?$AAv?$AA?9?$AAl?$AAv?$AA?$AA@ 100dda30     LIBCMTD:winapinls.obj
 0002:0003ba3c       ??_C@_1M@ELCKCCJJ@?$AAm?$AAi?$AA?9?$AAn?$AAz?$AA?$AA@ 100dda3c     LIBCMTD:winapinls.obj
 0002:0003ba48       ??_C@_1M@CBOOLAPA@?$AAm?$AAk?$AA?9?$AAm?$AAk?$AA?$AA@ 100dda48     LIBCMTD:winapinls.obj
 0002:0003ba54       ??_C@_1M@GPHNBJKN@?$AAm?$AAl?$AA?9?$AAi?$AAn?$AA?$AA@ 100dda54     LIBCMTD:winapinls.obj
 0002:0003ba60       ??_C@_1M@PABJILIG@?$AAm?$AAn?$AA?9?$AAm?$AAn?$AA?$AA@ 100dda60     LIBCMTD:winapinls.obj
 0002:0003ba6c       ??_C@_1M@FGBKKIPG@?$AAm?$AAr?$AA?9?$AAi?$AAn?$AA?$AA@ 100dda6c     LIBCMTD:winapinls.obj
 0002:0003ba78       ??_C@_1M@NDBPDDAL@?$AAm?$AAs?$AA?9?$AAb?$AAn?$AA?$AA@ 100dda78     LIBCMTD:winapinls.obj
 0002:0003ba84       ??_C@_1M@OPIHOOPI@?$AAm?$AAs?$AA?9?$AAm?$AAy?$AA?$AA@ 100dda84     LIBCMTD:winapinls.obj
 0002:0003ba90       ??_C@_1M@PPDBCNFM@?$AAm?$AAt?$AA?9?$AAm?$AAt?$AA?$AA@ 100dda90     LIBCMTD:winapinls.obj
 0002:0003ba9c       ??_C@_1M@KDJDKMDD@?$AAn?$AAb?$AA?9?$AAn?$AAo?$AA?$AA@ 100dda9c     LIBCMTD:winapinls.obj
 0002:0003baa8       ??_C@_1M@KFCFLMJP@?$AAn?$AAl?$AA?9?$AAb?$AAe?$AA?$AA@ 100ddaa8     LIBCMTD:winapinls.obj
 0002:0003bab4       ??_C@_1M@KPOPDDGO@?$AAn?$AAl?$AA?9?$AAn?$AAl?$AA?$AA@ 100ddab4     LIBCMTD:winapinls.obj
 0002:0003bac0       ??_C@_1M@LJKPEMLN@?$AAn?$AAn?$AA?9?$AAn?$AAo?$AA?$AA@ 100ddac0     LIBCMTD:winapinls.obj
 0002:0003bacc       ??_C@_1M@BDGHHBFL@?$AAn?$AAs?$AA?9?$AAz?$AAa?$AA?$AA@ 100ddacc     LIBCMTD:winapinls.obj
 0002:0003bad8       ??_C@_1M@IDEHOAP@?$AAp?$AAa?$AA?9?$AAi?$AAn?$AA?$AA@ 100ddad8     LIBCMTD:winapinls.obj
 0002:0003bae4       ??_C@_1M@HDBKGOGH@?$AAp?$AAl?$AA?9?$AAp?$AAl?$AA?$AA@ 100ddae4     LIBCMTD:winapinls.obj
 0002:0003baf0       ??_C@_1M@LJLLCMEH@?$AAp?$AAt?$AA?9?$AAb?$AAr?$AA?$AA@ 100ddaf0     LIBCMTD:winapinls.obj
 0002:0003bafc       ??_C@_1M@NCMONAAL@?$AAp?$AAt?$AA?9?$AAp?$AAt?$AA?$AA@ 100ddafc     LIBCMTD:winapinls.obj
 0002:0003bb08       ??_C@_1O@EAKMAJDN@?$AAq?$AAu?$AAz?$AA?9?$AAb?$AAo?$AA?$AA@ 100ddb08     LIBCMTD:winapinls.obj
 0002:0003bb18       ??_C@_1O@BHHPIGDN@?$AAq?$AAu?$AAz?$AA?9?$AAe?$AAc?$AA?$AA@ 100ddb18     LIBCMTD:winapinls.obj
 0002:0003bb28       ??_C@_1O@GBAPEKMJ@?$AAq?$AAu?$AAz?$AA?9?$AAp?$AAe?$AA?$AA@ 100ddb28     LIBCMTD:winapinls.obj
 0002:0003bb38       ??_C@_1M@CLGLEFBO@?$AAr?$AAo?$AA?9?$AAr?$AAo?$AA?$AA@ 100ddb38     LIBCMTD:winapinls.obj
 0002:0003bb44       ??_C@_1M@CEEDODME@?$AAr?$AAu?$AA?9?$AAr?$AAu?$AA?$AA@ 100ddb44     LIBCMTD:winapinls.obj
 0002:0003bb50       ??_C@_1M@HPKKKMPP@?$AAs?$AAa?$AA?9?$AAi?$AAn?$AA?$AA@ 100ddb50     LIBCMTD:winapinls.obj
 0002:0003bb5c       ??_C@_1M@BKMAIGOJ@?$AAs?$AAe?$AA?9?$AAf?$AAi?$AA?$AA@ 100ddb5c     LIBCMTD:winapinls.obj
 0002:0003bb68       ??_C@_1M@NDPIFLFI@?$AAs?$AAe?$AA?9?$AAn?$AAo?$AA?$AA@ 100ddb68     LIBCMTD:winapinls.obj
 0002:0003bb74       ??_C@_1M@DANKKHJ@?$AAs?$AAe?$AA?9?$AAs?$AAe?$AA?$AA@ 100ddb74     LIBCMTD:winapinls.obj
 0002:0003bb80       ??_C@_1M@PNBLONPJ@?$AAs?$AAk?$AA?9?$AAs?$AAk?$AA?$AA@ 100ddb80     LIBCMTD:winapinls.obj
 0002:0003bb8c       ??_C@_1M@LFMODOAL@?$AAs?$AAl?$AA?9?$AAs?$AAi?$AA?$AA@ 100ddb8c     LIBCMTD:winapinls.obj
 0002:0003bb98       ??_C@_1O@DFKOMPG@?$AAs?$AAm?$AAa?$AA?9?$AAn?$AAo?$AA?$AA@ 100ddb98     LIBCMTD:winapinls.obj
 0002:0003bba8       ??_C@_1O@NDKPBNNH@?$AAs?$AAm?$AAa?$AA?9?$AAs?$AAe?$AA?$AA@ 100ddba8     LIBCMTD:winapinls.obj
 0002:0003bbb8       ??_C@_1O@PLLKBHAB@?$AAs?$AAm?$AAj?$AA?9?$AAn?$AAo?$AA?$AA@ 100ddbb8     LIBCMTD:winapinls.obj
 0002:0003bbc8       ??_C@_1O@CLEPOGCA@?$AAs?$AAm?$AAj?$AA?9?$AAs?$AAe?$AA?$AA@ 100ddbc8     LIBCMTD:winapinls.obj
 0002:0003bbd8       ??_C@_1O@DLGJGKMK@?$AAs?$AAm?$AAn?$AA?9?$AAf?$AAi?$AA?$AA@ 100ddbd8     LIBCMTD:winapinls.obj
 0002:0003bbe8       ??_C@_1O@OJDJGAJC@?$AAs?$AAm?$AAs?$AA?9?$AAf?$AAi?$AA?$AA@ 100ddbe8     LIBCMTD:winapinls.obj
 0002:0003bbf8       ??_C@_1M@BOFOGHPB@?$AAs?$AAq?$AA?9?$AAa?$AAl?$AA?$AA@ 100ddbf8     LIBCMTD:winapinls.obj
 0002:0003bc04       ??_C@_1BG@LJBBIPGB@?$AAs?$AAr?$AA?9?$AAb?$AAa?$AA?9?$AAc?$AAy?$AAr?$AAl?$AA?$AA@ 100ddc04     LIBCMTD:winapinls.obj
 0002:0003bc1c       ??_C@_1BG@JLBENFOE@?$AAs?$AAr?$AA?9?$AAb?$AAa?$AA?9?$AAl?$AAa?$AAt?$AAn?$AA?$AA@ 100ddc1c     LIBCMTD:winapinls.obj
 0002:0003bc34       ??_C@_1BG@KODPNHE@?$AAs?$AAr?$AA?9?$AAs?$AAp?$AA?9?$AAc?$AAy?$AAr?$AAl?$AA?$AA@ 100ddc34     LIBCMTD:winapinls.obj
 0002:0003bc4c       ??_C@_1BG@CIOGKHPB@?$AAs?$AAr?$AA?9?$AAs?$AAp?$AA?9?$AAl?$AAa?$AAt?$AAn?$AA?$AA@ 100ddc4c     LIBCMTD:winapinls.obj
 0002:0003bc64       ??_C@_1M@NGFJLMAC@?$AAs?$AAv?$AA?9?$AAf?$AAi?$AA?$AA@ 100ddc64     LIBCMTD:winapinls.obj
 0002:0003bc70       ??_C@_1M@MPJEJAJC@?$AAs?$AAv?$AA?9?$AAs?$AAe?$AA?$AA@ 100ddc70     LIBCMTD:winapinls.obj
 0002:0003bc7c       ??_C@_1M@MPNDHLFK@?$AAs?$AAw?$AA?9?$AAk?$AAe?$AA?$AA@ 100ddc7c     LIBCMTD:winapinls.obj
 0002:0003bc88       ??_C@_1O@KOHBJJI@?$AAs?$AAy?$AAr?$AA?9?$AAs?$AAy?$AA?$AA@ 100ddc88     LIBCMTD:winapinls.obj
 0002:0003bc98       ??_C@_1M@LDCEFHA@?$AAt?$AAa?$AA?9?$AAi?$AAn?$AA?$AA@ 100ddc98     LIBCMTD:winapinls.obj
 0002:0003bca4       ??_C@_1M@CNJOFAK@?$AAt?$AAe?$AA?9?$AAi?$AAn?$AA?$AA@ 100ddca4     LIBCMTD:winapinls.obj
 0002:0003bcb0       ??_C@_1M@GNAECACD@?$AAt?$AAh?$AA?9?$AAt?$AAh?$AA?$AA@ 100ddcb0     LIBCMTD:winapinls.obj
 0002:0003bcbc       ??_C@_1M@CHBIHOJO@?$AAt?$AAn?$AA?9?$AAz?$AAa?$AA?$AA@ 100ddcbc     LIBCMTD:winapinls.obj
 0002:0003bcc8       ??_C@_1M@GCCMIGPJ@?$AAt?$AAr?$AA?9?$AAt?$AAr?$AA?$AA@ 100ddcc8     LIBCMTD:winapinls.obj
 0002:0003bcd4       ??_C@_1M@CELMCNBK@?$AAt?$AAt?$AA?9?$AAr?$AAu?$AA?$AA@ 100ddcd4     LIBCMTD:winapinls.obj
 0002:0003bce0       ??_C@_1M@KLMCELGA@?$AAu?$AAk?$AA?9?$AAu?$AAa?$AA?$AA@ 100ddce0     LIBCMTD:winapinls.obj
 0002:0003bcec       ??_C@_1M@EPAJJAJF@?$AAu?$AAr?$AA?9?$AAp?$AAk?$AA?$AA@ 100ddcec     LIBCMTD:winapinls.obj
 0002:0003bcf8       ??_C@_1BG@GEGPMCDJ@?$AAu?$AAz?$AA?9?$AAu?$AAz?$AA?9?$AAc?$AAy?$AAr?$AAl?$AA?$AA@ 100ddcf8     LIBCMTD:winapinls.obj
 0002:0003bd10       ??_C@_1BG@EGGKJILM@?$AAu?$AAz?$AA?9?$AAu?$AAz?$AA?9?$AAl?$AAa?$AAt?$AAn?$AA?$AA@ 100ddd10     LIBCMTD:winapinls.obj
 0002:0003bd28       ??_C@_1M@GFOCLFF@?$AAv?$AAi?$AA?9?$AAv?$AAn?$AA?$AA@ 100ddd28     LIBCMTD:winapinls.obj
 0002:0003bd34       ??_C@_1M@CPAMEDFI@?$AAx?$AAh?$AA?9?$AAz?$AAa?$AA?$AA@ 100ddd34     LIBCMTD:winapinls.obj
 0002:0003bd40       ??_C@_1O@EBKIFIGN@?$AAz?$AAh?$AA?9?$AAc?$AAh?$AAs?$AA?$AA@ 100ddd40     LIBCMTD:winapinls.obj
 0002:0003bd50       ??_C@_1O@NMHPGANE@?$AAz?$AAh?$AA?9?$AAc?$AAh?$AAt?$AA?$AA@ 100ddd50     LIBCMTD:winapinls.obj
 0002:0003bd60       ??_C@_1M@LPINJOMC@?$AAz?$AAh?$AA?9?$AAc?$AAn?$AA?$AA@ 100ddd60     LIBCMTD:winapinls.obj
 0002:0003bd6c       ??_C@_1M@OCJEJODD@?$AAz?$AAh?$AA?9?$AAh?$AAk?$AA?$AA@ 100ddd6c     LIBCMTD:winapinls.obj
 0002:0003bd78       ??_C@_1M@DNDLJINH@?$AAz?$AAh?$AA?9?$AAm?$AAo?$AA?$AA@ 100ddd78     LIBCMTD:winapinls.obj
 0002:0003bd84       ??_C@_1M@MBFDNDND@?$AAz?$AAh?$AA?9?$AAs?$AAg?$AA?$AA@ 100ddd84     LIBCMTD:winapinls.obj
 0002:0003bd90       ??_C@_1M@IMEPLEPE@?$AAz?$AAh?$AA?9?$AAt?$AAw?$AA?$AA@ 100ddd90     LIBCMTD:winapinls.obj
 0002:0003bd9c       ??_C@_1M@BBGHNHJP@?$AAz?$AAu?$AA?9?$AAz?$AAa?$AA?$AA@ 100ddd9c     LIBCMTD:winapinls.obj
 0002:0003bda8       ??_C@_15EMKDOKLE@?$AAa?$AAr?$AA?$AA@ 100ddda8     LIBCMTD:winapinls.obj
 0002:0003bdb0       ??_C@_15KNPADPLH@?$AAb?$AAg?$AA?$AA@ 100dddb0     LIBCMTD:winapinls.obj
 0002:0003bdb8       ??_C@_0CJ@IGOJMKM@f?3?2dd?2vctools?2crt?2crtw32?2lowio?2o@ 100dddb8     LIBCMTD:osfinfo.obj
 0002:0003bde8       ??_C@_1FC@BEKMGBFL@?$AAf?$AA?3?$AA?2?$AAd?$AAd?$AA?2?$AAv?$AAc?$AAt?$AAo?$AAo?$AAl?$AAs?$AA?2?$AAc?$AAr?$AAt?$AA?2?$AAc?$AAr?$AAt?$AAw?$AA3?$AA2?$AA?2?$AAl?$AAo?$AAw?$AAi?$AAo?$AA?2?$AAo@ 100ddde8     LIBCMTD:osfinfo.obj
 0002:0003be3c       ??_C@_1BO@EMBOBGKE@?$AA_?$AAg?$AAe?$AAt?$AA_?$AAo?$AAs?$AAf?$AAh?$AAa?$AAn?$AAd?$AAl?$AAe?$AA?$AA@ 100dde3c     LIBCMTD:osfinfo.obj
 0002:0003be60       ??_C@_1HC@KFLBHHBC@?$AA?$CI?$AAf?$AAi?$AAl?$AAe?$AAd?$AAe?$AAs?$AA?5?$AA?$DO?$AA?$DN?$AA?5?$AA0?$AA?5?$AA?$CG?$AA?$CG?$AA?5?$AA?$CI?$AAu?$AAn?$AAs?$AAi?$AAg?$AAn?$AAe?$AAd?$AA?$CJ?$AAf?$AAi?$AAl?$AAe?$AAd@ 100dde60     LIBCMTD:commit.obj
 0002:0003bed8       ??_C@_1FA@HELGICMG@?$AAf?$AA?3?$AA?2?$AAd?$AAd?$AA?2?$AAv?$AAc?$AAt?$AAo?$AAo?$AAl?$AAs?$AA?2?$AAc?$AAr?$AAt?$AA?2?$AAc?$AAr?$AAt?$AAw?$AA3?$AA2?$AA?2?$AAl?$AAo?$AAw?$AAi?$AAo?$AA?2?$AAc@ 100dded8     LIBCMTD:commit.obj
 0002:0003bf28       ??_C@_1BA@FLNMBBIM@?$AA_?$AAc?$AAo?$AAm?$AAm?$AAi?$AAt?$AA?$AA@ 100ddf28     LIBCMTD:commit.obj
 0002:0003bf38       ??_C@_1DG@LNNHNFHJ@?$AA?$CI?$AA_?$AAo?$AAs?$AAf?$AAi?$AAl?$AAe?$AA?$CI?$AAf?$AAi?$AAl?$AAe?$AAd?$AAe?$AAs?$AA?$CJ?$AA?5?$AA?$CG?$AA?5?$AAF?$AAO?$AAP?$AAE?$AAN?$AA?$CJ?$AA?$AA@ 100ddf38     LIBCMTD:commit.obj
 0002:0003bf70       ??_C@_1EO@NLGPLDCN@?$AAf?$AA?3?$AA?2?$AAd?$AAd?$AA?2?$AAv?$AAc?$AAt?$AAo?$AAo?$AAl?$AAs?$AA?2?$AAc?$AAr?$AAt?$AA?2?$AAc?$AAr?$AAt?$AAw?$AA3?$AA2?$AA?2?$AAl?$AAo?$AAw?$AAi?$AAo?$AA?2?$AAw@ 100ddf70     LIBCMTD:write.obj
 0002:0003bfc0       ??_C@_1O@KOFKDHPL@?$AA_?$AAw?$AAr?$AAi?$AAt?$AAe?$AA?$AA@ 100ddfc0     LIBCMTD:write.obj
 0002:0003bfd0       ??_C@_1BM@KFJLMBPG@?$AA?$CI?$AAb?$AAu?$AAf?$AA?5?$AA?$CB?$AA?$DN?$AA?5?$AAN?$AAU?$AAL?$AAL?$AA?$CJ?$AA?$AA@ 100ddfd0     LIBCMTD:write.obj
 0002:0003bfec       ??_C@_1BM@NCANHCIP@?$AA_?$AAw?$AAr?$AAi?$AAt?$AAe?$AA_?$AAn?$AAo?$AAl?$AAo?$AAc?$AAk?$AA?$AA@ 100ddfec     LIBCMTD:write.obj
 0002:0003c008       ??_C@_1DI@CNMHHHLG@?$AAi?$AAs?$AAl?$AAe?$AAa?$AAd?$AAb?$AAy?$AAt?$AAe?$AA?$CI?$AA_?$AAd?$AAb?$AAc?$AAs?$AAB?$AAu?$AAf?$AAf?$AAe?$AAr?$AA?$CI?$AAf?$AAh?$AA?$CJ?$AA?$CJ?$AA?$AA@ 100de008     LIBCMTD:write.obj
 0002:0003c040       ??_C@_1BO@DPAOGEII@?$AA?$CI?$AAp?$AAa?$AAt?$AAh?$AA?5?$AA?$CB?$AA?$DN?$AA?5?$AAN?$AAU?$AAL?$AAL?$AA?$CJ?$AA?$AA@ 100de040     LIBCMTD:open.obj
 0002:0003c060       ??_C@_1EM@MNGNPLOA@?$AAf?$AA?3?$AA?2?$AAd?$AAd?$AA?2?$AAv?$AAc?$AAt?$AAo?$AAo?$AAl?$AAs?$AA?2?$AAc?$AAr?$AAt?$AA?2?$AAc?$AAr?$AAt?$AAw?$AA3?$AA2?$AA?2?$AAl?$AAo?$AAw?$AAi?$AAo?$AA?2?$AAo@ 100de060     LIBCMTD:open.obj
 0002:0003c0ac       ??_C@_1BM@PGEEHLHE@?$AA?$CI?$AAp?$AAf?$AAh?$AA?5?$AA?$CB?$AA?$DN?$AA?5?$AAN?$AAU?$AAL?$AAL?$AA?$CJ?$AA?$AA@ 100de0ac     LIBCMTD:open.obj
 0002:0003c0c8       ??_C@_1BM@IOBAMMHO@?$AA_?$AAs?$AAo?$AAp?$AAe?$AAn?$AA_?$AAh?$AAe?$AAl?$AAp?$AAe?$AAr?$AA?$AA@ 100de0c8     LIBCMTD:open.obj
 0002:0003c0e8       ??_C@_1FG@NFINBJCM@?$AA?$CI?$AA?$CI?$AAp?$AAm?$AAo?$AAd?$AAe?$AA?5?$AA?$CG?$AA?5?$AA?$CI?$AA?$HO?$AA?$CI?$AA_?$AAS?$AA_?$AAI?$AAR?$AAE?$AAA?$AAD?$AA?5?$AA?$HM?$AA?5?$AA_?$AAS?$AA_?$AAI?$AAW?$AAR?$AAI?$AAT@ 100de0e8     LIBCMTD:open.obj
 0002:0003c140       ??_C@_1BG@MODEICJK@?$AAs?$AA1?$AA?5?$AA?$CB?$AA?$DN?$AA?5?$AAN?$AAU?$AAL?$AAL?$AA?$AA@ 100de140     LIBCMTD:mbsnbcmp.obj
 0002:0003c158       ??_C@_1FK@HBIEJCLJ@?$AAf?$AA?3?$AA?2?$AAd?$AAd?$AA?2?$AAv?$AAc?$AAt?$AAo?$AAo?$AAl?$AAs?$AA?2?$AAc?$AAr?$AAt?$AA?2?$AAc?$AAr?$AAt?$AAw?$AA3?$AA2?$AA?2?$AAm?$AAb?$AAs?$AAt?$AAr?$AAi?$AAn@ 100de158     LIBCMTD:mbsnbcmp.obj
 0002:0003c1b4       ??_C@_1BI@LPHOHGHI@?$AA_?$AAm?$AAb?$AAs?$AAn?$AAb?$AAc?$AAm?$AAp?$AA_?$AAl?$AA?$AA@ 100de1b4     LIBCMTD:mbsnbcmp.obj
 0002:0003c1cc       ??_C@_1BG@GBJNMPFA@?$AAs?$AA2?$AA?5?$AA?$CB?$AA?$DN?$AA?5?$AAN?$AAU?$AAL?$AAL?$AA?$AA@ 100de1cc     LIBCMTD:mbsnbcmp.obj
 0002:0003c1e8       ??_C@_1FK@GCMEGOJB@?$AAf?$AA?3?$AA?2?$AAd?$AAd?$AA?2?$AAv?$AAc?$AAt?$AAo?$AAo?$AAl?$AAs?$AA?2?$AAc?$AAr?$AAt?$AA?2?$AAc?$AAr?$AAt?$AAw?$AA3?$AA2?$AA?2?$AAm?$AAb?$AAs?$AAt?$AAr?$AAi?$AAn@ 100de1e8     LIBCMTD:mbsnbicm.obj
 0002:0003c244       ??_C@_1BK@GEJONGBG@?$AA_?$AAm?$AAb?$AAs?$AAn?$AAb?$AAi?$AAc?$AAm?$AAp?$AA_?$AAl?$AA?$AA@ 100de244     LIBCMTD:mbsnbicm.obj
 0002:0003c260       ??_C@_1FC@LGKDBMCL@?$AAf?$AA?3?$AA?2?$AAd?$AAd?$AA?2?$AAv?$AAc?$AAt?$AAo?$AAo?$AAl?$AAs?$AA?2?$AAc?$AAr?$AAt?$AA?2?$AAc?$AAr?$AAt?$AAw?$AA3?$AA2?$AA?2?$AAs?$AAt?$AAd?$AAi?$AAo?$AA?2?$AA_@ 100de260     LIBCMTD:_getbuf.obj
 0002:0003c2b4       ??_C@_0CJ@NMDFOMAF@f?3?2dd?2vctools?2crt?2crtw32?2stdio?2_@ 100de2b4     LIBCMTD:_getbuf.obj
 0002:0003c2e0       ??_C@_1FA@NFCHPDNG@?$AAf?$AA?3?$AA?2?$AAd?$AAd?$AA?2?$AAv?$AAc?$AAt?$AAo?$AAo?$AAl?$AAs?$AA?2?$AAc?$AAr?$AAt?$AA?2?$AAc?$AAr?$AAt?$AAw?$AA3?$AA2?$AA?2?$AAl?$AAo?$AAw?$AAi?$AAo?$AA?2?$AAi@ 100de2e0     LIBCMTD:isatty.obj
 0002:0003c330       ??_C@_1BA@LEBDGIHM@?$AA_?$AAi?$AAs?$AAa?$AAt?$AAt?$AAy?$AA?$AA@ 100de330     LIBCMTD:isatty.obj
 0002:0003c340       ??_C@_1EE@DMAIGNBG@?$AA?$CI?$AA?$CC?$AAI?$AAn?$AAc?$AAo?$AAr?$AAr?$AAe?$AAc?$AAt?$AA?5?$AAf?$AAo?$AAr?$AAm?$AAa?$AAt?$AA?5?$AAs?$AAp?$AAe?$AAc?$AAi?$AAf?$AAi?$AAe?$AAr?$AA?$CC?$AA?0?$AA?5?$AA0@ 100de340     LIBCMTD:outputp.obj
 0002:0003c388       ??_C@_1FK@LNCFKALM@?$AA?$CI?$AA?$CI?$AAs?$AAt?$AAa?$AAt?$AAe?$AA?5?$AA?$DN?$AA?$DN?$AA?5?$AAS?$AAT?$AA_?$AAN?$AAO?$AAR?$AAM?$AAA?$AAL?$AA?$CJ?$AA?5?$AA?$HM?$AA?$HM?$AA?5?$AA?$CI?$AAs?$AAt?$AAa?$AAt?$AAe?$AA?5@ 100de388     LIBCMTD:outputp.obj
 0002:0003c3e8       ___lookuptable_s           100de3e8     LIBCMTD:outputs.obj
 0002:0003c444       ??_C@_1BI@COFBLHCG@?$AA_?$AAo?$AAu?$AAt?$AAp?$AAu?$AAt?$AA_?$AAs?$AA_?$AAl?$AA?$AA@ 100de444     LIBCMTD:outputs.obj
 0002:0003c45c       ??_C@_1CO@HFMIILNF@?$AAs?$AAi?$AAz?$AAe?$AAI?$AAn?$AAB?$AAy?$AAt?$AAe?$AAs?$AA?5?$AA?$DM?$AA?$DN?$AA?5?$AAI?$AAN?$AAT?$AA_?$AAM?$AAA?$AAX?$AA?$AA@ 100de45c     LIBCMTD:wctomb.obj
 0002:0003c490       ??_C@_1FE@GKMDCPPB@?$AAf?$AA?3?$AA?2?$AAd?$AAd?$AA?2?$AAv?$AAc?$AAt?$AAo?$AAo?$AAl?$AAs?$AA?2?$AAc?$AAr?$AAt?$AA?2?$AAc?$AAr?$AAt?$AAw?$AA3?$AA2?$AA?2?$AAc?$AAo?$AAn?$AAv?$AAe?$AAr?$AAt@ 100de490     LIBCMTD:wctomb.obj
 0002:0003c4e4       ??_C@_1BI@IEADNOHF@?$AA_?$AAw?$AAc?$AAt?$AAo?$AAm?$AAb?$AA_?$AAs?$AA_?$AAl?$AA?$AA@ 100de4e4     LIBCMTD:wctomb.obj
 0002:0003c4fc       ??_C@_1BC@CFJEPFGF@?$AAs?$AAt?$AAr?$AAc?$AAp?$AAy?$AA_?$AAs?$AA?$AA@ 100de4fc     LIBCMTD:strcpy_s.obj
 0002:0003c510       ??_C@_1EO@JOEHPJNP@?$AAf?$AA?3?$AA?2?$AAd?$AAd?$AA?2?$AAv?$AAc?$AAt?$AAo?$AAo?$AAl?$AAs?$AA?2?$AAc?$AAr?$AAt?$AA?2?$AAc?$AAr?$AAt?$AAw?$AA3?$AA2?$AA?2?$AAm?$AAi?$AAs?$AAc?$AA?2?$AAg?$AAe@ 100de510     LIBCMTD:getenv.obj
 0002:0003c560       ??_C@_1GI@JBIFPFJH@?$AA_?$AAt?$AAc?$AAs?$AAn?$AAl?$AAe?$AAn?$AA?$CI?$AA?$CK?$AAs?$AAe?$AAa?$AAr?$AAc?$AAh?$AA?5?$AA?$CL?$AA?5?$AAl?$AAe?$AAn?$AAg?$AAt?$AAh?$AA?5?$AA?$CL?$AA?5?$AA1?$AA?0?$AA?5?$AA_@ 100de560     LIBCMTD:getenv.obj
 0002:0003c5c8       ??_C@_0CH@JPGODKFM@f?3?2dd?2vctools?2crt?2crtw32?2misc?2on@ 100de5c8     LIBCMTD:onexit.obj
 0002:0003c5f0       ??_C@_1FC@LKGACDMH@?$AAf?$AA?3?$AA?2?$AAd?$AAd?$AA?2?$AAv?$AAc?$AAt?$AAo?$AAo?$AAl?$AAs?$AA?2?$AAc?$AAr?$AAt?$AA?2?$AAc?$AAr?$AAt?$AAw?$AA3?$AA2?$AA?2?$AAs?$AAt?$AAd?$AAi?$AAo?$AA?2?$AA_@ 100de5f0     LIBCMTD:_sftbuf.obj
 0002:0003c644       ??_C@_0CJ@KDJGPIJL@f?3?2dd?2vctools?2crt?2crtw32?2stdio?2_@ 100de644     LIBCMTD:_sftbuf.obj
 0002:0003c670       ??_C@_1CO@KCKAACMI@?$AAf?$AAl?$AAa?$AAg?$AA?5?$AA?$DN?$AA?$DN?$AA?5?$AA0?$AA?5?$AA?$HM?$AA?$HM?$AA?5?$AAf?$AAl?$AAa?$AAg?$AA?5?$AA?$DN?$AA?$DN?$AA?5?$AA1?$AA?$AA@ 100de670     LIBCMTD:_sftbuf.obj
 0002:0003c6a0       ??_C@_1BG@BBCDFOMA@?$AA_?$AAw?$AAo?$AAu?$AAt?$AAp?$AAu?$AAt?$AA_?$AAl?$AA?$AA@ 100de6a0     LIBCMTD:woutput.obj
 0002:0003c6b8       ??_C@_1BK@ONMFGLDB@?$AA_?$AAw?$AAo?$AAu?$AAt?$AAp?$AAu?$AAt?$AA_?$AAs?$AA_?$AAl?$AA?$AA@ 100de6b8     LIBCMTD:woutputs.obj
 0002:0003c6e0       __indefinite               100de6e0     LIBCMTD:87disp.obj
 0002:0003c6ea       __piby2                    100de6ea     LIBCMTD:87disp.obj
 0002:0003df38       __DEFAULT_CW_in_mem        100dff38     LIBCMTD:common.obj
 0002:0003df3a       __pi_by_2_to_61            100dff3a     LIBCMTD:common.obj
 0002:00043950       __infinity                 100e5950     LIBCMTD:87tran.obj
 0002:0004395a       __minfinity                100e595a     LIBCMTD:87tran.obj
 0002:00043964       __logemax                  100e5964     LIBCMTD:87tran.obj
 0002:0004398a       __OP_EXPjmptab             100e598a     LIBCMTD:87tran.obj
 0002:000439b0       __real@4000000000000000    100e59b0     LIBCMTD:powhlp.obj
 0002:00045900       ??_C@_1FI@JBLIKEIM@?$AAf?$AA?3?$AA?2?$AAd?$AAd?$AA?2?$AAv?$AAc?$AAt?$AAo?$AAo?$AAl?$AAs?$AA?2?$AAc?$AAr?$AAt?$AA?2?$AAc?$AAr?$AAt?$AAw?$AA3?$AA2?$AA?2?$AAc?$AAo?$AAn?$AAv?$AAe?$AAr?$AAt@ 100e7900     LIBCMTD:_fptostr.obj
 0002:00045958       ??_C@_1BC@OPALLEB@?$AA_?$AAf?$AAp?$AAt?$AAo?$AAs?$AAt?$AAr?$AA?$AA@ 100e7958     LIBCMTD:_fptostr.obj
 0002:00045970       ??_C@_1GM@CEDLGDDI@?$AAs?$AAi?$AAz?$AAe?$AAI?$AAn?$AAB?$AAy?$AAt?$AAe?$AAs?$AA?5?$AA?$DO?$AA?5?$AA?$CI?$AAs?$AAi?$AAz?$AAe?$AA_?$AAt?$AA?$CJ?$AA?$CI?$AA?$CI?$AAd?$AAi?$AAg?$AAi?$AAt?$AAs?$AA?5?$AA?$DO@ 100e7970     LIBCMTD:_fptostr.obj
 0002:000459dc       ??_C@_1BK@CLIEHFDF@?$AAp?$AAf?$AAl?$AAt?$AA?5?$AA?$CB?$AA?$DN?$AA?5?$AAN?$AAU?$AAL?$AAL?$AA?$AA@ 100e79dc     LIBCMTD:_fptostr.obj
 0002:000459f8       ??_C@_1EK@LJBJCHGA@?$AAf?$AA?3?$AA?2?$AAd?$AAd?$AA?2?$AAv?$AAc?$AAt?$AAo?$AAo?$AAl?$AAs?$AA?2?$AAc?$AAr?$AAt?$AA?2?$AAf?$AAp?$AAw?$AA3?$AA2?$AA?2?$AAc?$AAo?$AAn?$AAv?$AA?2?$AAc?$AAf?$AAo@ 100e79f8     LIBCMTD:cfout.obj
 0002:00045a44       ??_C@_1BC@BPMMEHLK@?$AA_?$AAf?$AAl?$AAt?$AAo?$AAu?$AAt?$AA2?$AA?$AA@ 100e7a44     LIBCMTD:cfout.obj
 0002:00045a58       ??_C@_1FK@KODCOBKF@?$AAs?$AAt?$AAr?$AAc?$AAp?$AAy?$AA_?$AAs?$AA?$CI?$AAr?$AAe?$AAs?$AAu?$AAl?$AAt?$AAs?$AAt?$AAr?$AA?0?$AA?5?$AAr?$AAe?$AAs?$AAu?$AAl?$AAt?$AAs?$AAi?$AAz?$AAe?$AA?0?$AA?5@ 100e7a58     LIBCMTD:cfout.obj
 0002:00045ab4       ??_C@_1DG@JNDMIEJL@?$AA?$CI?$AA?$CC?$AAI?$AAn?$AAv?$AAa?$AAl?$AAi?$AAd?$AA?5?$AAi?$AAn?$AAp?$AAu?$AAt?$AA?5?$AAv?$AAa?$AAl?$AAu?$AAe?$AA?$CC?$AA?0?$AA?5?$AA0?$AA?$CJ?$AA?$AA@ 100e7ab4     LIBCMTD:contrlfp.obj
 0002:00045af0       ??_C@_1FA@IJLDLDMO@?$AAf?$AA?3?$AA?2?$AAd?$AAd?$AA?2?$AAv?$AAc?$AAt?$AAo?$AAo?$AAl?$AAs?$AA?2?$AAc?$AAr?$AAt?$AA?2?$AAf?$AAp?$AAw?$AA3?$AA2?$AA?2?$AAt?$AAr?$AAa?$AAn?$AA?2?$AAc?$AAo?$AAn@ 100e7af0     LIBCMTD:contrlfp.obj
 0002:00045b40       ??_C@_1BK@CDOALEA@?$AA_?$AAc?$AAo?$AAn?$AAt?$AAr?$AAo?$AAl?$AAf?$AAp?$AA_?$AAs?$AA?$AA@ 100e7b40     LIBCMTD:contrlfp.obj
 0002:00045b5c       ??_C@_1BC@HGPNAKGC@?$AAs?$AAt?$AAr?$AAc?$AAa?$AAt?$AA_?$AAs?$AA?$AA@ 100e7b5c     LIBCMTD:strcat_s.obj
 0002:00045b70       ??_C@_1O@GIMBNLEI@?$AAx?$AAt?$AAo?$AAa?$AA_?$AAs?$AA?$AA@ 100e7b70     LIBCMTD:xtoas.obj
 0002:00045b80       ??_C@_1BE@EEKACIGI@?$AAs?$AA?5?$AA?$CB?$AA?$DN?$AA?5?$AAN?$AAU?$AAL?$AAL?$AA?$AA@ 100e7b80     LIBCMTD:mbstowcs.obj
 0002:00045b98       ??_C@_1FI@DADFCCMF@?$AAf?$AA?3?$AA?2?$AAd?$AAd?$AA?2?$AAv?$AAc?$AAt?$AAo?$AAo?$AAl?$AAs?$AA?2?$AAc?$AAr?$AAt?$AA?2?$AAc?$AAr?$AAt?$AAw?$AA3?$AA2?$AA?2?$AAc?$AAo?$AAn?$AAv?$AAe?$AAr?$AAt@ 100e7b98     LIBCMTD:mbstowcs.obj
 0002:00045bf0       ??_C@_1CG@JEHFHLNG@?$AA_?$AAm?$AAb?$AAs?$AAt?$AAo?$AAw?$AAc?$AAs?$AA_?$AAl?$AA_?$AAh?$AAe?$AAl?$AAp?$AAe?$AAr?$AA?$AA@ 100e7bf0     LIBCMTD:mbstowcs.obj
 0002:00045c18       ??_C@_1JA@JKDFMOPO@?$AA?$CI?$AAp?$AAw?$AAc?$AAs?$AA?5?$AA?$DN?$AA?$DN?$AA?5?$AAN?$AAU?$AAL?$AAL?$AA?5?$AA?$CG?$AA?$CG?$AA?5?$AAs?$AAi?$AAz?$AAe?$AAI?$AAn?$AAW?$AAo?$AAr?$AAd?$AAs?$AA?5?$AA?$DN?$AA?$DN?$AA?5@ 100e7c18     LIBCMTD:mbstowcs.obj
 0002:00045ca8       ??_C@_1BM@PHENIGHD@?$AA_?$AAm?$AAb?$AAs?$AAt?$AAo?$AAw?$AAc?$AAs?$AA_?$AAs?$AA_?$AAl?$AA?$AA@ 100e7ca8     LIBCMTD:mbstowcs.obj
 0002:00045cc4       ??_C@_1CM@LLECFMFH@?$AAb?$AAu?$AAf?$AAf?$AAe?$AAr?$AAS?$AAi?$AAz?$AAe?$AA?5?$AA?$DM?$AA?$DN?$AA?5?$AAI?$AAN?$AAT?$AA_?$AAM?$AAA?$AAX?$AA?$AA@ 100e7cc4     LIBCMTD:mbstowcs.obj
 0002:00045cf0       ??_C@_1CO@JNPEPJAL@?$AAr?$AAe?$AAt?$AAs?$AAi?$AAz?$AAe?$AA?5?$AA?$DM?$AA?$DN?$AA?5?$AAs?$AAi?$AAz?$AAe?$AAI?$AAn?$AAW?$AAo?$AAr?$AAd?$AAs?$AA?$AA@ 100e7cf0     LIBCMTD:mbstowcs.obj
 0002:00045d20       ??_C@_1BK@OIBENBPM@?$AAp?$AAw?$AAc?$AAs?$AA?5?$AA?$CB?$AA?$DN?$AA?5?$AAN?$AAU?$AAL?$AAL?$AA?$AA@ 100e7d20     LIBCMTD:wcstombs.obj
 0002:00045d40       ??_C@_1FI@GCFLNCOB@?$AAf?$AA?3?$AA?2?$AAd?$AAd?$AA?2?$AAv?$AAc?$AAt?$AAo?$AAo?$AAl?$AAs?$AA?2?$AAc?$AAr?$AAt?$AA?2?$AAc?$AAr?$AAt?$AAw?$AA3?$AA2?$AA?2?$AAc?$AAo?$AAn?$AAv?$AAe?$AAr?$AAt@ 100e7d40     LIBCMTD:wcstombs.obj
 0002:00045d98       ??_C@_1CG@LLJCAOHF@?$AA_?$AAw?$AAc?$AAs?$AAt?$AAo?$AAm?$AAb?$AAs?$AA_?$AAl?$AA_?$AAh?$AAe?$AAl?$AAp?$AAe?$AAr?$AA?$AA@ 100e7d98     LIBCMTD:wcstombs.obj
 0002:00045dc0       ??_C@_1IM@MFGKHGBP@?$AA?$CI?$AAd?$AAs?$AAt?$AA?5?$AA?$CB?$AA?$DN?$AA?5?$AAN?$AAU?$AAL?$AAL?$AA?5?$AA?$CG?$AA?$CG?$AA?5?$AAs?$AAi?$AAz?$AAe?$AAI?$AAn?$AAB?$AAy?$AAt?$AAe?$AAs?$AA?5?$AA?$DO?$AA?5?$AA0?$AA?$CJ@ 100e7dc0     LIBCMTD:wcstombs.obj
 0002:00045e4c       ??_C@_1BM@BDMCLLDL@?$AA_?$AAw?$AAc?$AAs?$AAt?$AAo?$AAm?$AAb?$AAs?$AA_?$AAs?$AA_?$AAl?$AA?$AA@ 100e7e4c     LIBCMTD:wcstombs.obj
 0002:00045e68       ??_C@_1CM@KEOGBFLI@?$AAs?$AAi?$AAz?$AAe?$AAI?$AAn?$AAB?$AAy?$AAt?$AAe?$AAs?$AA?5?$AA?$DO?$AA?5?$AAr?$AAe?$AAt?$AAs?$AAi?$AAz?$AAe?$AA?$AA@ 100e7e68     LIBCMTD:wcstombs.obj
 0002:00045e98       ??_C@_1FC@BHNGAOAE@?$AAf?$AA?3?$AA?2?$AAd?$AAd?$AA?2?$AAv?$AAc?$AAt?$AAo?$AAo?$AAl?$AAs?$AA?2?$AAc?$AAr?$AAt?$AA?2?$AAc?$AAr?$AAt?$AAw?$AA3?$AA2?$AA?2?$AAm?$AAi?$AAs?$AAc?$AA?2?$AAd?$AAb@ 100e7e98     LIBCMTD:dbgdel.obj
 0002:00045ef0       ??_7type_info@@6B@         100e7ef0     LIBCMTD:typinfo.obj
 0002:00045ef8       ??_7exception@std@@6B@     100e7ef8     LIBCMTD:stdexcpt.obj
 0002:00045f00       ??_C@_0BC@EOODALEL@Unknown?5exception?$AA@ 100e7f00     LIBCMTD:stdexcpt.obj
 0002:00045f38       ??_C@_1NC@EINCOKCO@?$AA_?$AAl?$AAo?$AAc?$AA_?$AAu?$AAp?$AAd?$AAa?$AAt?$AAe?$AA?4?$AAG?$AAe?$AAt?$AAL?$AAo?$AAc?$AAa?$AAl?$AAe?$AAT?$AA?$CI?$AA?$CJ?$AA?9?$AA?$DO?$AAl?$AAo?$AAc?$AAi?$AAn?$AAf@ 100e7f38     LIBCMTD:mbtowc.obj
 0002:00046010       ??_C@_1FE@EKLDGEI@?$AAf?$AA?3?$AA?2?$AAd?$AAd?$AA?2?$AAv?$AAc?$AAt?$AAo?$AAo?$AAl?$AAs?$AA?2?$AAc?$AAr?$AAt?$AA?2?$AAc?$AAr?$AAt?$AAw?$AA3?$AA2?$AA?2?$AAc?$AAo?$AAn?$AAv?$AAe?$AAr?$AAt@ 100e8010     LIBCMTD:mbtowc.obj
 0002:00046064       ??_C@_0M@HHGEPIBF@CreateFile2?$AA@ 100e8064     LIBCMTD:wopen.obj
 0002:00046070       ??_C@_1BO@JMCLMIEA@?$AA_?$AAw?$AAs?$AAo?$AAp?$AAe?$AAn?$AA_?$AAn?$AAo?$AAl?$AAo?$AAc?$AAk?$AA?$AA@ 100e8070     LIBCMTD:wopen.obj
 0002:00046090       ??_C@_1CG@ICBEBDJJ@?$AA_?$AAg?$AAe?$AAt?$AA_?$AAf?$AAm?$AAo?$AAd?$AAe?$AA?$CI?$AA?$CG?$AAf?$AAm?$AAo?$AAd?$AAe?$AA?$CJ?$AA?$AA@ 100e8090     LIBCMTD:wopen.obj
 0002:000460b8       ??_C@_1DI@DGKIFCCE@?$AA?$CI?$AA?5?$AA?$CC?$AAI?$AAn?$AAv?$AAa?$AAl?$AAi?$AAd?$AA?5?$AAo?$AAp?$AAe?$AAn?$AA?5?$AAf?$AAl?$AAa?$AAg?$AA?$CC?$AA?5?$AA?0?$AA?5?$AA0?$AA?5?$AA?$CJ?$AA?$AA@ 100e80b8     LIBCMTD:wopen.obj
 0002:000460f0       ??_C@_1DO@PJLMOANO@?$AA?$CI?$AA?5?$AA?$CC?$AAI?$AAn?$AAv?$AAa?$AAl?$AAi?$AAd?$AA?5?$AAs?$AAh?$AAa?$AAr?$AAi?$AAn?$AAg?$AA?5?$AAf?$AAl?$AAa?$AAg?$AA?$CC?$AA?5?$AA?0?$AA?5?$AA0?$AA?5?$AA?$CJ?$AA?$AA@ 100e80f0     LIBCMTD:wopen.obj
 0002:00046130       ??_C@_1HM@GJANBLHJ@?$AA?$CI?$AAo?$AAf?$AAl?$AAa?$AAg?$AA?5?$AA?$CG?$AA?5?$AA?$CI?$AA_?$AAO?$AA_?$AAT?$AAE?$AAX?$AAT?$AA?5?$AA?$HM?$AA?5?$AA_?$AAO?$AA_?$AAW?$AAT?$AAE?$AAX?$AAT?$AA?5?$AA?$HM?$AA?5?$AA_@ 100e8130     LIBCMTD:wopen.obj
 0002:000461ac       ??_C@_1CM@IDLMKMPG@?$AA0?$AA?5?$AA?$CG?$AA?$CG?$AA?5?$AA?$CC?$AAI?$AAn?$AAt?$AAe?$AAr?$AAn?$AAa?$AAl?$AA?5?$AAE?$AAr?$AAr?$AAo?$AAr?$AA?$CC?$AA?$AA@ 100e81ac     LIBCMTD:wopen.obj
 0002:000461d8       ??_C@_1IA@IENOJNJF@?$AA0?$AA?5?$AA?$CG?$AA?$CG?$AA?5?$AA?$CC?$AAO?$AAn?$AAl?$AAy?$AA?5?$AAU?$AAT?$AAF?$AA?9?$AA1?$AA6?$AA?5?$AAl?$AAi?$AAt?$AAt?$AAl?$AAe?$AA?5?$AAe?$AAn?$AAd?$AAi?$AAa?$AAn?$AA?5@ 100e81d8     LIBCMTD:wopen.obj
 0002:00046258       ??_C@_1FG@NEKCMHCI@?$AAf?$AA?3?$AA?2?$AAd?$AAd?$AA?2?$AAv?$AAc?$AAt?$AAo?$AAo?$AAl?$AAs?$AA?2?$AAc?$AAr?$AAt?$AA?2?$AAc?$AAr?$AAt?$AAw?$AA3?$AA2?$AA?2?$AAs?$AAt?$AAr?$AAi?$AAn?$AAg?$AA?2@ 100e8258     LIBCMTD:strnicmp.obj
 0002:000462b0       ??_C@_1BI@BJLEPLEF@?$AA_?$AAs?$AAt?$AAr?$AAn?$AAi?$AAc?$AAm?$AAp?$AA_?$AAl?$AA?$AA@ 100e82b0     LIBCMTD:strnicmp.obj
 0002:000462c8       ??_C@_1CC@JLPHKJPH@?$AAc?$AAo?$AAu?$AAn?$AAt?$AA?5?$AA?$DM?$AA?$DN?$AA?5?$AAI?$AAN?$AAT?$AA_?$AAM?$AAA?$AAX?$AA?$AA@ 100e82c8     LIBCMTD:strnicmp.obj
 0002:000462ec       ??_C@_1BE@BHJDFFNA@?$AA_?$AAs?$AAt?$AAr?$AAn?$AAi?$AAc?$AAm?$AAp?$AA?$AA@ 100e82ec     LIBCMTD:strnicmp.obj
 0002:00046300       ??_C@_0CJ@NMHEPMFE@f?3?2dd?2vctools?2crt?2crtw32?2misc?2wt@ 100e8300     LIBCMTD:wtombenv.obj
 0002:00046330       ??_C@_1FK@CAOBGJOM@?$AAf?$AA?3?$AA?2?$AAd?$AAd?$AA?2?$AAv?$AAc?$AAt?$AAo?$AAo?$AAl?$AAs?$AA?2?$AAc?$AAr?$AAt?$AA?2?$AAc?$AAr?$AAt?$AAw?$AA3?$AA2?$AA?2?$AAm?$AAb?$AAs?$AAt?$AAr?$AAi?$AAn@ 100e8330     LIBCMTD:mbsnbico.obj
 0002:0004638c       ??_C@_1BM@FKNNDAHH@?$AA_?$AAm?$AAb?$AAs?$AAn?$AAb?$AAi?$AAc?$AAo?$AAl?$AAl?$AA_?$AAl?$AA?$AA@ 100e838c     LIBCMTD:mbsnbico.obj
 0002:000463a8       ??_C@_1BK@CMPKHPEC@?$AAn?$AA?5?$AA?$DM?$AA?$DN?$AA?5?$AAI?$AAN?$AAT?$AA_?$AAM?$AAA?$AAX?$AA?$AA@ 100e83a8     LIBCMTD:mbsnbico.obj
 0002:000463c8       ??_C@_1EO@IKHIJFCK@?$AAf?$AA?3?$AA?2?$AAd?$AAd?$AA?2?$AAv?$AAc?$AAt?$AAo?$AAo?$AAl?$AAs?$AA?2?$AAc?$AAr?$AAt?$AA?2?$AAf?$AAp?$AAw?$AA3?$AA2?$AA?2?$AAc?$AAo?$AAn?$AAv?$AA?2?$AAx?$AA1?$AA0@ 100e83c8     LIBCMTD:x10fout.obj
 0002:00046418       ??_C@_1BI@ELMAAFLN@?$AA$?$AAI?$AA1?$AA0?$AA_?$AAO?$AAU?$AAT?$AAP?$AAU?$AAT?$AA?$AA@ 100e8418     LIBCMTD:x10fout.obj
 0002:00046430       ??_C@_1EG@CDDBFNOB@?$AAs?$AAt?$AAr?$AAc?$AAp?$AAy?$AA_?$AAs?$AA?$CI?$AAf?$AAo?$AAs?$AA?9?$AA?$DO?$AAm?$AAa?$AAn?$AA?0?$AA?5?$AA2?$AA1?$AA?$CL?$AA1?$AA?0?$AA?5?$AA?$CC?$AA1?$AA?$CD?$AAS?$AAN?$AAA?$AAN@ 100e8430     LIBCMTD:x10fout.obj
 0002:00046478       ??_C@_06PGGFOGJG@1?$CDSNAN?$AA@ 100e8478     LIBCMTD:x10fout.obj
 0002:00046480       ??_C@_1EE@MADEBIHF@?$AAs?$AAt?$AAr?$AAc?$AAp?$AAy?$AA_?$AAs?$AA?$CI?$AAf?$AAo?$AAs?$AA?9?$AA?$DO?$AAm?$AAa?$AAn?$AA?0?$AA?5?$AA2?$AA1?$AA?$CL?$AA1?$AA?0?$AA?5?$AA?$CC?$AA1?$AA?$CD?$AAI?$AAN?$AAD?$AA?$CC@ 100e8480     LIBCMTD:x10fout.obj
 0002:000464c4       ??_C@_05PHHOCPM@1?$CDIND?$AA@ 100e84c4     LIBCMTD:x10fout.obj
 0002:000464d0       ??_C@_1EE@ICBBBPAI@?$AAs?$AAt?$AAr?$AAc?$AAp?$AAy?$AA_?$AAs?$AA?$CI?$AAf?$AAo?$AAs?$AA?9?$AA?$DO?$AAm?$AAa?$AAn?$AA?0?$AA?5?$AA2?$AA1?$AA?$CL?$AA1?$AA?0?$AA?5?$AA?$CC?$AA1?$AA?$CD?$AAI?$AAN?$AAF?$AA?$CC@ 100e84d0     LIBCMTD:x10fout.obj
 0002:00046514       ??_C@_05DNEBIAHO@1?$CDINF?$AA@ 100e8514     LIBCMTD:x10fout.obj
 0002:00046520       ??_C@_1EG@MCFPJJEM@?$AAs?$AAt?$AAr?$AAc?$AAp?$AAy?$AA_?$AAs?$AA?$CI?$AAf?$AAo?$AAs?$AA?9?$AA?$DO?$AAm?$AAa?$AAn?$AA?0?$AA?5?$AA2?$AA1?$AA?$CL?$AA1?$AA?0?$AA?5?$AA?$CC?$AA1?$AA?$CD?$AAQ?$AAN?$AAA?$AAN@ 100e8520     LIBCMTD:x10fout.obj
 0002:00046568       ??_C@_06IMKFLFPG@1?$CDQNAN?$AA@ 100e8568     LIBCMTD:x10fout.obj
 0002:00046570       ?commonFlags@?1??_control87@@9@9 100e8570     LIBCMTD:ieee87.obj
 0002:00046574       ??_C@_1CK@GELGGBDK@?$AAp?$AAN?$AAo?$AAd?$AAe?$AA?9?$AA?$DO?$AA_?$AAN?$AAe?$AAx?$AAt?$AA?5?$AA?$CB?$AA?$DN?$AA?5?$AAN?$AAU?$AAL?$AAL?$AA?$AA@ 100e8574     LIBCMTD:typname.obj
 0002:000465a0       ??_C@_1FA@KAJOMDBA@?$AAf?$AA?3?$AA?2?$AAd?$AAd?$AA?2?$AAv?$AAc?$AAt?$AAo?$AAo?$AAl?$AAs?$AA?2?$AAc?$AAr?$AAt?$AA?2?$AAc?$AAr?$AAt?$AAw?$AA3?$AA2?$AA?2?$AAe?$AAh?$AA?2?$AAt?$AAy?$AAp?$AAn@ 100e85a0     LIBCMTD:typname.obj
 0002:000465f0       ??_C@_1BA@BALFACEM@?$AAC?$AAO?$AAN?$AAO?$AAU?$AAT?$AA$?$AA?$AA@ 100e85f0     LIBCMTD:initcon.obj
 0002:00046600       ??_C@_1FC@HBDIADHE@?$AAf?$AA?3?$AA?2?$AAd?$AAd?$AA?2?$AAv?$AAc?$AAt?$AAo?$AAo?$AAl?$AAs?$AA?2?$AAc?$AAr?$AAt?$AA?2?$AAc?$AAr?$AAt?$AAw?$AA3?$AA2?$AA?2?$AAl?$AAo?$AAw?$AAi?$AAo?$AA?2?$AAs@ 100e8600     LIBCMTD:setmode.obj
 0002:00046654       ??_C@_1CA@GPIGPPFN@?$AA?$CI?$AAp?$AAM?$AAo?$AAd?$AAe?$AA?5?$AA?$CB?$AA?$DN?$AA?5?$AAN?$AAU?$AAL?$AAL?$AA?$CJ?$AA?$AA@ 100e8654     LIBCMTD:setmode.obj
 0002:00046674       ??_C@_1BG@CKGMPOFH@?$AA_?$AAg?$AAe?$AAt?$AA_?$AAf?$AAm?$AAo?$AAd?$AAe?$AA?$AA@ 100e8674     LIBCMTD:setmode.obj
 0002:0004668c       ??_C@_1CA@LMBEKBDN@?$AAp?$AAo?$AAp?$AAt?$AAi?$AAo?$AAn?$AA?5?$AA?$CB?$AA?$DN?$AA?5?$AAN?$AAU?$AAL?$AAL?$AA?$AA@ 100e868c     LIBCMTD:setenv.obj
 0002:000466b0       ??_C@_1EO@LLEMHCMB@?$AAf?$AA?3?$AA?2?$AAd?$AAd?$AA?2?$AAv?$AAc?$AAt?$AAo?$AAo?$AAl?$AAs?$AA?2?$AAc?$AAr?$AAt?$AA?2?$AAc?$AAr?$AAt?$AAw?$AA3?$AA2?$AA?2?$AAm?$AAi?$AAs?$AAc?$AA?2?$AAs?$AAe@ 100e86b0     LIBCMTD:setenv.obj
 0002:00046700       ??_C@_1BI@CDAFOAAL@?$AA_?$AA_?$AAc?$AAr?$AAt?$AAs?$AAe?$AAt?$AAe?$AAn?$AAv?$AA?$AA@ 100e8700     LIBCMTD:setenv.obj
 0002:00046718       ??_C@_1DE@EEHFNNGH@?$AAe?$AAq?$AAu?$AAa?$AAl?$AA?5?$AA?9?$AA?5?$AAo?$AAp?$AAt?$AAi?$AAo?$AAn?$AA?5?$AA?$DM?$AA?5?$AA_?$AAM?$AAA?$AAX?$AA_?$AAE?$AAN?$AAV?$AA?$AA@ 100e8718     LIBCMTD:setenv.obj
 0002:00046750       ??_C@_1FC@EEJIEIDF@?$AA_?$AAt?$AAc?$AAs?$AAn?$AAl?$AAe?$AAn?$AA?$CI?$AAe?$AAq?$AAu?$AAa?$AAl?$AA?5?$AA?$CL?$AA?5?$AA1?$AA?0?$AA?5?$AA_?$AAM?$AAA?$AAX?$AA_?$AAE?$AAN?$AAV?$AA?$CJ?$AA?5?$AA?$DM?$AA?5@ 100e8750     LIBCMTD:setenv.obj
 0002:000467a4       ??_C@_0CH@OODIAFML@f?3?2dd?2vctools?2crt?2crtw32?2misc?2se@ 100e87a4     LIBCMTD:setenv.obj
 0002:000467d0       ??_C@_1EI@GHDNAPMG@?$AA?$CI?$AA?$CC?$AAC?$AAR?$AAT?$AA?5?$AAL?$AAo?$AAg?$AAi?$AAc?$AA?5?$AAe?$AAr?$AAr?$AAo?$AAr?$AA?5?$AAd?$AAu?$AAr?$AAi?$AAn?$AAg?$AA?5?$AAs?$AAe?$AAt?$AAe?$AAn?$AAv?$AA?$CC@ 100e87d0     LIBCMTD:setenv.obj
 0002:00046818       ??_C@_1FG@OKIAKKPK@?$AAs?$AAt?$AAr?$AAc?$AAp?$AAy?$AA_?$AAs?$AA?$CI?$AAn?$AAa?$AAm?$AAe?$AA?0?$AA?5?$AAs?$AAt?$AAr?$AAl?$AAe?$AAn?$AA?$CI?$AAo?$AAp?$AAt?$AAi?$AAo?$AAn?$AA?$CJ?$AA?5?$AA?$CL?$AA?5@ 100e8818     LIBCMTD:setenv.obj
 0002:00046870       ??_C@_1BK@ECKIJLPM@?$AAc?$AAo?$AAp?$AAy?$AA_?$AAe?$AAn?$AAv?$AAi?$AAr?$AAo?$AAn?$AA?$AA@ 100e8870     LIBCMTD:setenv.obj
 0002:00046890       ??_C@_1FK@DNFLNPD@?$AAs?$AAt?$AAr?$AAc?$AAp?$AAy?$AA_?$AAs?$AA?$CI?$AA?$CK?$AAn?$AAe?$AAw?$AAe?$AAn?$AAv?$AAp?$AAt?$AAr?$AA?0?$AA?5?$AAe?$AAn?$AAv?$AAp?$AAt?$AAr?$AAS?$AAi?$AAz?$AAe?$AA?0@ 100e8890     LIBCMTD:setenv.obj
 0002:000468ec       ??_C@_1CC@ICKKAGJA@?$AA_?$AAs?$AAt?$AAr?$AAi?$AAn?$AAg?$AA1?$AA?5?$AA?$CB?$AA?$DN?$AA?5?$AAN?$AAU?$AAL?$AAL?$AA?$AA@ 100e88ec     LIBCMTD:strnicol.obj
 0002:00046910       ??_C@_1FG@PLEDDDHB@?$AAf?$AA?3?$AA?2?$AAd?$AAd?$AA?2?$AAv?$AAc?$AAt?$AAo?$AAo?$AAl?$AAs?$AA?2?$AAc?$AAr?$AAt?$AA?2?$AAc?$AAr?$AAt?$AAw?$AA3?$AA2?$AA?2?$AAs?$AAt?$AAr?$AAi?$AAn?$AAg?$AA?2@ 100e8910     LIBCMTD:strnicol.obj
 0002:00046968       ??_C@_1BK@IOJEBPLP@?$AA_?$AAs?$AAt?$AAr?$AAn?$AAi?$AAc?$AAo?$AAl?$AAl?$AA_?$AAl?$AA?$AA@ 100e8968     LIBCMTD:strnicol.obj
 0002:00046984       ??_C@_1CC@CNADELFK@?$AA_?$AAs?$AAt?$AAr?$AAi?$AAn?$AAg?$AA2?$AA?5?$AA?$CB?$AA?$DN?$AA?5?$AAN?$AAU?$AAL?$AAL?$AA?$AA@ 100e8984     LIBCMTD:strnicol.obj
 0002:000469a8       ??_C@_1HK@ELDMAMK@?$AAc?$AAc?$AAh?$AAC?$AAo?$AAu?$AAn?$AAt?$AA1?$AA?$DN?$AA?$DN?$AA0?$AA?5?$AA?$CG?$AA?$CG?$AA?5?$AAc?$AAc?$AAh?$AAC?$AAo?$AAu?$AAn?$AAt?$AA2?$AA?$DN?$AA?$DN?$AA1?$AA?5?$AA?$HM?$AA?$HM?$AA?5@ 100e89a8     LIBCMTD:a_cmp.obj
 0002:00046a28       ??_C@_1EM@FKHOBKLM@?$AAf?$AA?3?$AA?2?$AAd?$AAd?$AA?2?$AAv?$AAc?$AAt?$AAo?$AAo?$AAl?$AAs?$AA?2?$AAc?$AAr?$AAt?$AA?2?$AAc?$AAr?$AAt?$AAw?$AA3?$AA2?$AA?2?$AAm?$AAi?$AAs?$AAc?$AA?2?$AAa?$AA_@ 100e8a28     LIBCMTD:a_cmp.obj
 0002:00046c04       ??_C@_08EHJDFFNH@__based?$CI?$AA@ 100e8c04     LIBCMTD:undname.obj
 0002:00046c10       ??_C@_07KOLFKCDI@__cdecl?$AA@ 100e8c10     LIBCMTD:undname.obj
 0002:00046c18       ??_C@_08GHMPAG@__pascal?$AA@ 100e8c18     LIBCMTD:undname.obj
 0002:00046c24       ??_C@_09IFJBGAPI@__stdcall?$AA@ 100e8c24     LIBCMTD:undname.obj
 0002:00046c30       ??_C@_0L@NPHFGOKO@__thiscall?$AA@ 100e8c30     LIBCMTD:undname.obj
 0002:00046c3c       ??_C@_0L@JMKHOMEK@__fastcall?$AA@ 100e8c3c     LIBCMTD:undname.obj
 0002:00046c48       ??_C@_0N@BCKKPABJ@__vectorcall?$AA@ 100e8c48     LIBCMTD:undname.obj
 0002:00046c58       ??_C@_09HIJEGCPM@__clrcall?$AA@ 100e8c58     LIBCMTD:undname.obj
 0002:00046c64       ??_C@_06GHPCKEAG@__eabi?$AA@ 100e8c64     LIBCMTD:undname.obj
 0002:00046c6c       ??_C@_07JOMMBBKO@__ptr64?$AA@ 100e8c6c     LIBCMTD:undname.obj
 0002:00046c74       ??_C@_0L@PILCLIHE@__restrict?$AA@ 100e8c74     LIBCMTD:undname.obj
 0002:00046c80       ??_C@_0M@GFIIJFMG@__unaligned?$AA@ 100e8c80     LIBCMTD:undname.obj
 0002:00046c8c       ??_C@_09DHDLOLLB@restrict?$CI?$AA@ 100e8c8c     LIBCMTD:undname.obj
 0002:00046c98       ??_C@_04NIHEBCM@?5new?$AA@ 100e8c98     LIBCMTD:undname.obj
 0002:00046ca0       ??_C@_07FPCDHGMM@?5delete?$AA@ 100e8ca0     LIBCMTD:undname.obj
 0002:00046ca8       ??_C@_01NEMOKFLO@?$DN?$AA@ 100e8ca8     LIBCMTD:undname.obj
 0002:00046cac       ??_C@_02GPIOPFAK@?$DO?$DO?$AA@ 100e8cac     LIBCMTD:undname.obj
 0002:00046cb0       ??_C@_02FODMEDOG@?$DM?$DM?$AA@ 100e8cb0     LIBCMTD:undname.obj
 0002:00046cb4       ??_C@_01DCLJPIOD@?$CB?$AA@ 100e8cb4     LIBCMTD:undname.obj
 0002:00046cb8       ??_C@_02EGOFBIJA@?$DN?$DN?$AA@ 100e8cb8     LIBCMTD:undname.obj
 0002:00046cbc       ??_C@_02FDNJECIE@?$CB?$DN?$AA@ 100e8cbc     LIBCMTD:undname.obj
 0002:00046cc0       ??_C@_02GPECMEKF@?$FL?$FN?$AA@ 100e8cc0     LIBCMTD:undname.obj
 0002:00046cc4       ??_C@_08LHJFAFGD@operator?$AA@ 100e8cc4     LIBCMTD:undname.obj
 0002:00046cd0       ??_C@_02HBOOOICD@?9?$DO?$AA@ 100e8cd0     LIBCMTD:undname.obj
 0002:00046cd4       ??_C@_01NBENCBCI@?$CK?$AA@ 100e8cd4     LIBCMTD:undname.obj
 0002:00046cd8       ??_C@_02ECNGHCIF@?$CL?$CL?$AA@ 100e8cd8     LIBCMTD:undname.obj
 0002:00046cdc       ??_C@_02BAABKJLB@?9?9?$AA@ 100e8cdc     LIBCMTD:undname.obj
 0002:00046ce0       ??_C@_01JOAMLHOP@?9?$AA@   100e8ce0     LIBCMTD:undname.obj
 0002:00046ce4       ??_C@_01MIFGBAGJ@?$CL?$AA@ 100e8ce4     LIBCMTD:undname.obj
 0002:00046ce8       ??_C@_01HNPIGOCE@?$CG?$AA@ 100e8ce8     LIBCMTD:undname.obj
 0002:00046cec       ??_C@_03MNHNFDLC@?9?$DO?$CK?$AA@ 100e8cec     LIBCMTD:undname.obj
 0002:00046cf0       ??_C@_01KMDKNFGN@?1?$AA@   100e8cf0     LIBCMTD:undname.obj
 0002:00046cf4       ??_C@_01FGNFDNOH@?$CF?$AA@ 100e8cf4     LIBCMTD:undname.obj
 0002:00046cf8       ??_C@_01MNNFJEPP@?$DM?$AA@ 100e8cf8     LIBCMTD:undname.obj
 0002:00046cfc       ??_C@_02EHCHHCKH@?$DM?$DN?$AA@ 100e8cfc     LIBCMTD:undname.obj
 0002:00046d00       ??_C@_01PPODPGHN@?$DO?$AA@ 100e8d00     LIBCMTD:undname.obj
 0002:00046d04       ??_C@_02EEKDKGMJ@?$DO?$DN?$AA@ 100e8d04     LIBCMTD:undname.obj
 0002:00046d08       ??_C@_01IHBHIGKO@?0?$AA@   100e8d08     LIBCMTD:undname.obj
 0002:00046d0c       ??_C@_02HCKGKOFO@?$CI?$CJ?$AA@ 100e8d0c     LIBCMTD:undname.obj
 0002:00046d10       ??_C@_01PJKLJHI@?$HO?$AA@  100e8d10     LIBCMTD:undname.obj
 0002:00046d14       ??_C@_01JKBOJNNK@?$FO?$AA@ 100e8d14     LIBCMTD:undname.obj
 0002:00046d18       ??_C@_01DNKMNLPK@?$HM?$AA@ 100e8d18     LIBCMTD:undname.obj
 0002:00046d1c       ??_C@_02PPKAJPJL@?$CG?$CG?$AA@ 100e8d1c     LIBCMTD:undname.obj
 0002:00046d20       ??_C@_02NONPIBCD@?$HM?$HM?$AA@ 100e8d20     LIBCMTD:undname.obj
 0002:00046d24       ??_C@_02FPIMKNGF@?$CK?$DN?$AA@ 100e8d24     LIBCMTD:undname.obj
 0002:00046d28       ??_C@_02FOEOMHFC@?$CL?$DN?$AA@ 100e8d28     LIBCMTD:undname.obj
 0002:00046d2c       ??_C@_02FKMDLLOA@?9?$DN?$AA@ 100e8d2c     LIBCMTD:undname.obj
 0002:00046d30       ??_C@_02FJEHGPIO@?1?$DN?$AA@ 100e8d30     LIBCMTD:undname.obj
 0002:00046d34       ??_C@_02FENAOKFI@?$CF?$DN?$AA@ 100e8d34     LIBCMTD:undname.obj
 0002:00046d38       ??_C@_03IKFCCPFF@?$DO?$DO?$DN?$AA@ 100e8d38     LIBCMTD:undname.obj
 0002:00046d3c       ??_C@_03CDNPDDLA@?$DM?$DM?$DN?$AA@ 100e8d3c     LIBCMTD:undname.obj
 0002:00046d40       ??_C@_02FGJGFEAB@?$CG?$DN?$AA@ 100e8d40     LIBCMTD:undname.obj
 0002:00046d44       ??_C@_02DHLNPPGH@?$HM?$DN?$AA@ 100e8d44     LIBCMTD:undname.obj
 0002:00046d48       ??_C@_02MHEGNOJ@?$FO?$DN?$AA@ 100e8d48     LIBCMTD:undname.obj
 0002:00046d4c       ??_C@_09IFPLHPGF@?$GAvftable?8?$AA@ 100e8d4c     LIBCMTD:undname.obj
 0002:00046d58       ??_C@_09BLBHBJP@?$GAvbtable?8?$AA@ 100e8d58     LIBCMTD:undname.obj
 0002:00046d64       ??_C@_07FEEIOKP@?$GAvcall?8?$AA@ 100e8d64     LIBCMTD:undname.obj
 0002:00046d6c       ??_C@_08LLFFHHDJ@?$GAtypeof?8?$AA@ 100e8d6c     LIBCMTD:undname.obj
 0002:00046d78       ??_C@_0BF@KDPPACIK@?$GAlocal?5static?5guard?8?$AA@ 100e8d78     LIBCMTD:undname.obj
 0002:00046d90       ??_C@_08OBABFOLI@?$GAstring?8?$AA@ 100e8d90     LIBCMTD:undname.obj
 0002:00046d9c       ??_C@_0BD@JDLKDPAB@?$GAvbase?5destructor?8?$AA@ 100e8d9c     LIBCMTD:undname.obj
 0002:00046db0       ??_C@_0BN@DEGPLNFK@?$GAvector?5deleting?5destructor?8?$AA@ 100e8db0     LIBCMTD:undname.obj
 0002:00046dd0       ??_C@_0BO@OBMKPJIG@?$GAdefault?5constructor?5closure?8?$AA@ 100e8dd0     LIBCMTD:undname.obj
 0002:00046df0       ??_C@_0BN@IMDCHIKM@?$GAscalar?5deleting?5destructor?8?$AA@ 100e8df0     LIBCMTD:undname.obj
 0002:00046e10       ??_C@_0BO@PFGOCPJJ@?$GAvector?5constructor?5iterator?8?$AA@ 100e8e10     LIBCMTD:undname.obj
 0002:00046e30       ??_C@_0BN@LFPFMEDL@?$GAvector?5destructor?5iterator?8?$AA@ 100e8e30     LIBCMTD:undname.obj
 0002:00046e50       ??_C@_0CE@IKBNEHA@?$GAvector?5vbase?5constructor?5iterat@ 100e8e50     LIBCMTD:undname.obj
 0002:00046e74       ??_C@_0BL@NILFHHPC@?$GAvirtual?5displacement?5map?8?$AA@ 100e8e74     LIBCMTD:undname.obj
 0002:00046e90       ??_C@_0CB@JONCMFFK@?$GAeh?5vector?5constructor?5iterator?8@ 100e8e90     LIBCMTD:undname.obj
 0002:00046eb4       ??_C@_0CA@GCEOPDGL@?$GAeh?5vector?5destructor?5iterator?8?$AA@ 100e8eb4     LIBCMTD:undname.obj
 0002:00046ed4       ??_C@_0CH@OOJPLCPH@?$GAeh?5vector?5vbase?5constructor?5ite@ 100e8ed4     LIBCMTD:undname.obj
 0002:00046efc       ??_C@_0BL@LLKPOHJI@?$GAcopy?5constructor?5closure?8?$AA@ 100e8efc     LIBCMTD:undname.obj
 0002:00046f18       ??_C@_0BA@KBCDOMBN@?$GAudt?5returning?8?$AA@ 100e8f18     LIBCMTD:undname.obj
 0002:00046f28       ??_C@_03KLGMFNMG@?$GAEH?$AA@ 100e8f28     LIBCMTD:undname.obj
 0002:00046f2c       ??_C@_05KHLCHHI@?$GARTTI?$AA@ 100e8f2c     LIBCMTD:undname.obj
 0002:00046f34       ??_C@_0BA@KKLDJDLB@?$GAlocal?5vftable?8?$AA@ 100e8f34     LIBCMTD:undname.obj
 0002:00046f44       ??_C@_0CE@IIHCMGGL@?$GAlocal?5vftable?5constructor?5closu@ 100e8f44     LIBCMTD:undname.obj
 0002:00046f68       ??_C@_06FHBGPFGH@?5new?$FL?$FN?$AA@ 100e8f68     LIBCMTD:undname.obj
 0002:00046f70       ??_C@_09LBNFPBCA@?5delete?$FL?$FN?$AA@ 100e8f70     LIBCMTD:undname.obj
 0002:00046f7c       ??_C@_0P@HJKNJFNN@?$GAomni?5callsig?8?$AA@ 100e8f7c     LIBCMTD:undname.obj
 0002:00046f8c       ??_C@_0BL@CNOONJFP@?$GAplacement?5delete?5closure?8?$AA@ 100e8f8c     LIBCMTD:undname.obj
 0002:00046fa8       ??_C@_0BN@CKNJLHMB@?$GAplacement?5delete?$FL?$FN?5closure?8?$AA@ 100e8fa8     LIBCMTD:undname.obj
 0002:00046fc8       ??_C@_0CG@CFDHKGGD@?$GAmanaged?5vector?5constructor?5iter@ 100e8fc8     LIBCMTD:undname.obj
 0002:00046ff0       ??_C@_0CF@IMGKMJNO@?$GAmanaged?5vector?5destructor?5itera@ 100e8ff0     LIBCMTD:undname.obj
 0002:00047018       ??_C@_0CG@HLDDJMAG@?$GAeh?5vector?5copy?5constructor?5iter@ 100e9018     LIBCMTD:undname.obj
 0002:00047040       ??_C@_0CM@FCBBDIGB@?$GAeh?5vector?5vbase?5copy?5constructo@ 100e9040     LIBCMTD:undname.obj
 0002:0004706c       ??_C@_0BL@CLIPGLGB@?$GAdynamic?5initializer?5for?5?8?$AA@ 100e906c     LIBCMTD:undname.obj
 0002:00047088       ??_C@_0CB@PDBIFEP@?$GAdynamic?5atexit?5destructor?5for?5?8@ 100e9088     LIBCMTD:undname.obj
 0002:000470ac       ??_C@_0CD@CGAJBKEJ@?$GAvector?5copy?5constructor?5iterato@ 100e90ac     LIBCMTD:undname.obj
 0002:000470d0       ??_C@_0CJ@GJELGAMM@?$GAvector?5vbase?5copy?5constructor?5i@ 100e90d0     LIBCMTD:undname.obj
 0002:000470fc       ??_C@_0CL@FGIJHLCE@?$GAmanaged?5vector?5copy?5constructor@ 100e90fc     LIBCMTD:undname.obj
 0002:00047128       ??_C@_0BM@PMGGMLDN@?$GAlocal?5static?5thread?5guard?8?$AA@ 100e9128     LIBCMTD:undname.obj
 0002:00047144       ??_C@_0BC@DAFEJGAK@?5Type?5Descriptor?8?$AA@ 100e9144     LIBCMTD:undname.obj
 0002:00047158       ??_C@_0BM@LDKODKLH@?5Base?5Class?5Descriptor?5at?5?$CI?$AA@ 100e9158     LIBCMTD:undname.obj
 0002:00047174       ??_C@_0BD@LGICGFMM@?5Base?5Class?5Array?8?$AA@ 100e9174     LIBCMTD:undname.obj
 0002:00047188       ??_C@_0BN@MECKDCOJ@?5Class?5Hierarchy?5Descriptor?8?$AA@ 100e9188     LIBCMTD:undname.obj
 0002:000471a8       ??_C@_0BK@CFCOFLF@?5Complete?5Object?5Locator?8?$AA@ 100e91a8     LIBCMTD:undname.obj
 0002:000471c4       ??_C@_1BO@JIBAMMGI@?$AAs?$AAt?$AAr?$AAi?$AAn?$AAg?$AA?5?$AA?$CB?$AA?$DN?$AA?5?$AAN?$AAU?$AAL?$AAL?$AA?$AA@ 100e91c4     LIBCMTD:mbschr.obj
 0002:000471e8       ??_C@_1FG@DJMLHKLH@?$AAf?$AA?3?$AA?2?$AAd?$AAd?$AA?2?$AAv?$AAc?$AAt?$AAo?$AAo?$AAl?$AAs?$AA?2?$AAc?$AAr?$AAt?$AA?2?$AAc?$AAr?$AAt?$AAw?$AA3?$AA2?$AA?2?$AAm?$AAb?$AAs?$AAt?$AAr?$AAi?$AAn@ 100e91e8     LIBCMTD:mbschr.obj
 0002:00047240       ??_C@_1BE@JKKFLIKJ@?$AA_?$AAm?$AAb?$AAs?$AAc?$AAh?$AAr?$AA_?$AAl?$AA?$AA@ 100e9240     LIBCMTD:mbschr.obj
 0002:00047258       __load_config_used         100e9258     LIBCMTD:loadcfg.obj
 0002:00047318       ??_R4bad_exception@std@@6B@ 100e9318     LIBCMTD:frame.obj
 0002:0004732c       ??_R3bad_exception@std@@8  100e932c     LIBCMTD:frame.obj
 0002:0004733c       ??_R2bad_exception@std@@8  100e933c     LIBCMTD:frame.obj
 0002:00047348       ??_R1A@?0A@EA@bad_exception@std@@8 100e9348     LIBCMTD:frame.obj
 0002:00047364       ??_R1A@?0A@EA@exception@std@@8 100e9364     LIBCMTD:frame.obj
 0002:00047380       ??_R3exception@std@@8      100e9380     LIBCMTD:frame.obj
 0002:00047390       ??_R2exception@std@@8      100e9390     LIBCMTD:frame.obj
 0002:00047398       ??_R4type_info@@6B@        100e9398     LIBCMTD:typinfo.obj
 0002:000473ac       ??_R3type_info@@8          100e93ac     LIBCMTD:typinfo.obj
 0002:000473bc       ??_R2type_info@@8          100e93bc     LIBCMTD:typinfo.obj
 0002:000473c4       ??_R1A@?0A@EA@type_info@@8 100e93c4     LIBCMTD:typinfo.obj
 0002:000473e0       ??_R4exception@std@@6B@    100e93e0     LIBCMTD:stdexcpt.obj
 0002:00047400       ___safe_se_handler_table   100e9400     <linker-defined>
 0002:00047424       ___rtc_iaa                 100e9424     LIBCMTD:initsect.obj
 0002:00047428       ___rtc_izz                 100e9428     LIBCMTD:initsect.obj
 0002:0004742c       ___rtc_taa                 100e942c     LIBCMTD:initsect.obj
 0002:00047430       ___rtc_tzz                 100e9430     LIBCMTD:initsect.obj
 0002:00047b1c       __TI2?AVbad_exception@std@@ 100e9b1c     LIBCMTD:frame.obj
 0002:00047b2c       __CTA2?AVbad_exception@std@@ 100e9b2c     LIBCMTD:frame.obj
 0002:00047b38       __CT??_R0?AVbad_exception@std@@@8??0bad_exception@std@@QAE@ABV01@@Z12 100e9b38     LIBCMTD:frame.obj
 0002:00047b54       __CT??_R0?AVexception@std@@@8??0exception@std@@QAE@ABV01@@Z12 100e9b54     LIBCMTD:frame.obj
 0002:00047e40       __IMPORT_DESCRIPTOR_USER32 100e9e40     user32:USER32.dll
 0002:00047e54       __IMPORT_DESCRIPTOR_GDI32  100e9e54     gdi32:GDI32.dll
 0002:00047e68       __IMPORT_DESCRIPTOR_SHELL32 100e9e68     shell32:SHELL32.dll
 0002:00047e7c       __IMPORT_DESCRIPTOR_OPENGL32 100e9e7c     opengl32:OPENGL32.dll
 0002:00047e90       __IMPORT_DESCRIPTOR_KERNEL32 100e9e90     kernel32:KERNEL32.dll
 0002:00047ea4       __NULL_IMPORT_DESCRIPTOR   100e9ea4     user32:USER32.dll
 0003:00000030       ?zt@@3PAUztGlobals@@A      100eb030     unity_dll.obj
 0003:00001e50       ___security_cookie         100ece50     LIBCMTD:gs_cookie.obj
 0003:00001e54       ___security_cookie_complement 100ece54     LIBCMTD:gs_cookie.obj
 0003:00001e58       __fltused                  100ece58     LIBCMTD:fpinit.obj
 0003:00001e5c       __ldused                   100ece5c     LIBCMTD:fpinit.obj
 0003:00001e60       __pfnAllocHook             100ece60     LIBCMTD:dbghook.obj
 0003:00001e6c       __crtBreakAlloc            100ece6c     LIBCMTD:dbgheap.obj
 0003:00001e70       ___crtDebugFillThreshold   100ece70     LIBCMTD:dbgheap.obj
 0003:00001e74       __crtDbgFlag               100ece74     LIBCMTD:dbgheap.obj
 0003:00001ff0       ___flsindex                100ecff0     LIBCMTD:tidtable.obj
 0003:00001ff8       __mbctype                  100ecff8     LIBCMTD:mbctype.obj
 0003:00002100       __mbcasemap                100ed100     LIBCMTD:mbctype.obj
 0003:00002200       ___initialmbcinfo          100ed200     LIBCMTD:mbctype.obj
 0003:00002424       ___ptmbcinfo               100ed424     LIBCMTD:mbctype.obj
 0003:00002518       ___mb_cur_max              100ed518     LIBCMTD:nlsdata.obj
 0003:0000251c       ___wclocalestr             100ed51c     LIBCMTD:nlsdata.obj
 0003:00002520       ___lc_time_c               100ed520     LIBCMTD:nlsdata.obj
 0003:00002684       ___ptlocinfo               100ed684     LIBCMTD:nlsdata.obj
 0003:00002688       ___initiallocinfo          100ed688     LIBCMTD:nlsdata.obj
 0003:00002740       ___initiallocalestructinfo 100ed740     LIBCMTD:nlsdata.obj
 0003:00002748       ___globallocalestatus      100ed748     LIBCMTD:glstatus.obj
 0003:00002750       __HUGE                     100ed750     LIBCMTD:huge.obj
 0003:00002760       __iob                      100ed760     LIBCMTD:_file.obj
 0003:000029e0       __lookuptrailbytes         100ed9e0     LIBCMTD:read.obj
 0003:00002ae0       ___badioinfo               100edae0     LIBCMTD:ioinit.obj
 0003:00002b20       ___nullstring              100edb20     LIBCMTD:output.obj
 0003:00002b24       ___wnullstring             100edb24     LIBCMTD:output.obj
 0003:00002b28       __d_inf                    100edb28     LIBCMTD:util.obj
 0003:00002b30       __d_ind                    100edb30     LIBCMTD:util.obj
 0003:00002b38       __d_max                    100edb38     LIBCMTD:util.obj
 0003:00002b40       __d_min                    100edb40     LIBCMTD:util.obj
 0003:00002b48       __d_mzero                  100edb48     LIBCMTD:util.obj
 0003:00002c58       __timezone                 100edc58     LIBCMTD:timeset.obj
 0003:00002c5c       __daylight                 100edc5c     LIBCMTD:timeset.obj
 0003:00002c60       __dstbias                  100edc60     LIBCMTD:timeset.obj
 0003:00002ce8       __tzname                   100edce8     LIBCMTD:timeset.obj
 0003:00002d10       ___abort_behavior          100edd10     LIBCMTD:abort.obj
 0003:00002d20       ___isa_enabled             100edd20     LIBCMTD:cpu_disp.obj
 0003:00002d60       __half                     100edd60     LIBCMTD:pow.obj
 0003:00002da0       __cfltcvt_tab              100edda0     LIBCMTD:cmiscdat.obj
 0003:00002ee8       __CrtDbgMode               100edee8     LIBCMTD:dbgrptt.obj
 0003:00002ef4       __CrtDbgFile               100edef4     LIBCMTD:dbgrptt.obj
 0003:00002f00       __crtAssertBusy            100edf00     LIBCMTD:dbgrptt.obj
 0003:00002f38       ___lconv                   100edf38     LIBCMTD:lconv.obj
 0003:00002f3c       ___lconv_static_decimal    100edf3c     LIBCMTD:lconv.obj
 0003:00002f40       ___lconv_c                 100edf40     LIBCMTD:lconv.obj
 0003:00002f90       ___lconv_static_W_decimal  100edf90     LIBCMTD:lconv.obj
 0003:00002f94       __pctype                   100edf94     LIBCMTD:ctype.obj
 0003:00002f98       __pwctype                  100edf98     LIBCMTD:ctype.obj
 0003:00002fa0       __NLG_Destination          100edfa0     LIBCMTD:exsup.obj
 0003:00002fb0       __matherr_flag             100edfb0     LIBCMTD:matherr.obj
 0003:00002fb4       __days                     100edfb4     LIBCMTD:days.obj
 0003:00002fe8       __lpdays                   100edfe8     LIBCMTD:days.obj
 0003:00003020       __pow10pos                 100ee020     LIBCMTD:constpow.obj
 0003:00003180       __pow10neg                 100ee180     LIBCMTD:constpow.obj
 0003:000032dc       __confh                    100ee2dc     LIBCMTD:initcon.obj
 0003:000032e0       ??_R0?AVbad_exception@std@@@8 100ee2e0     LIBCMTD:frame.obj
 0003:00003300       ??_R0?AVexception@std@@@8  100ee300     LIBCMTD:frame.obj
 0003:0000331c       ??_R0?AVtype_info@@@8      100ee31c     LIBCMTD:typinfo.obj
 0003:00003350       ?zt_gui@@3PAUztGuiGlobals@@A 100ee350     unity_dll.obj
 0003:00003354       ?zt_game@@3PAUztGameGlobals@@A 100ee354     unity_dll.obj
 0003:00003358       ?wglSwapIntervalEXT@@3P6GHH@ZA 100ee358     unity_dll.obj
 0003:0000335c       ?glCreateShader@@3P6GII@ZA 100ee35c     unity_dll.obj
 0003:00003360       ?glShaderSource@@3P6GXIHPBQBDPBH@ZA 100ee360     unity_dll.obj
 0003:00003364       ?glCompileShader@@3P6GXI@ZA 100ee364     unity_dll.obj
 0003:00003368       ?glGetShaderiv@@3P6GXIIPAH@ZA 100ee368     unity_dll.obj
 0003:0000336c       ?glGetShaderInfoLog@@3P6GXIHPAHPAD@ZA 100ee36c     unity_dll.obj
 0003:00003370       ?glDeleteShader@@3P6GXI@ZA 100ee370     unity_dll.obj
 0003:00003374       ?glCreateProgram@@3P6GIXZA 100ee374     unity_dll.obj
 0003:00003378       ?glAttachShader@@3P6GXII@ZA 100ee378     unity_dll.obj
 0003:0000337c       ?glLinkProgram@@3P6GXI@ZA  100ee37c     unity_dll.obj
 0003:00003380       ?glGetProgramiv@@3P6GXIIPAH@ZA 100ee380     unity_dll.obj
 0003:00003384       ?glGetProgramInfoLog@@3P6GXIHPAHPAD@ZA 100ee384     unity_dll.obj
 0003:00003388       ?glDeleteProgram@@3P6GXI@ZA 100ee388     unity_dll.obj
 0003:0000338c       ?glDetachShader@@3P6GXII@ZA 100ee38c     unity_dll.obj
 0003:00003390       ?glUseProgram@@3P6GXI@ZA   100ee390     unity_dll.obj
 0003:00003394       ?glBlendFuncSeparate@@3P6GXIIII@ZA 100ee394     unity_dll.obj
 0003:00003398       ?glVertexAttribPointer@@3P6GXIHIEHPBX@ZA 100ee398     unity_dll.obj
 0003:0000339c       ?glEnableVertexAttribArray@@3P6GXI@ZA 100ee39c     unity_dll.obj
 0003:000033a0       ?glGetUniformLocation@@3P6GHIPBD@ZA 100ee3a0     unity_dll.obj
 0003:000033a4       ?glUniformMatrix4fv@@3P6GXHHEPBM@ZA 100ee3a4     unity_dll.obj
 0003:000033a8       ?glUniformMatrix3fv@@3P6GXHHEPBM@ZA 100ee3a8     unity_dll.obj
 0003:000033ac       ?glUniform1fv@@3P6GXHHPBM@ZA 100ee3ac     unity_dll.obj
 0003:000033b0       ?glUniform2fv@@3P6GXHHPBM@ZA 100ee3b0     unity_dll.obj
 0003:000033b4       ?glUniform3fv@@3P6GXHHPBM@ZA 100ee3b4     unity_dll.obj
 0003:000033b8       ?glUniform4fv@@3P6GXHHPBM@ZA 100ee3b8     unity_dll.obj
 0003:000033bc       ?glGenBuffers@@3P6GXHPAI@ZA 100ee3bc     unity_dll.obj
 0003:000033c0       ?glBindBuffer@@3P6GXII@ZA  100ee3c0     unity_dll.obj
 0003:000033c4       ?glGenVertexArrays@@3P6GXHPAI@ZA 100ee3c4     unity_dll.obj
 0003:000033c8       ?glBindVertexArray@@3P6GXI@ZA 100ee3c8     unity_dll.obj
 0003:000033cc       ?glDeleteVertexArrays@@3P6GXHPBI@ZA 100ee3cc     unity_dll.obj
 0003:000033d0       ?glDeleteBuffers@@3P6GXHPBI@ZA 100ee3d0     unity_dll.obj
 0003:000033d4       ?glBufferData@@3P6GXIHPBXI@ZA 100ee3d4     unity_dll.obj
 0003:000033d8       ?glActiveTexture@@3P6GXI@ZA 100ee3d8     unity_dll.obj
 0003:000033dc       ?glGenerateMipmap@@3P6GXI@ZA 100ee3dc     unity_dll.obj
 0003:000033e0       ?glDeleteRenderbuffers@@3P6GXHPBI@ZA 100ee3e0     unity_dll.obj
 0003:000033e4       ?glDeleteFramebuffers@@3P6GXHPBI@ZA 100ee3e4     unity_dll.obj
 0003:000033e8       ?glUniform1i@@3P6GXHH@ZA   100ee3e8     unity_dll.obj
 0003:000033ec       ?glGenFramebuffers@@3P6GXHPAI@ZA 100ee3ec     unity_dll.obj
 0003:000033f0       ?glBindFramebuffer@@3P6GXII@ZA 100ee3f0     unity_dll.obj
 0003:000033f4       ?glFramebufferTexture2D@@3P6GXIIIIH@ZA 100ee3f4     unity_dll.obj
 0003:000033f8       ?glGenRenderbuffers@@3P6GXHPAI@ZA 100ee3f8     unity_dll.obj
 0003:000033fc       ?glBindRenderbuffer@@3P6GXII@ZA 100ee3fc     unity_dll.obj
 0003:00003400       ?glCheckFramebufferStatus@@3P6GII@ZA 100ee400     unity_dll.obj
 0003:00003404       ?glRenderbufferStorageMultisample@@3P6GXIHIHH@ZA 100ee404     unity_dll.obj
 0003:00003408       ?glFramebufferRenderbuffer@@3P6GXIIII@ZA 100ee408     unity_dll.obj
 0003:0000340c       ?glTexImage2DMultisample@@3P6GXIHIHHE@ZA 100ee40c     unity_dll.obj
 0003:00003410       ?glBlitFramebuffer@@3P6GXHHHHHHHHII@ZA 100ee410     unity_dll.obj
 0003:00003414       ?glGetActiveUniform@@3P6GXIIHPAH0PAIPAD@ZA 100ee414     unity_dll.obj
 0003:00003418       ?glGetUniformfv@@3P6GXIHPAM@ZA 100ee418     unity_dll.obj
 0003:0000341c       ?glGetUniformiv@@3P6GXIHPAH@ZA 100ee41c     unity_dll.obj
 0003:00003424       ?_zt_guiCollapsingPanelUpdate_FunctionID@@3HA 100ee424     unity_dll.obj
 0003:00003428       ?_zt_guiDebugRenderingDetailsCleanup_FunctionID@@3HA 100ee428     unity_dll.obj
 0003:0000342c       ?_zt_guiWindowInputMouse_FunctionID@@3HA 100ee42c     unity_dll.obj
 0003:00003430       ?_zt_guiItemSliderInputMouse_FunctionID@@3HA 100ee430     unity_dll.obj
 0003:00003434       ?_zt_guiDebugConsoleCommand_Exit_FunctionID@@3HA 100ee434     unity_dll.obj
 0003:00003438       ?_zt_guiDebugConsoleCommand_Help_FunctionID@@3HA 100ee438     unity_dll.obj
 0003:0000343c       ?_zt_guiComboBoxInputMouse_FunctionID@@3HA 100ee43c     unity_dll.obj
 0003:00003440       ?_zt_guiButtonBaseUpdate_FunctionID@@3HA 100ee440     unity_dll.obj
 0003:00003444       ?_zt_guiCollapsingPanelRender_FunctionID@@3HA 100ee444     unity_dll.obj
 0003:00003448       ?_zt_guiDebugConsoleCleanup_FunctionID@@3HA 100ee448     unity_dll.obj
 0003:0000344c       ?_zt_guiDebugRenderingDetailsUpdate_FunctionID@@3HA 100ee44c     unity_dll.obj
 0003:00003450       ?_zt_guiDebugFpsDisplayCleanup_FunctionID@@3HA 100ee450     unity_dll.obj
 0003:00003454       ?_zt_guiStaticTextBestSize_FunctionID@@3HA 100ee454     unity_dll.obj
 0003:00003458       ?_zt_guiComboBoxMenuSelected_FunctionID@@3HA 100ee458     unity_dll.obj
 0003:0000345c       ?_zt_guiTreeInputMouse_FunctionID@@3HA 100ee45c     unity_dll.obj
 0003:00003460       ?_zt_guiButtonBaseInputMouse_FunctionID@@3HA 100ee460     unity_dll.obj
 0003:00003464       ?one@ztVec3@@2U1@B         100ee464     unity_dll.obj
 0003:00003470       ?_zt_guiMenuBaseUpdate_FunctionID@@3HA 100ee470     unity_dll.obj
 0003:00003474       ?_zt_guiWindowOnButtonClose_FunctionID@@3HA 100ee474     unity_dll.obj
 0003:00003478       ?_zt_guiMenuBaseRender_FunctionID@@3HA 100ee478     unity_dll.obj
 0003:0000347c       ?_zt_guiSizerCleanup_FunctionID@@3HA 100ee47c     unity_dll.obj
 0003:00003480       ?_zt_guiDebugRenderingDetailsOnClose_FunctionID@@3HA 100ee480     unity_dll.obj
 0003:00003484       ?_zt_guiSpriteDisplayBestSize_FunctionID@@3HA 100ee484     unity_dll.obj
 0003:00003488       ?_zt_guiDebugTextureViewerOnComboBox_FunctionID@@3HA 100ee488     unity_dll.obj
 0003:0000348c       ?_zt_guiDebugGuiHierarchyOnTreeSel_FunctionID@@3HA 100ee48c     unity_dll.obj
 0003:00003490       ?_zt_guiDebugTextureViewerOnRefresh_FunctionID@@3HA 100ee490     unity_dll.obj
 0003:00003494       ?_zt_guiTreeOnToggle_FunctionID@@3HA 100ee494     unity_dll.obj
 0003:00003498       ?_zt_guiWindowOnButtonToggle_FunctionID@@3HA 100ee498     unity_dll.obj
 0003:0000349c       ?_zt_guiSliderBaseUpdate_FunctionID@@3HA 100ee49c     unity_dll.obj
 0003:000034a0       ?zero@ztVec4@@2U1@B        100ee4a0     unity_dll.obj
 0003:000034b0       ?_zt_guiScrollContainerBestSize_FunctionID@@3HA 100ee4b0     unity_dll.obj
 0003:000034b4       ?_zt_guiTreeUpdate_FunctionID@@3HA 100ee4b4     unity_dll.obj
 0003:000034b8       ?zt_local@@3UztGlobals@@A  100ee4b8     unity_dll.obj
 0003:0000360c       ?_zt_guiMenuInputMouse_FunctionID@@3HA 100ee60c     unity_dll.obj
 0003:00003610       ?one@ztVec2@@2U1@B         100ee610     unity_dll.obj
 0003:00003618       ?_zt_guiTextEditInputMouse_FunctionID@@3HA 100ee618     unity_dll.obj
 0003:0000361c       ?_zt_guiInitDebugOnMenuItem_FunctionID@@3HA 100ee61c     unity_dll.obj
 0003:00003620       ?_zt_guiTextEditRender_FunctionID@@3HA 100ee620     unity_dll.obj
 0003:00003624       ?_zt_guiScrollContainerInputMouse_FunctionID@@3HA 100ee624     unity_dll.obj
 0003:00003628       ?_zt_guiTextEditInputKey_FunctionID@@3HA 100ee628     unity_dll.obj
 0003:0000362c       ?_zt_guiComboBoxCleanup_FunctionID@@3HA 100ee62c     unity_dll.obj
 0003:00003630       ?_zt_guiButtonBaseBestSize_FunctionID@@3HA 100ee630     unity_dll.obj
 0003:00003634       ?_zt_guiScrollContainerInputKey_FunctionID@@3HA 100ee634     unity_dll.obj
 0003:00003638       ?_zt_guiInitDebugOnOpenMenu_FunctionID@@3HA 100ee638     unity_dll.obj
 0003:0000363c       ?_zt_guiDebugConsoleInputKey_FunctionID@@3HA 100ee63c     unity_dll.obj
 0003:00003640       ?_zt_guiButtonBaseRender_FunctionID@@3HA 100ee640     unity_dll.obj
 0003:00003644       ?_zt_guiTextEditBestSize_FunctionID@@3HA 100ee644     unity_dll.obj
 0003:00003648       ?_zt_guiDebugConsoleLogMessageCallback_FunctionID@@3HA 100ee648     unity_dll.obj
 0003:0000364c       ?_zt_guiTextEditUpdate_FunctionID@@3HA 100ee64c     unity_dll.obj
 0003:00003650       ?_zt_guiSpriteDisplayCleanup_FunctionID@@3HA 100ee650     unity_dll.obj
 0003:00003654       ?_zt_guiTreeCleanup_FunctionID@@3HA 100ee654     unity_dll.obj
 0003:00003658       ?_zt_guiDebugGuiHierarchyOnRefreshTree_FunctionID@@3HA 100ee658     unity_dll.obj
 0003:0000365c       ?_zt_guiCollapsingPanelBestSize_FunctionID@@3HA 100ee65c     unity_dll.obj
 0003:00003660       ?_zt_sizerUpdate_FunctionID@@3HA 100ee660     unity_dll.obj
 0003:00003664       ?one@ztVec4@@2U1@B         100ee664     unity_dll.obj
 0003:00003674       ?_zt_guiCollapsingPanelOnToggle_FunctionID@@3HA 100ee674     unity_dll.obj
 0003:00003678       ?_zt_guiDebugGuiHierarchyCleanup_FunctionID@@3HA 100ee678     unity_dll.obj
 0003:0000367c       ?_zt_guiMenuBestSize_FunctionID@@3HA 100ee67c     unity_dll.obj
 0003:00003680       ?identity@ztMat4@@2U1@B    100ee680     unity_dll.obj
 0003:000036c0       ?zero@ztMat4@@2U1@B        100ee6c0     unity_dll.obj
 0003:00003700       ?_zt_guiComboBoxBestSize_FunctionID@@3HA 100ee700     unity_dll.obj
 0003:00003704       ?_zt_guiDebugFpsDisplayButtonClose_FunctionID@@3HA 100ee704     unity_dll.obj
 0003:00003708       ?_zt_guiComboBoxInputKey_FunctionID@@3HA 100ee708     unity_dll.obj
 0003:0000370c       ?_zt_guiDebugConsoleCommandAutoComplete_Help_FunctionID@@3HA 100ee70c     unity_dll.obj
 0003:00003710       ?_zt_guiSizerBestSize_FunctionID@@3HA 100ee710     unity_dll.obj
 0003:00003714       ?_zt_guiDebugGuiHierarchyOnToggleHighlight_FunctionID@@3HA 100ee714     unity_dll.obj
 0003:00003718       ?zero@ztVec2@@2U1@B        100ee718     unity_dll.obj
 0003:00003720       ?identity@ztQuat@@2U1@B    100ee720     unity_dll.obj
 0003:00003730       ?_zt_guiTreeBestSize_FunctionID@@3HA 100ee730     unity_dll.obj
 0003:00003734       ?_zt_guiButtonBaseCleanup_FunctionID@@3HA 100ee734     unity_dll.obj
 0003:00003738       ?_zt_guiSpriteDisplayRender_FunctionID@@3HA 100ee738     unity_dll.obj
 0003:0000373c       ?_zt_guiMenuCleanup_FunctionID@@3HA 100ee73c     unity_dll.obj
 0003:00003740       ?_zt_guiDebugConsoleCommand_List_FunctionID@@3HA 100ee740     unity_dll.obj
 0003:00003748       ?_zt_guiStaticTextRender_FunctionID@@3HA 100ee748     unity_dll.obj
 0003:0000374c       ?_zt_guiDebugFpsDisplayUpdate_FunctionID@@3HA 100ee74c     unity_dll.obj
 0003:00003750       ?_zt_guiPanelRender_FunctionID@@3HA 100ee750     unity_dll.obj
 0003:00003754       ?_zt_guiTextEditCleanup_FunctionID@@3HA 100ee754     unity_dll.obj
 0003:00003758       ?zt_gui_local@@3UztGuiGlobals@@A 100ee758     unity_dll.obj
 0003:00003788       ?_zt_guiItemSliderBestSize_FunctionID@@3HA 100ee788     unity_dll.obj
 0003:0000378c       ?_zt_guiTreeRender_FunctionID@@3HA 100ee78c     unity_dll.obj
 0003:00003790       ?zero@ztVec3@@2U1@B        100ee790     unity_dll.obj
 0003:0000379c       ?_zt_guiScrollContainerUpdate_FunctionID@@3HA 100ee79c     unity_dll.obj
 0003:000037a0       ?_zt_guiSliderBaseRender_FunctionID@@3HA 100ee7a0     unity_dll.obj
 0003:00124648       ___fastflag                1020f648     LIBCMTD:fpinit.obj
 0003:00124650       __aenvptr                  1020f650     LIBCMTD:dllcrt0.obj
 0003:00124654       __wenvptr                  1020f654     LIBCMTD:dllcrt0.obj
 0003:00124658       ___pInvalidArgHandler      1020f658     LIBCMTD:invarg.obj
 0003:0012465c       ___crtDebugCheckCount      1020f65c     LIBCMTD:dbgheap.obj
 0003:00124664       ?_pfnDumpClient@@3P6AXPAXI@ZA 1020f664     LIBCMTD:dbgheap.obj
 0003:00124680       ___mbcodepage              1020f680     LIBCMTD:mbctype.obj
 0003:00124684       ___ismbcodepage            1020f684     LIBCMTD:mbctype.obj
 0003:00124688       ___mbulinfo                1020f688     LIBCMTD:mbctype.obj
 0003:00124694       ___mblocalename            1020f694     LIBCMTD:mbctype.obj
 0003:0012469c       ___locale_changed          1020f69c     LIBCMTD:wsetloca.obj
 0003:001246a0       __newmode                  1020f6a0     LIBCMTD:_newmode.obj
 0003:001246a4       __cflush                   1020f6a4     LIBCMTD:_file.obj
 0003:001246a8       ___pioinfo                 1020f6a8     LIBCMTD:ioinit.obj
 0003:00124864       __umaskval                 1020f864     LIBCMTD:crt0dat.obj
 0003:00124868       __exitflag                 1020f868     LIBCMTD:crt0dat.obj
 0003:0012486c       __C_Termination_Done       1020f86c     LIBCMTD:crt0dat.obj
 0003:00124870       ___winitenv                1020f870     LIBCMTD:crt0dat.obj
 0003:00124874       ___initenv                 1020f874     LIBCMTD:crt0dat.obj
 0003:00124878       ___argc                    1020f878     LIBCMTD:crt0dat.obj
 0003:0012487c       ___argv                    1020f87c     LIBCMTD:crt0dat.obj
 0003:00124880       ___wargv                   1020f880     LIBCMTD:crt0dat.obj
 0003:00124884       __environ                  1020f884     LIBCMTD:crt0dat.obj
 0003:00124888       __wenviron                 1020f888     LIBCMTD:crt0dat.obj
 0003:0012488c       __pgmptr                   1020f88c     LIBCMTD:crt0dat.obj
 0003:00124890       __wpgmptr                  1020f890     LIBCMTD:crt0dat.obj
 0003:00124894       __C_Exit_Done              1020f894     LIBCMTD:crt0dat.obj
 0003:00124898       ___error_mode              1020f898     LIBCMTD:errmode.obj
 0003:001248c8       ___app_type                1020f8c8     LIBCMTD:crt0msg.obj
 0003:00124ef8       ___isa_available           1020fef8     LIBCMTD:cpu_disp.obj
 0003:00124efc       ___favor                   1020fefc     LIBCMTD:cpu_disp.obj
 0003:00124f04       __crtheap                  1020ff04     LIBCMTD:heapinit.obj
 0003:00125178       ?_pnhHeap@@3P6AHI@ZA       10210178     LIBCMTD:handler.obj
 0003:0012517c       ___lconv_static_null       1021017c     LIBCMTD:lconv.obj
 0003:00125180       ___lconv_static_W_null     10210180     LIBCMTD:lconv.obj
 0003:00125184       ?__pInconsistency@@3P6AXXZA 10210184     LIBCMTD:hooks.obj
 0003:00125188       ?g_OutOfMemoryExceptionCallback@@3P6GPAXXZA 10210188     LIBCMTD:frame.obj
 0003:00125190       __commode                  10210190     LIBCMTD:ncommode.obj
 0003:00125198       ___pPurecall               10210198     LIBCMTD:inithelp.obj
 0003:001251a0       __stdbuf                   102101a0     LIBCMTD:_sftbuf.obj
 0003:001251a8       __outputformat             102101a8     LIBCMTD:outputformat.obj
 0003:001251b4       ?pArgList@UnDecorator@@0PAVReplicator@@A 102101b4     LIBCMTD:undname.obj
 0003:001251b8       ?pZNameList@UnDecorator@@0PAVReplicator@@A 102101b8     LIBCMTD:undname.obj
 0003:001251bc       ?pTemplateArgList@UnDecorator@@0PAVReplicator@@A 102101bc     LIBCMTD:undname.obj
 0003:001251c0       ?gName@UnDecorator@@0PBDB  102101c0     LIBCMTD:undname.obj
 0003:001251c4       ?name@UnDecorator@@0PBDB   102101c4     LIBCMTD:undname.obj
 0003:001251c8       ?outputString@UnDecorator@@0PADA 102101c8     LIBCMTD:undname.obj
 0003:001251cc       ?maxStringLength@UnDecorator@@0HA 102101cc     LIBCMTD:undname.obj
 0003:001251d0       ?disableFlags@UnDecorator@@0KA 102101d0     LIBCMTD:undname.obj
 0003:001251d4       ?fExplicitTemplateParams@UnDecorator@@0_NA 102101d4     LIBCMTD:undname.obj
 0003:001251d5       ?fGetTemplateArgumentList@UnDecorator@@0_NA 102101d5     LIBCMTD:undname.obj
 0003:001251d8       ?m_pGetParameter@UnDecorator@@0P6APADJ@ZA 102101d8     LIBCMTD:undname.obj
 0003:001251f0       __fmode                    102101f0     LIBCMTD:txtmode.obj
 0003:001251f4       __pReportHookListW         102101f4     <common>
 0003:001251f8       __pReportHookList          102101f8     <common>
 0003:001251fc       __pfnReportHook            102101fc     <common>
 0003:00125200       ___use_sse2_mathfcns       10210200     <common>
 0003:00125204       __pmatherr                 10210204     <common>
 0003:00125208       ___dyn_tls_init_callback   10210208     <common>
 0003:0012520c       ___onexitend               1021020c     <common>
 0003:00125210       ___onexitbegin             10210210     <common>
 0003:00125214       ___mbctype_initialized     10210214     <common>
 0003:00125218       ___env_initialized         10210218     <common>
 0003:0012521c       __nhandle                  1021021c     <common>
 0003:00125220       __bufin                    10210220     <common>
 0003:00126220       ___piob                    10211220     <common>
 0003:00126224       __nstream                  10211224     <common>
 0003:00126240       _encodedKERNEL32Functions  10211240     <common>
 0003:001262c4       __debugger_hook_dummy      102112c4     <common>
 0003:001262c8       __acmdln                   102112c8     <common>

 entry point at        0001:00074bd0

 Static symbols

 0000:ffde5000       .debug$S                   10000000     kernel32:KERNEL32.dll
 0000:ffde5000       .debug$S                   10000000     kernel32:KERNEL32.dll
 0000:ffde5000       .debug$S                   10000000     kernel32:KERNEL32.dll
 0000:ffde5000       .debug$S                   10000000     kernel32:KERNEL32.dll
 0000:ffde5000       .debug$S                   10000000     kernel32:KERNEL32.dll
 0000:ffde5000       .debug$S                   10000000     kernel32:KERNEL32.dll
 0000:ffde5000       .debug$S                   10000000     kernel32:KERNEL32.dll
 0000:ffde5000       .debug$S                   10000000     kernel32:KERNEL32.dll
 0000:ffde5000       .debug$S                   10000000     kernel32:KERNEL32.dll
 0000:ffde5000       .debug$S                   10000000     kernel32:KERNEL32.dll
 0000:ffde5000       .debug$S                   10000000     kernel32:KERNEL32.dll
 0000:ffde5000       .debug$S                   10000000     kernel32:KERNEL32.dll
 0000:ffde5000       .debug$S                   10000000     kernel32:KERNEL32.dll
 0000:ffde5000       .debug$S                   10000000     kernel32:KERNEL32.dll
 0000:ffde5000       .debug$S                   10000000     kernel32:KERNEL32.dll
 0000:ffde5000       .debug$S                   10000000     kernel32:KERNEL32.dll
 0000:ffde5000       .debug$S                   10000000     user32:USER32.dll
 0000:ffde5000       .debug$S                   10000000     user32:USER32.dll
 0000:ffde5000       .debug$S                   10000000     user32:USER32.dll
 0000:ffde5000       .debug$S                   10000000     user32:USER32.dll
 0000:ffde5000       .debug$S                   10000000     user32:USER32.dll
 0000:ffde5000       .debug$S                   10000000     user32:USER32.dll
 0000:ffde5000       .debug$S                   10000000     user32:USER32.dll
 0000:ffde5000       .debug$S                   10000000     kernel32:KERNEL32.dll
 0000:ffde5000       .debug$S                   10000000     user32:USER32.dll
 0000:ffde5000       .debug$S                   10000000     user32:USER32.dll
 0000:ffde5000       .debug$S                   10000000     user32:USER32.dll
 0000:ffde5000       .debug$S                   10000000     user32:USER32.dll
 0000:ffde5000       .debug$S                   10000000     user32:USER32.dll
 0000:ffde5000       .debug$S                   10000000     kernel32:KERNEL32.dll
 0000:ffde5000       .debug$S                   10000000     gdi32:GDI32.dll
 0000:ffde5000       .debug$S                   10000000     gdi32:GDI32.dll
 0000:ffde5000       .debug$S                   10000000     gdi32:GDI32.dll
 0000:ffde5000       .debug$S                   10000000     kernel32:KERNEL32.dll
 0000:ffde5000       .debug$S                   10000000     shell32:SHELL32.dll
 0000:ffde5000       .debug$S                   10000000     kernel32:KERNEL32.dll
 0000:ffde5000       .debug$S                   10000000     opengl32:OPENGL32.dll
 0000:ffde5000       .debug$S                   10000000     opengl32:OPENGL32.dll
 0000:ffde5000       .debug$S                   10000000     opengl32:OPENGL32.dll
 0000:ffde5000       .debug$S                   10000000     opengl32:OPENGL32.dll
 0000:ffde5000       .debug$S                   10000000     opengl32:OPENGL32.dll
 0000:ffde5000       .debug$S                   10000000     opengl32:OPENGL32.dll
 0000:ffde5000       .debug$S                   10000000     opengl32:OPENGL32.dll
 0000:ffde5000       .debug$S                   10000000     opengl32:OPENGL32.dll
 0000:ffde5000       .debug$S                   10000000     opengl32:OPENGL32.dll
 0000:ffde5000       .debug$S                   10000000     opengl32:OPENGL32.dll
 0000:ffde5000       .debug$S                   10000000     opengl32:OPENGL32.dll
 0000:ffde5000       .debug$S                   10000000     opengl32:OPENGL32.dll
 0000:ffde5000       .debug$S                   10000000     opengl32:OPENGL32.dll
 0000:ffde5000       .debug$S                   10000000     kernel32:KERNEL32.dll
 0000:ffde5000       .debug$S                   10000000     opengl32:OPENGL32.dll
 0000:ffde5000       .debug$S                   10000000     opengl32:OPENGL32.dll
 0000:ffde5000       .debug$S                   10000000     opengl32:OPENGL32.dll
 0000:ffde5000       .debug$S                   10000000     opengl32:OPENGL32.dll
 0000:ffde5000       .debug$S                   10000000     opengl32:OPENGL32.dll
 0000:ffde5000       .debug$S                   10000000     opengl32:OPENGL32.dll
 0000:ffde5000       .debug$S                   10000000     opengl32:OPENGL32.dll
 0000:ffde5000       .debug$S                   10000000     opengl32:OPENGL32.dll
 0000:ffde5000       .debug$S                   10000000     opengl32:OPENGL32.dll
 0000:ffde5000       .debug$S                   10000000     opengl32:OPENGL32.dll
 0000:ffde5000       .debug$S                   10000000     opengl32:OPENGL32.dll
 0000:ffde5000       .debug$S                   10000000     opengl32:OPENGL32.dll
 0000:ffde5000       .debug$S                   10000000     opengl32:OPENGL32.dll
 0000:ffde5000       .debug$S                   10000000     opengl32:OPENGL32.dll
 0000:ffde5000       .debug$S                   10000000     opengl32:OPENGL32.dll
 0000:ffde5000       .debug$S                   10000000     opengl32:OPENGL32.dll
 0000:ffde5000       .debug$S                   10000000     opengl32:OPENGL32.dll
 0000:ffde5000       .debug$S                   10000000     opengl32:OPENGL32.dll
 0000:ffde5000       .debug$S                   10000000     opengl32:OPENGL32.dll
 0000:ffde5000       .debug$S                   10000000     opengl32:OPENGL32.dll
 0000:ffde5000       .debug$S                   10000000     opengl32:OPENGL32.dll
 0000:ffde5000       .debug$S                   10000000     kernel32:KERNEL32.dll
 0000:ffde5000       .debug$S                   10000000     kernel32:KERNEL32.dll
 0000:ffde5000       .debug$S                   10000000     kernel32:KERNEL32.dll
 0000:ffde5000       .debug$S                   10000000     kernel32:KERNEL32.dll
 0000:ffde5000       .debug$S                   10000000     kernel32:KERNEL32.dll
 0000:ffde5000       .debug$S                   10000000     kernel32:KERNEL32.dll
 0000:ffde5000       .debug$S                   10000000     kernel32:KERNEL32.dll
 0000:ffde5000       .debug$S                   10000000     kernel32:KERNEL32.dll
 0000:ffde5000       .debug$S                   10000000     kernel32:KERNEL32.dll
 0000:ffde5000       .debug$S                   10000000     kernel32:KERNEL32.dll
 0000:ffde5000       .debug$S                   10000000     kernel32:KERNEL32.dll
 0000:ffde5000       .debug$S                   10000000     kernel32:KERNEL32.dll
 0000:ffde5000       .debug$S                   10000000     kernel32:KERNEL32.dll
 0000:ffde5000       .debug$S                   10000000     kernel32:KERNEL32.dll
 0000:ffde5000       .debug$S                   10000000     kernel32:KERNEL32.dll
 0000:ffde5000       .debug$S                   10000000     kernel32:KERNEL32.dll
 0000:ffde5000       .debug$S                   10000000     kernel32:KERNEL32.dll
 0000:ffde5000       .debug$S                   10000000     kernel32:KERNEL32.dll
 0000:ffde5000       .debug$S                   10000000     kernel32:KERNEL32.dll
 0000:ffde5000       .debug$S                   10000000     kernel32:KERNEL32.dll
 0000:ffde5000       .debug$S                   10000000     kernel32:KERNEL32.dll
 0000:ffde5000       .debug$S                   10000000     kernel32:KERNEL32.dll
 0000:ffde5000       .debug$S                   10000000     kernel32:KERNEL32.dll
 0000:ffde5000       .debug$S                   10000000     kernel32:KERNEL32.dll
 0000:ffde5000       .debug$S                   10000000     kernel32:KERNEL32.dll
 0000:ffde5000       .debug$S                   10000000     kernel32:KERNEL32.dll
 0000:ffde5000       .debug$S                   10000000     kernel32:KERNEL32.dll
 0000:ffde5000       .debug$S                   10000000     kernel32:KERNEL32.dll
 0000:ffde5000       .debug$S                   10000000     kernel32:KERNEL32.dll
 0000:ffde5000       .debug$S                   10000000     kernel32:KERNEL32.dll
 0000:ffde5000       .debug$S                   10000000     kernel32:KERNEL32.dll
 0000:ffde5000       .debug$S                   10000000     kernel32:KERNEL32.dll
 0000:ffde5000       .debug$S                   10000000     kernel32:KERNEL32.dll
 0000:ffde5000       .debug$S                   10000000     kernel32:KERNEL32.dll
 0000:ffde5000       .debug$S                   10000000     kernel32:KERNEL32.dll
 0000:ffde5000       .debug$S                   10000000     kernel32:KERNEL32.dll
 0000:ffde5000       .debug$S                   10000000     kernel32:KERNEL32.dll
 0000:ffde5000       .debug$S                   10000000     kernel32:KERNEL32.dll
 0000:ffde5000       .debug$S                   10000000     kernel32:KERNEL32.dll
 0000:ffde5000       .debug$S                   10000000     kernel32:KERNEL32.dll
 0000:ffde5000       .debug$S                   10000000     kernel32:KERNEL32.dll
 0000:ffde5000       .debug$S                   10000000     kernel32:KERNEL32.dll
 0000:ffde5000       .debug$S                   10000000     kernel32:KERNEL32.dll
 0000:ffde5000       .debug$S                   10000000     kernel32:KERNEL32.dll
 0000:ffde5000       .debug$S                   10000000     kernel32:KERNEL32.dll
 0000:ffde5000       .debug$S                   10000000     kernel32:KERNEL32.dll
 0000:ffde5000       .debug$S                   10000000     kernel32:KERNEL32.dll
 0000:ffde5000       .debug$S                   10000000     kernel32:KERNEL32.dll
 0000:ffde5000       .debug$S                   10000000     kernel32:KERNEL32.dll
 0000:ffde5000       .debug$S                   10000000     kernel32:KERNEL32.dll
 0000:ffde5000       .debug$S                   10000000     kernel32:KERNEL32.dll
 0000:ffde5000       .debug$S                   10000000     kernel32:KERNEL32.dll
 0000:ffde5000       .debug$S                   10000000     kernel32:KERNEL32.dll
 0000:ffde5000       .debug$S                   10000000     kernel32:KERNEL32.dll
 0000:ffde5000       .debug$S                   10000000     kernel32:KERNEL32.dll
 0000:ffde5000       .debug$S                   10000000     kernel32:KERNEL32.dll
 0000:ffde5000       .debug$S                   10000000     kernel32:KERNEL32.dll
 0000:ffde5000       .debug$S                   10000000     kernel32:KERNEL32.dll
 0000:ffde5000       .debug$S                   10000000     kernel32:KERNEL32.dll
 0000:ffde5000       .debug$S                   10000000     kernel32:KERNEL32.dll
 0000:ffde5000       .debug$S                   10000000     kernel32:KERNEL32.dll
 0000:ffde5000       .debug$S                   10000000     kernel32:KERNEL32.dll
 0000:ffde5000       .debug$S                   10000000     kernel32:KERNEL32.dll
 0000:ffde5000       .debug$S                   10000000     kernel32:KERNEL32.dll
 0000:ffde5000       .debug$S                   10000000     kernel32:KERNEL32.dll
 0000:ffde5000       .debug$S                   10000000     kernel32:KERNEL32.dll
 0000:ffde5000       .debug$S                   10000000     kernel32:KERNEL32.dll
 0000:ffde5000       .debug$S                   10000000     kernel32:KERNEL32.dll
 0000:ffde5000       .debug$S                   10000000     kernel32:KERNEL32.dll
 0000:ffde5000       .debug$S                   10000000     kernel32:KERNEL32.dll
 0000:ffde5000       .debug$S                   10000000     kernel32:KERNEL32.dll
 0000:ffde5000       .debug$S                   10000000     kernel32:KERNEL32.dll
 0000:ffde5000       .debug$S                   10000000     kernel32:KERNEL32.dll
 0000:ffde5000       .debug$S                   10000000     kernel32:KERNEL32.dll
 0000:ffde5000       .debug$S                   10000000     kernel32:KERNEL32.dll
 0000:ffde5000       .debug$S                   10000000     kernel32:KERNEL32.dll
 0000:ffde5000       .debug$S                   10000000     kernel32:KERNEL32.dll
 0000:ffde5000       .debug$S                   10000000     kernel32:KERNEL32.dll
 0000:ffde5000       .debug$S                   10000000     kernel32:KERNEL32.dll
 0000:ffde5000       .debug$S                   10000000     kernel32:KERNEL32.dll
 0000:ffde5000       .debug$S                   10000000     kernel32:KERNEL32.dll
 0000:ffde5000       .debug$S                   10000000     kernel32:KERNEL32.dll
 0000:ffde5000       .debug$S                   10000000     kernel32:KERNEL32.dll
 0000:ffde5000       .debug$S                   10000000     kernel32:KERNEL32.dll
 0000:ffde5000       .debug$S                   10000000     kernel32:KERNEL32.dll
 0000:ffde5000       .debug$S                   10000000     kernel32:KERNEL32.dll
 0000:ffde5000       .debug$S                   10000000     kernel32:KERNEL32.dll
 0000:ffde5000       .debug$S                   10000000     kernel32:KERNEL32.dll
 0000:ffde5000       .debug$S                   10000000     kernel32:KERNEL32.dll
 0000:ffde5000       .debug$S                   10000000     kernel32:KERNEL32.dll
 0000:ffde5000       .debug$S                   10000000     kernel32:KERNEL32.dll
 0000:ffde5000       .debug$S                   10000000     kernel32:KERNEL32.dll
 0000:ffde5000       .debug$S                   10000000     kernel32:KERNEL32.dll
 0000:ffde5000       .debug$S                   10000000     kernel32:KERNEL32.dll
 0000:ffde5000       .debug$S                   10000000     kernel32:KERNEL32.dll
 0000:ffde5000       .debug$S                   10000000     kernel32:KERNEL32.dll
 0000:ffde5000       .debug$S                   10000000     kernel32:KERNEL32.dll
 0000:ffde5000       .debug$S                   10000000     kernel32:KERNEL32.dll
 0001:00000000       ??__E?identity@ztMat4@@2U1@B@@YAXXZ 10001000 f   unity_dll.obj
 0001:000000f0       ??__E?identity@ztQuat@@2U1@B@@YAXXZ 100010f0 f   unity_dll.obj
 0001:00000140       ??__E?one@ztVec2@@2U1@B@@YAXXZ 10001140 f   unity_dll.obj
 0001:00000170       ??__E?one@ztVec3@@2U1@B@@YAXXZ 10001170 f   unity_dll.obj
 0001:000001b0       ??__E?one@ztVec4@@2U1@B@@YAXXZ 100011b0 f   unity_dll.obj
 0001:00000200       ??__E?zero@ztMat4@@2U1@B@@YAXXZ 10001200 f   unity_dll.obj
 0001:000002f0       ??__E?zero@ztVec2@@2U1@B@@YAXXZ 100012f0 f   unity_dll.obj
 0001:00000320       ??__E?zero@ztVec3@@2U1@B@@YAXXZ 10001320 f   unity_dll.obj
 0001:00000360       ??__E?zero@ztVec4@@2U1@B@@YAXXZ 10001360 f   unity_dll.obj
 0001:000003b0       ??__E_zt_guiButtonBaseBestSize_FunctionID@@YAXXZ 100013b0 f   unity_dll.obj
 0001:000003d0       ??__E_zt_guiButtonBaseCleanup_FunctionID@@YAXXZ 100013d0 f   unity_dll.obj
 0001:000003f0       ??__E_zt_guiButtonBaseInputMouse_FunctionID@@YAXXZ 100013f0 f   unity_dll.obj
 0001:00000410       ??__E_zt_guiButtonBaseRender_FunctionID@@YAXXZ 10001410 f   unity_dll.obj
 0001:00000430       ??__E_zt_guiButtonBaseUpdate_FunctionID@@YAXXZ 10001430 f   unity_dll.obj
 0001:00000450       ??__E_zt_guiCollapsingPanelBestSize_FunctionID@@YAXXZ 10001450 f   unity_dll.obj
 0001:00000470       ??__E_zt_guiCollapsingPanelOnToggle_FunctionID@@YAXXZ 10001470 f   unity_dll.obj
 0001:00000490       ??__E_zt_guiCollapsingPanelRender_FunctionID@@YAXXZ 10001490 f   unity_dll.obj
 0001:000004b0       ??__E_zt_guiCollapsingPanelUpdate_FunctionID@@YAXXZ 100014b0 f   unity_dll.obj
 0001:000004d0       ??__E_zt_guiComboBoxBestSize_FunctionID@@YAXXZ 100014d0 f   unity_dll.obj
 0001:000004f0       ??__E_zt_guiComboBoxCleanup_FunctionID@@YAXXZ 100014f0 f   unity_dll.obj
 0001:00000510       ??__E_zt_guiComboBoxInputKey_FunctionID@@YAXXZ 10001510 f   unity_dll.obj
 0001:00000530       ??__E_zt_guiComboBoxInputMouse_FunctionID@@YAXXZ 10001530 f   unity_dll.obj
 0001:00000550       ??__E_zt_guiComboBoxMenuSelected_FunctionID@@YAXXZ 10001550 f   unity_dll.obj
 0001:00000570       ??__E_zt_guiComboBoxRender_FunctionID@@YAXXZ 10001570 f   unity_dll.obj
 0001:00000590       ??__E_zt_guiDebugConsoleCleanup_FunctionID@@YAXXZ 10001590 f   unity_dll.obj
 0001:000005b0       ??__E_zt_guiDebugConsoleCommandAutoComplete_Help_FunctionID@@YAXXZ 100015b0 f   unity_dll.obj
 0001:000005d0       ??__E_zt_guiDebugConsoleCommand_Exit_FunctionID@@YAXXZ 100015d0 f   unity_dll.obj
 0001:000005f0       ??__E_zt_guiDebugConsoleCommand_Help_FunctionID@@YAXXZ 100015f0 f   unity_dll.obj
 0001:00000610       ??__E_zt_guiDebugConsoleCommand_List_FunctionID@@YAXXZ 10001610 f   unity_dll.obj
 0001:00000630       ??__E_zt_guiDebugConsoleInputKey_FunctionID@@YAXXZ 10001630 f   unity_dll.obj
 0001:00000650       ??__E_zt_guiDebugConsoleLogMessageCallback_FunctionID@@YAXXZ 10001650 f   unity_dll.obj
 0001:00000670       ??__E_zt_guiDebugFpsDisplayButtonClose_FunctionID@@YAXXZ 10001670 f   unity_dll.obj
 0001:00000690       ??__E_zt_guiDebugFpsDisplayCleanup_FunctionID@@YAXXZ 10001690 f   unity_dll.obj
 0001:000006b0       ??__E_zt_guiDebugFpsDisplayUpdate_FunctionID@@YAXXZ 100016b0 f   unity_dll.obj
 0001:000006d0       ??__E_zt_guiDebugGuiHierarchyCleanup_FunctionID@@YAXXZ 100016d0 f   unity_dll.obj
 0001:000006f0       ??__E_zt_guiDebugGuiHierarchyOnRefreshTree_FunctionID@@YAXXZ 100016f0 f   unity_dll.obj
 0001:00000710       ??__E_zt_guiDebugGuiHierarchyOnToggleHighlight_FunctionID@@YAXXZ 10001710 f   unity_dll.obj
 0001:00000730       ??__E_zt_guiDebugGuiHierarchyOnTreeSel_FunctionID@@YAXXZ 10001730 f   unity_dll.obj
 0001:00000750       ??__E_zt_guiDebugRenderingDetailsCleanup_FunctionID@@YAXXZ 10001750 f   unity_dll.obj
 0001:00000770       ??__E_zt_guiDebugRenderingDetailsOnClose_FunctionID@@YAXXZ 10001770 f   unity_dll.obj
 0001:00000790       ??__E_zt_guiDebugRenderingDetailsUpdate_FunctionID@@YAXXZ 10001790 f   unity_dll.obj
 0001:000007b0       ??__E_zt_guiDebugTextureViewerOnComboBox_FunctionID@@YAXXZ 100017b0 f   unity_dll.obj
 0001:000007d0       ??__E_zt_guiDebugTextureViewerOnRefresh_FunctionID@@YAXXZ 100017d0 f   unity_dll.obj
 0001:000007f0       ??__E_zt_guiInitDebugOnMenuItem_FunctionID@@YAXXZ 100017f0 f   unity_dll.obj
 0001:00000810       ??__E_zt_guiInitDebugOnOpenMenu_FunctionID@@YAXXZ 10001810 f   unity_dll.obj
 0001:00000830       ??__E_zt_guiItemSliderBestSize_FunctionID@@YAXXZ 10001830 f   unity_dll.obj
 0001:00000850       ??__E_zt_guiItemSliderInputMouse_FunctionID@@YAXXZ 10001850 f   unity_dll.obj
 0001:00000870       ??__E_zt_guiMenuBaseRender_FunctionID@@YAXXZ 10001870 f   unity_dll.obj
 0001:00000890       ??__E_zt_guiMenuBaseUpdate_FunctionID@@YAXXZ 10001890 f   unity_dll.obj
 0001:000008b0       ??__E_zt_guiMenuBestSize_FunctionID@@YAXXZ 100018b0 f   unity_dll.obj
 0001:000008d0       ??__E_zt_guiMenuCleanup_FunctionID@@YAXXZ 100018d0 f   unity_dll.obj
 0001:000008f0       ??__E_zt_guiMenuInputMouse_FunctionID@@YAXXZ 100018f0 f   unity_dll.obj
 0001:00000910       ??__E_zt_guiPanelRender_FunctionID@@YAXXZ 10001910 f   unity_dll.obj
 0001:00000930       ??__E_zt_guiScrollContainerBestSize_FunctionID@@YAXXZ 10001930 f   unity_dll.obj
 0001:00000950       ??__E_zt_guiScrollContainerInputKey_FunctionID@@YAXXZ 10001950 f   unity_dll.obj
 0001:00000970       ??__E_zt_guiScrollContainerInputMouse_FunctionID@@YAXXZ 10001970 f   unity_dll.obj
 0001:00000990       ??__E_zt_guiScrollContainerUpdate_FunctionID@@YAXXZ 10001990 f   unity_dll.obj
 0001:000009b0       ??__E_zt_guiSizerBestSize_FunctionID@@YAXXZ 100019b0 f   unity_dll.obj
 0001:000009d0       ??__E_zt_guiSizerCleanup_FunctionID@@YAXXZ 100019d0 f   unity_dll.obj
 0001:000009f0       ??__E_zt_guiSliderBaseRender_FunctionID@@YAXXZ 100019f0 f   unity_dll.obj
 0001:00000a10       ??__E_zt_guiSliderBaseUpdate_FunctionID@@YAXXZ 10001a10 f   unity_dll.obj
 0001:00000a30       ??__E_zt_guiSpriteDisplayBestSize_FunctionID@@YAXXZ 10001a30 f   unity_dll.obj
 0001:00000a50       ??__E_zt_guiSpriteDisplayCleanup_FunctionID@@YAXXZ 10001a50 f   unity_dll.obj
 0001:00000a70       ??__E_zt_guiSpriteDisplayRender_FunctionID@@YAXXZ 10001a70 f   unity_dll.obj
 0001:00000a90       ??__E_zt_guiStaticTextBestSize_FunctionID@@YAXXZ 10001a90 f   unity_dll.obj
 0001:00000ab0       ??__E_zt_guiStaticTextRender_FunctionID@@YAXXZ 10001ab0 f   unity_dll.obj
 0001:00000ad0       ??__E_zt_guiTextEditBestSize_FunctionID@@YAXXZ 10001ad0 f   unity_dll.obj
 0001:00000af0       ??__E_zt_guiTextEditCleanup_FunctionID@@YAXXZ 10001af0 f   unity_dll.obj
 0001:00000b10       ??__E_zt_guiTextEditInputKey_FunctionID@@YAXXZ 10001b10 f   unity_dll.obj
 0001:00000b30       ??__E_zt_guiTextEditInputMouse_FunctionID@@YAXXZ 10001b30 f   unity_dll.obj
 0001:00000b50       ??__E_zt_guiTextEditRender_FunctionID@@YAXXZ 10001b50 f   unity_dll.obj
 0001:00000b70       ??__E_zt_guiTextEditUpdate_FunctionID@@YAXXZ 10001b70 f   unity_dll.obj
 0001:00000b90       ??__E_zt_guiTreeBestSize_FunctionID@@YAXXZ 10001b90 f   unity_dll.obj
 0001:00000bb0       ??__E_zt_guiTreeCleanup_FunctionID@@YAXXZ 10001bb0 f   unity_dll.obj
 0001:00000bd0       ??__E_zt_guiTreeInputMouse_FunctionID@@YAXXZ 10001bd0 f   unity_dll.obj
 0001:00000bf0       ??__E_zt_guiTreeOnToggle_FunctionID@@YAXXZ 10001bf0 f   unity_dll.obj
 0001:00000c10       ??__E_zt_guiTreeRender_FunctionID@@YAXXZ 10001c10 f   unity_dll.obj
 0001:00000c30       ??__E_zt_guiTreeUpdate_FunctionID@@YAXXZ 10001c30 f   unity_dll.obj
 0001:00000c50       ??__E_zt_guiWindowInputMouse_FunctionID@@YAXXZ 10001c50 f   unity_dll.obj
 0001:00000c70       ??__E_zt_guiWindowOnButtonClose_FunctionID@@YAXXZ 10001c70 f   unity_dll.obj
 0001:00000c90       ??__E_zt_guiWindowOnButtonToggle_FunctionID@@YAXXZ 10001c90 f   unity_dll.obj
 0001:00000cb0       ??__E_zt_guiWindowRender_FunctionID@@YAXXZ 10001cb0 f   unity_dll.obj
 0001:00000cd0       ??__E_zt_sizerUpdate_FunctionID@@YAXXZ 10001cd0 f   unity_dll.obj
 0001:00000cf0       ??__Ezt_gui_local@@YAXXZ   10001cf0 f   unity_dll.obj
 0001:00000d00       ??__Ezt_local@@YAXXZ       10001d00 f   unity_dll.obj
 0001:000040b8       $LN14                      100050b8     unity_dll.obj
 0001:0000ae1c       $LN36                      1000be1c     unity_dll.obj
 0001:0000b13c       $LN42                      1000c13c     unity_dll.obj
 0001:0000e9e8       $LN11                      1000f9e8     unity_dll.obj
 0001:00010574       $LN22                      10011574     unity_dll.obj
 0001:0001b084       $LN35                      1001c084     unity_dll.obj
 0001:0001e040       $LN175                     1001f040     unity_dll.obj
 0001:0001fa14       $LN21                      10020a14     unity_dll.obj
 0001:0001fbc8       $LN19                      10020bc8     unity_dll.obj
 0001:00032430       ?_drawLabeledArea@@YAXPAUztGame@@PADUztVec3@@UztVec2@@UztVec4@@4MMW4ztAlign_Enum@@5@Z 10033430 f   unity_dll.obj
 0001:000343d4       $LN53                      100353d4     unity_dll.obj
 0001:000343f0       $LN54                      100353f0     unity_dll.obj
 0001:00034400       $LN55                      10035400     unity_dll.obj
 0001:00034410       $LN56                      10035410     unity_dll.obj
 0001:00034420       $LN57                      10035420     unity_dll.obj
 0001:00034430       $LN58                      10035430     unity_dll.obj
 0001:00034440       $LN59                      10035440     unity_dll.obj
 0001:000348b0       $LN13                      100358b0     unity_dll.obj
 0001:00034a20       _localtime_s               10035a20 f   unity_dll.obj
 0001:00034a40       _time                      10035a40 f   unity_dll.obj
 0001:00034a80       ?_zt_logMessageRaw@@YAXW4ztLogMessageLevel_Enum@@PBD@Z 10035a80 f   unity_dll.obj
 0001:00034c90       ?process@local@?3??zt_strNumberToString@@YAHPADH_J@Z@SAXPA_JPAPADPA_N1@Z 10035c90 f   unity_dll.obj
 0001:00034db0       ?_zt_serialAddToChecksum@@YAXPAUztSerial@@E@Z 10035db0 f   unity_dll.obj
 0001:00034e00       ?_zt_serialAddToChecksum@@YAXPAUztSerial@@PAXH@Z 10035e00 f   unity_dll.obj
 0001:00034e80       ?_zt_validateChecksum@@YA_NPAUztSerial@@@Z 10035e80 f   unity_dll.obj
 0001:00035130       ?_zt_writeByte@@YA_NPAUztSerial@@E@Z 10036130 f   unity_dll.obj
 0001:00035190       ?_zt_writeData@@YA_NPAUztSerial@@W4ztSerialEntryType_Enum@@PAXH@Z 10036190 f   unity_dll.obj
 0001:00035250       ?_zt_readData@@YAHPAUztSerial@@PAXH@Z 10036250 f   unity_dll.obj
 0001:000352d0       ?_zt_readByte@@YA_NPAUztSerial@@PAE@Z 100362d0 f   unity_dll.obj
 0001:00035310       ?_zt_readData@@YA_NPAUztSerial@@W4ztSerialEntryType_Enum@@PAXH@Z 10036310 f   unity_dll.obj
 0001:00035680       ??0local_init@?1??zt_getTime@@YANXZ@QAE@PAT_LARGE_INTEGER@@PAN0@Z 10036680 f   unity_dll.obj
 0001:00035c10       ?_ztgl_win_loadFunctions@@YAXXZ 10036c10 f   unity_dll.obj
 0001:00036db0       ?opengl_calls@local@?7??ztgl_win_setViewport@@YA_NPAUztContextGL@@@Z@SA_NHHMM@Z 10037db0 f   unity_dll.obj
 0001:00036fa0       ?load_shader@local@?1??ztgl_shaderMake@@YAPAUztShaderGL@@PAUztMemoryArena@@PBD11@Z@SAII1@Z 10037fa0 f   unity_dll.obj
 0001:00037140       ?load_program@local@?1??ztgl_shaderMake@@YAPAUztShaderGL@@PAUztMemoryArena@@PBD11@Z@SAIIII@Z 10038140 f   unity_dll.obj
 0001:000372f0       ?_ztgl_shaderGetUniformLocation@@YAHPAUztShaderGL@@I@Z 100382f0 f   unity_dll.obj
 0001:00037370       ?_ztgl_textureMakeBase@@YAPAUztTextureGL@@PAUztMemoryArena@@PAEHHHH@Z 10038370 f   unity_dll.obj
 0001:00037560       ?loadTexture@OpenGL@?8??_ztgl_textureMakeBase@@YAPAUztTextureGL@@PAUztMemoryArena@@PAEHHHH@Z@SA_NPAI1HHH@Z 10038560 f   unity_dll.obj
 0001:000377d0       ?makeRenderTarget@OpenGL@?8??_ztgl_textureMakeBase@@YAPAUztTextureGL@@PAUztMemoryArena@@PAEHHHH@Z@SA_NPAI2222HHH@Z 100387d0 f   unity_dll.obj
 0001:00037e20       ?loadTexture@local@?1??ztgl_textureMakeCubeMapFromPixelData@@YAPAUztTextureGL@@PAUztMemoryArena@@PAPAEHHH@Z@SA_NPAIQAPAEHH@Z 10038e20 f   unity_dll.obj
 0001:00038060       ?_ztds_bufferFillNextSlot@@YA_NPAUztDirectSoundBuffer@@PAW4ztDirectSoundBufferError_Enum@@@Z 10039060 f   unity_dll.obj
 0001:00038210       ?checkDataChunk@local@?BA@??ztds_bufferMake@@YAPAUztDirectSoundBuffer@@PAUztDirectSoundContext@@PAEHPAW4ztDirectSoundBufferError_Enum@@@Z@SA_NPADPBD4@Z 10039210 f   unity_dll.obj
 0001:000384c0       _stbi_load_from_memory     100394c0 f   unity_dll.obj
 0001:00038520       _stbi_image_free           10039520 f   unity_dll.obj
 0001:00038540       _stbi_failure_reason       10039540 f   unity_dll.obj
 0001:00038550       ?_zt_assetLoadData@@YA_NPAUztAssetManager@@HPAW4ztAssetManagerType_Enum@@HPAPAXPAH@Z 10039550 f   unity_dll.obj
 0001:00038af0       ?_zt_rendererCheckToResetStats@@YAXXZ 10039af0 f   unity_dll.obj
 0001:00038ba0       ?texturesMatch@local@?DE@??zt_renderDrawLists@@YAXPAUztCamera@@PAPAUztDrawList@@HABUztVec4@@HH@Z@SA_NPAUztDrawCommand@@3@Z 10039ba0 f   unity_dll.obj
 0001:00038c20       ?processForShader@local@?DE@??zt_renderDrawLists@@YAXPAUztCamera@@PAPAUztDrawList@@HABUztVec4@@HH@Z@SAPAE01HHHPAEAAHPAPAUztCompileShader@?BE@??2@YAX01H2HH@Z@PAUztCompileClipRegion@?BE@??2@YAX01H2HH@Z@@Z 10039c20 f   unity_dll.obj
 0001:000393d0       ?processedShader@local@?DE@??zt_renderDrawLists@@YAXPAUztCamera@@PAPAUztDrawList@@HABUztVec4@@HH@Z@SA_NHPAPAUztCompileShader@?BE@??2@YAX01H2HH@Z@H@Z 1003a3d0 f   unity_dll.obj
 0001:00039410       ?processLastCommand@OpenGL@?NA@??zt_renderDrawLists@@YAXPAUztCamera@@PAPAUztDrawList@@HABUztVec4@@HH@Z@SAX0PAUztMat4@@AAU5@W4ztDrawCommandType_Enum@@5PAUztBuffer@?JK@??2@YAX01H2HH@Z@@Z 1003a410 f   unity_dll.obj
 0001:000395e0       $LN18                      1003a5e0     unity_dll.obj
 0001:000395ec       $LN16                      1003a5ec     unity_dll.obj
 0001:000395f8       $LN19                      1003a5f8     unity_dll.obj
 0001:00039608       $LN17                      1003a608     unity_dll.obj
 0001:00039620       ?calculateModel@local@?1??zt_sceneCull@@YAXPAUztScene@@PAUztCamera@@@Z@SAXPAUztModel@@PBUztMat4@@@Z 1003a620 f   unity_dll.obj
 0001:00039770       ?_zt_sceneLightingMakeLightMat@@YA?AUztMat4@@PAUztLight@@PAUztCamera@@@Z 1003a770 f   unity_dll.obj
 0001:00039a50       ?renderModelAndChildren@local@?1??zt_sceneLighting@@YAXPAUztScene@@PAUztCamera@@@Z@SAX0HPAUztModel@@H@Z 1003aa50 f   unity_dll.obj
 0001:00039b20       ?renderModelAndChildren@local@?1??zt_sceneRender@@YAXPAUztScene@@PAUztCamera@@@Z@SAX0PAUModelInfo@3@PAUztModel@@1PAUztMat4@@PAH@Z 1003ab20 f   unity_dll.obj
 0001:0003ac18       $LN64                      1003bc18     unity_dll.obj
 0001:0003ac34       $LN63                      1003bc34     unity_dll.obj
 0001:0003ac50       ?_zt_rendererShaderReload@@YAXPAUztAssetManager@@HPAX@Z 1003bc50 f   unity_dll.obj
 0001:0003ae90       ?_zt_rendererTextureReload@@YAXPAUztAssetManager@@HPAX@Z 1003be90 f   unity_dll.obj
 0001:0003aea0       ?_zt_textureMakeBase@@YAHPAEHHHHPAPBD@Z 1003bea0 f   unity_dll.obj
 0001:0003b720       ?_zt_fontMakeFromBmpFontBase@@YAHPAUztAssetManager@@HHPBDHABUztVec2@@@Z 1003c720 f   unity_dll.obj
 0001:0003c670       ?getIntAfterEquals@local@?BF@??_zt_fontMakeFromBmpFontBase@@YAHPAUztAssetManager@@HHPBDHABUztVec2@@@Z@SAHPADH@Z 1003d670 f   unity_dll.obj
 0001:0003c760       ?_zt_fontGetRowCount@@YAHPBDH@Z 1003d760 f   unity_dll.obj
 0001:0003c7c0       ?_zt_fontGetRowInfo@@YAXPBDHHPAH1@Z 1003d7c0 f   unity_dll.obj
 0001:0003c870       ?_zt_fontGetGlyphsFromText@@YAXHPBDHPAHH@Z 1003d870 f   unity_dll.obj
 0001:0003c930       ?_zt_fontGetExtents@@YAXHPBDHHPAHHPAM2@Z 1003d930 f   unity_dll.obj
 0001:0003cc30       ?_zt_fontGetExtentsFancy@@YAXHPBDHHPAHHPAM2@Z 1003dc30 f   unity_dll.obj
 0001:0003d130       ?_zt_materialLoadFromFileDataBase@@YAHPADHPAUztMaterial@@HPAUztAssetManager@@H0@Z 1003e130 f   unity_dll.obj
 0001:0003d7a0       ?parseReflectivity@local@?BJ@??_zt_materialLoadFromFileDataBase@@YAHPADHPAUztMaterial@@HPAUztAssetManager@@H0@Z@SA?AUztVec4@@0@Z 1003e7a0 f   unity_dll.obj
 0001:0003d8d0       ?parseValue@local@?BJ@??_zt_materialLoadFromFileDataBase@@YAHPADHPAUztMaterial@@HPAUztAssetManager@@H0@Z@SAM0@Z 1003e8d0 f   unity_dll.obj
 0001:0003d900       ?parseTexture@local@?BJ@??_zt_materialLoadFromFileDataBase@@YAHPADHPAUztMaterial@@HPAUztAssetManager@@H0@Z@SAH02H0@Z 1003e900 f   unity_dll.obj
 0001:0003d9c0       ?parseReal@local@?FI@??zt_meshLoadOBJ@@YAHPAUztAssetManager@@HPAHPAUztMaterial@@HABUztVec3@@3@Z@SAMPBDAAUztToken@@@Z 1003e9c0 f   unity_dll.obj
 0001:0003da10       ?parseInt@local@?FI@??zt_meshLoadOBJ@@YAHPAUztAssetManager@@HPAHPAUztMaterial@@HABUztVec3@@3@Z@SAHPBDAAUztToken@@@Z 1003ea10 f   unity_dll.obj
 0001:0003da60       ?applyToMesh@local@?FI@??zt_meshLoadOBJ@@YAHPAUztAssetManager@@HPAHPAUztMaterial@@HABUztVec3@@3@Z@SAH_N4HHPAU5@PAUztVec2@@5PAI77H@Z 1003ea60 f   unity_dll.obj
 0001:0003dc60       ?_zt_audioCheckContext@@YA_NXZ 1003ec60 f   unity_dll.obj
 0001:0003dcc0       ?_zt_audioClipMakeFromData@@YAHPAXH@Z 1003ecc0 f   unity_dll.obj
 0001:0003f2d0       ?stbi__cpuid3@@YAHXZ       100402d0 f   unity_dll.obj
 0001:0003f320       ?stbi__sse2_available@@YAHXZ 10040320 f   unity_dll.obj
 0001:0003f350       ?stbi__refill_buffer@@YAXPAUstbi__context@@@Z 10040350 f   unity_dll.obj
 0001:0003f3e0       ?stbi__start_mem@@YAXPAUstbi__context@@PBEH@Z 100403e0 f   unity_dll.obj
 0001:0003f440       ?stbi__start_callbacks@@YAXPAUstbi__context@@PAUstbi_io_callbacks@@PAX@Z 10040440 f   unity_dll.obj
 0001:0003f4b0       ?stbi__stdio_read@@YAHPAXPADH@Z 100404b0 f   unity_dll.obj
 0001:0003f4d0       ?stbi__stdio_skip@@YAXPAXH@Z 100404d0 f   unity_dll.obj
 0001:0003f4f0       ?stbi__stdio_eof@@YAHPAX@Z 100404f0 f   unity_dll.obj
 0001:0003f510       ?stbi__start_file@@YAXPAUstbi__context@@PAU_iobuf@@@Z 10040510 f   unity_dll.obj
 0001:0003f530       ?stbi__rewind@@YAXPAUstbi__context@@@Z 10040530 f   unity_dll.obj
 0001:0003f560       ?stbi__jpeg_test@@YAHPAUstbi__context@@@Z 10040560 f   unity_dll.obj
 0001:0003f5d0       ?stbi__jpeg_load@@YAPAEPAUstbi__context@@PAH11H@Z 100405d0 f   unity_dll.obj
 0001:0003f630       ?stbi__jpeg_info@@YAHPAUstbi__context@@PAH11@Z 10040630 f   unity_dll.obj
 0001:0003f680       ?stbi__png_test@@YAHPAUstbi__context@@@Z 10040680 f   unity_dll.obj
 0001:0003f6b0       ?stbi__png_load@@YAPAEPAUstbi__context@@PAH11H@Z 100406b0 f   unity_dll.obj
 0001:0003f6e0       ?stbi__png_info@@YAHPAUstbi__context@@PAH11@Z 100406e0 f   unity_dll.obj
 0001:0003f710       ?stbi__bmp_test@@YAHPAUstbi__context@@@Z 10040710 f   unity_dll.obj
 0001:0003f740       ?stbi__bmp_load@@YAPAEPAUstbi__context@@PAH11H@Z 10040740 f   unity_dll.obj
 0001:00040510       ?stbi__bmp_info@@YAHPAUstbi__context@@PAH11@Z 10041510 f   unity_dll.obj
 0001:000405a0       ?stbi__tga_test@@YAHPAUstbi__context@@@Z 100415a0 f   unity_dll.obj
 0001:00040720       ?stbi__tga_load@@YAPAEPAUstbi__context@@PAH11H@Z 10041720 f   unity_dll.obj
 0001:00040e40       ?stbi__tga_info@@YAHPAUstbi__context@@PAH11@Z 10041e40 f   unity_dll.obj
 0001:00041090       ?stbi__psd_test@@YAHPAUstbi__context@@@Z 10042090 f   unity_dll.obj
 0001:000410e0       ?stbi__psd_load@@YAPAEPAUstbi__context@@PAH11H@Z 100420e0 f   unity_dll.obj
 0001:00041730       ?stbi__psd_info@@YAHPAUstbi__context@@PAH11@Z 10042730 f   unity_dll.obj
 0001:00041830       ?stbi__hdr_test@@YAHPAUstbi__context@@@Z 10042830 f   unity_dll.obj
 0001:00041860       ?stbi__hdr_load@@YAPAMPAUstbi__context@@PAH11H@Z 10042860 f   unity_dll.obj
 0001:00042070       ?stbi__hdr_info@@YAHPAUstbi__context@@PAH11@Z 10043070 f   unity_dll.obj
 0001:000422b0       ?stbi__pic_test@@YAHPAUstbi__context@@@Z 100432b0 f   unity_dll.obj
 0001:000422e0       ?stbi__pic_load@@YAPAEPAUstbi__context@@PAH11H@Z 100432e0 f   unity_dll.obj
 0001:00042470       ?stbi__pic_info@@YAHPAUstbi__context@@PAH11@Z 10043470 f   unity_dll.obj
 0001:00042640       ?stbi__gif_test@@YAHPAUstbi__context@@@Z 10043640 f   unity_dll.obj
 0001:00042670       ?stbi__gif_load@@YAPAEPAUstbi__context@@PAH11H@Z 10043670 f   unity_dll.obj
 0001:00042740       ?stbi__gif_info@@YAHPAUstbi__context@@PAH11@Z 10043740 f   unity_dll.obj
 0001:00042760       ?stbi__pnm_test@@YAHPAUstbi__context@@@Z 10043760 f   unity_dll.obj
 0001:000427c0       ?stbi__pnm_load@@YAPAEPAUstbi__context@@PAH11H@Z 100437c0 f   unity_dll.obj
 0001:000428d0       ?stbi__pnm_info@@YAHPAUstbi__context@@PAH11@Z 100438d0 f   unity_dll.obj
 0001:000429f0       ?stbi__err@@YAHPBD@Z       100439f0 f   unity_dll.obj
 0001:00042a00       ?stbi__malloc@@YAPAXI@Z    10043a00 f   unity_dll.obj
 0001:00042a20       ?stbi__ldr_to_hdr@@YAPAMPAEHHH@Z 10043a20 f   unity_dll.obj
 0001:00042b80       ?stbi__hdr_to_ldr@@YAPAEPAMHHH@Z 10043b80 f   unity_dll.obj
 0001:00042d70       ?stbi__load_main@@YAPAEPAUstbi__context@@PAH11H@Z 10043d70 f   unity_dll.obj
 0001:00042f90       ?stbi__load_flip@@YAPAEPAUstbi__context@@PAH11H@Z 10043f90 f   unity_dll.obj
 0001:000430e0       ?stbi__float_postprocess@@YAXPAMPAH11H@Z 100440e0 f   unity_dll.obj
 0001:00043210       ?stbi__fopen@@YAPAU_iobuf@@PBD0@Z 10044210 f   unity_dll.obj
 0001:00043240       ?stbi__loadf_main@@YAPAMPAUstbi__context@@PAH11H@Z 10044240 f   unity_dll.obj
 0001:00043320       ?stbi__get8@@YAEPAUstbi__context@@@Z 10044320 f   unity_dll.obj
 0001:000433b0       ?stbi__at_eof@@YAHPAUstbi__context@@@Z 100443b0 f   unity_dll.obj
 0001:00043420       ?stbi__skip@@YAXPAUstbi__context@@H@Z 10044420 f   unity_dll.obj
 0001:000434b0       ?stbi__getn@@YAHPAUstbi__context@@PAEH@Z 100444b0 f   unity_dll.obj
 0001:000435b0       ?stbi__get16be@@YAHPAUstbi__context@@@Z 100445b0 f   unity_dll.obj
 0001:000435f0       ?stbi__get32be@@YAIPAUstbi__context@@@Z 100445f0 f   unity_dll.obj
 0001:00043620       ?stbi__get16le@@YAHPAUstbi__context@@@Z 10044620 f   unity_dll.obj
 0001:00043650       ?stbi__get32le@@YAIPAUstbi__context@@@Z 10044650 f   unity_dll.obj
 0001:00043680       ?stbi__compute_y@@YAEHHH@Z 10044680 f   unity_dll.obj
 0001:000436a0       ?stbi__convert_format@@YAPAEPAEHHII@Z 100446a0 f   unity_dll.obj
 0001:00043dec       $LN65                      10044dec     unity_dll.obj
 0001:00043e20       $LN64                      10044e20     unity_dll.obj
 0001:00043e40       ?stbi__build_huffman@@YAHPAUstbi__huffman@@PAH@Z 10044e40 f   unity_dll.obj
 0001:00044050       ?stbi__build_fast_ac@@YAXPAFPAUstbi__huffman@@@Z 10045050 f   unity_dll.obj
 0001:00044160       ?stbi__grow_buffer_unsafe@@YAXPAUstbi__jpeg@@@Z 10045160 f   unity_dll.obj
 0001:00044230       ?stbi__jpeg_huff_decode@@YAHPAUstbi__jpeg@@PAUstbi__huffman@@@Z 10045230 f   unity_dll.obj
 0001:00044420       ?stbi__extend_receive@@YAHPAUstbi__jpeg@@H@Z 10045420 f   unity_dll.obj
 0001:000444e0       ?stbi__jpeg_get_bits@@YAHPAUstbi__jpeg@@H@Z 100454e0 f   unity_dll.obj
 0001:00044560       ?stbi__jpeg_get_bit@@YAHPAUstbi__jpeg@@@Z 10045560 f   unity_dll.obj
 0001:000445c0       ?stbi__jpeg_decode_block@@YAHPAUstbi__jpeg@@QAFPAUstbi__huffman@@2PAFHPAE@Z 100455c0 f   unity_dll.obj
 0001:00044800       ?stbi__jpeg_decode_block_prog_dc@@YAHPAUstbi__jpeg@@QAFPAUstbi__huffman@@H@Z 10045800 f   unity_dll.obj
 0001:00044930       ?stbi__jpeg_decode_block_prog_ac@@YAHPAUstbi__jpeg@@QAFPAUstbi__huffman@@PAF@Z 10045930 f   unity_dll.obj
 0001:00044dd0       ?stbi__clamp@@YAEH@Z       10045dd0 f   unity_dll.obj
 0001:00044e00       ?stbi__idct_block@@YAXPAEHQAF@Z 10045e00 f   unity_dll.obj
 0001:000458c0       ?stbi__idct_simd@@YAXPAEHQAF@Z 100468c0 f   unity_dll.obj
 0001:00047e40       ?stbi__get_marker@@YAEPAUstbi__jpeg@@@Z 10048e40 f   unity_dll.obj
 0001:00047ec0       ?stbi__jpeg_reset@@YAXPAUstbi__jpeg@@@Z 10048ec0 f   unity_dll.obj
 0001:00047f80       ?stbi__parse_entropy_coded_data@@YAHPAUstbi__jpeg@@@Z 10048f80 f   unity_dll.obj
 0001:000489e0       ?stbi__jpeg_dequantize@@YAXPAFPAE@Z 100499e0 f   unity_dll.obj
 0001:00048a30       ?stbi__jpeg_finish@@YAXPAUstbi__jpeg@@@Z 10049a30 f   unity_dll.obj
 0001:00048b90       ?stbi__process_marker@@YAHPAUstbi__jpeg@@H@Z 10049b90 f   unity_dll.obj
 0001:00048f18       $LN40                      10049f18     unity_dll.obj
 0001:00048f2c       $LN39                      10049f2c     unity_dll.obj
 0001:00048f70       ?stbi__process_scan_header@@YAHPAUstbi__jpeg@@@Z 10049f70 f   unity_dll.obj
 0001:00049240       ?stbi__process_frame_header@@YAHPAUstbi__jpeg@@H@Z 1004a240 f   unity_dll.obj
 0001:000498f0       ?stbi__decode_jpeg_header@@YAHPAUstbi__jpeg@@H@Z 1004a8f0 f   unity_dll.obj
 0001:00049a30       ?stbi__decode_jpeg_image@@YAHPAUstbi__jpeg@@@Z 1004aa30 f   unity_dll.obj
 0001:00049bc0       ?resample_row_1@@YAPAEPAE00HH@Z 1004abc0 f   unity_dll.obj
 0001:00049bd0       ?stbi__resample_row_v_2@@YAPAEPAE00HH@Z 1004abd0 f   unity_dll.obj
 0001:00049c20       ?stbi__resample_row_h_2@@YAPAEPAE00HH@Z 1004ac20 f   unity_dll.obj
 0001:00049d70       ?stbi__resample_row_hv_2@@YAPAEPAE00HH@Z 1004ad70 f   unity_dll.obj
 0001:00049ea0       ?stbi__resample_row_hv_2_simd@@YAPAEPAE00HH@Z 1004aea0 f   unity_dll.obj
 0001:0004a3c0       ?stbi__resample_row_generic@@YAPAEPAE00HH@Z 1004b3c0 f   unity_dll.obj
 0001:0004a420       ?stbi__YCbCr_to_RGB_row@@YAXPAEPBE11HH@Z 1004b420 f   unity_dll.obj
 0001:0004a580       ?stbi__YCbCr_to_RGB_simd@@YAXPAEPBE11HH@Z 1004b580 f   unity_dll.obj
 0001:0004ac00       ?stbi__setup_jpeg@@YAXPAUstbi__jpeg@@@Z 1004bc00 f   unity_dll.obj
 0001:0004ac60       ?stbi__cleanup_jpeg@@YAXPAUstbi__jpeg@@@Z 1004bc60 f   unity_dll.obj
 0001:0004ad70       ?load_jpeg_image@@YAPAEPAUstbi__jpeg@@PAH11H@Z 1004bd70 f   unity_dll.obj
 0001:0004b630       ?stbi__jpeg_info_raw@@YAHPAUstbi__jpeg@@PAH11@Z 1004c630 f   unity_dll.obj
 0001:0004b6a0       ?stbi__bitreverse16@@YAHH@Z 1004c6a0 f   unity_dll.obj
 0001:0004b720       ?stbi__bit_reverse@@YAHHH@Z 1004c720 f   unity_dll.obj
 0001:0004b760       ?stbi__zbuild_huffman@@YAHPAUstbi__zhuffman@@PAEH@Z 1004c760 f   unity_dll.obj
 0001:0004bae0       ?stbi__zget8@@YAEPAUstbi__zbuf@@@Z 1004cae0 f   unity_dll.obj
 0001:0004bb20       ?stbi__fill_bits@@YAXPAUstbi__zbuf@@@Z 1004cb20 f   unity_dll.obj
 0001:0004bb90       ?stbi__zreceive@@YAIPAUstbi__zbuf@@H@Z 1004cb90 f   unity_dll.obj
 0001:0004bbf0       ?stbi__zhuffman_decode_slowpath@@YAHPAUstbi__zbuf@@PAUstbi__zhuffman@@@Z 1004cbf0 f   unity_dll.obj
 0001:0004bcd0       ?stbi__zhuffman_decode@@YAHPAUstbi__zbuf@@PAUstbi__zhuffman@@@Z 1004ccd0 f   unity_dll.obj
 0001:0004bd50       ?stbi__zexpand@@YAHPAUstbi__zbuf@@PADH@Z 1004cd50 f   unity_dll.obj
 0001:0004be10       ?stbi__parse_huffman_block@@YAHPAUstbi__zbuf@@@Z 1004ce10 f   unity_dll.obj
 0001:0004c030       ?stbi__compute_huffman_codes@@YAHPAUstbi__zbuf@@@Z 1004d030 f   unity_dll.obj
 0001:0004c360       ?stbi__parse_uncompressed_block@@YAHPAUstbi__zbuf@@@Z 1004d360 f   unity_dll.obj
 0001:0004c510       ?stbi__parse_zlib_header@@YAHPAUstbi__zbuf@@@Z 1004d510 f   unity_dll.obj
 0001:0004c5a0       ?stbi__init_zdefaults@@YAXXZ 1004d5a0 f   unity_dll.obj
 0001:0004c660       ?stbi__parse_zlib@@YAHPAUstbi__zbuf@@H@Z 1004d660 f   unity_dll.obj
 0001:0004c790       ?stbi__do_zlib@@YAHPAUstbi__zbuf@@PADHHH@Z 1004d790 f   unity_dll.obj
 0001:0004c7d0       ?stbi__get_chunk_header@@YA?AUstbi__pngchunk@@PAUstbi__context@@@Z 1004d7d0 f   unity_dll.obj
 0001:0004c800       ?stbi__check_png_header@@YAHPAUstbi__context@@@Z 1004d800 f   unity_dll.obj
 0001:0004c860       ?stbi__paeth@@YAHHHH@Z     1004d860 f   unity_dll.obj
 0001:0004c8d0       ?stbi__create_png_image_raw@@YAHPAUstbi__png@@PAEIHIIHH@Z 1004d8d0 f   unity_dll.obj
 0001:0004d8bc       $LN168                     1004e8bc     unity_dll.obj
 0001:0004d8d8       $LN169                     1004e8d8     unity_dll.obj
 0001:0004d8f4       $LN170                     1004e8f4     unity_dll.obj
 0001:0004d910       ?stbi__create_png_image@@YAHPAUstbi__png@@PAEIHHHH@Z 1004e910 f   unity_dll.obj
 0001:0004dc50       ?stbi__compute_transparency@@YAHPAUstbi__png@@QAEH@Z 1004ec50 f   unity_dll.obj
 0001:0004ddc0       ?stbi__compute_transparency16@@YAHPAUstbi__png@@QAGH@Z 1004edc0 f   unity_dll.obj
 0001:0004df30       ?stbi__expand_png_palette@@YAHPAUstbi__png@@PAEHH@Z 1004ef30 f   unity_dll.obj
 0001:0004e0c0       ?stbi__reduce_png@@YAHPAUstbi__png@@@Z 1004f0c0 f   unity_dll.obj
 0001:0004e180       ?stbi__de_iphone@@YAXPAUstbi__png@@@Z 1004f180 f   unity_dll.obj
 0001:0004e3a0       ?stbi__parse_png_file@@YAHPAUstbi__png@@HH@Z 1004f3a0 f   unity_dll.obj
 0001:0004f090       ?stbi__do_png@@YAPAEPAUstbi__png@@PAH11H@Z 10050090 f   unity_dll.obj
 0001:0004f200       ?stbi__png_info_raw@@YAHPAUstbi__png@@PAH11@Z 10050200 f   unity_dll.obj
 0001:0004f270       ?stbi__bmp_test_raw@@YAHPAUstbi__context@@@Z 10050270 f   unity_dll.obj
 0001:0004f330       ?stbi__high_bit@@YAHI@Z    10050330 f   unity_dll.obj
 0001:0004f3d0       ?stbi__bitcount@@YAHI@Z    100503d0 f   unity_dll.obj
 0001:0004f440       ?stbi__shiftsigned@@YAHHHH@Z 10050440 f   unity_dll.obj
 0001:0004f4a0       ?stbi__bmp_parse_header@@YAPAXPAUstbi__context@@PAUstbi__bmp_data@@@Z 100504a0 f   unity_dll.obj
 0001:0004f970       ?stbi__tga_get_comp@@YAHHHPAH@Z 10050970 f   unity_dll.obj
 0001:0004f9e8       $LN14                      100509e8     unity_dll.obj
 0001:0004f9fc       $LN13                      100509fc     unity_dll.obj
 0001:0004fad0       ?stbi__pic_is4@@YAHPAUstbi__context@@PBD@Z 10050ad0 f   unity_dll.obj
 0001:0004fb20       ?stbi__pic_test_core@@YAHPAUstbi__context@@@Z 10050b20 f   unity_dll.obj
 0001:0004fb90       ?stbi__readval@@YAPAEPAUstbi__context@@HPAE@Z 10050b90 f   unity_dll.obj
 0001:0004fc20       ?stbi__copyval@@YAXHPAEPBE@Z 10050c20 f   unity_dll.obj
 0001:0004fc70       ?stbi__pic_load_core@@YAPAEPAUstbi__context@@HHPAHPAE@Z 10050c70 f   unity_dll.obj
 0001:00050170       ?stbi__gif_test_raw@@YAHPAUstbi__context@@@Z 10051170 f   unity_dll.obj
 0001:00050210       ?stbi__gif_parse_colortable@@YAXPAUstbi__context@@QAY03EHH@Z 10051210 f   unity_dll.obj
 0001:000502d0       ?stbi__gif_header@@YAHPAUstbi__context@@PAUstbi__gif@@PAHH@Z 100512d0 f   unity_dll.obj
 0001:00050460       ?stbi__gif_info_raw@@YAHPAUstbi__context@@PAH11@Z 10051460 f   unity_dll.obj
 0001:000504e0       ?stbi__out_gif_code@@YAXPAUstbi__gif@@G@Z 100514e0 f   unity_dll.obj
 0001:000506d0       ?stbi__process_gif_raster@@YAPAEPAUstbi__context@@PAUstbi__gif@@@Z 100516d0 f   unity_dll.obj
 0001:00050a30       ?stbi__fill_gif_background@@YAXPAUstbi__gif@@HHHH@Z 10051a30 f   unity_dll.obj
 0001:00050b10       ?stbi__gif_load_next@@YAPAEPAUstbi__context@@PAUstbi__gif@@PAHH@Z 10051b10 f   unity_dll.obj
 0001:000510dc       $LN51                      100520dc     unity_dll.obj
 0001:000510f0       ?stbi__hdr_test_core@@YAHPAUstbi__context@@@Z 100520f0 f   unity_dll.obj
 0001:00051150       ?stbi__hdr_gettoken@@YAPADPAUstbi__context@@PAD@Z 10052150 f   unity_dll.obj
 0001:000511f0       ?stbi__hdr_convert@@YAXPAMPAEH@Z 100521f0 f   unity_dll.obj
 0001:00051404       $LN15                      10052404     unity_dll.obj
 0001:00051420       ?stbi__pnm_isspace@@YAHD@Z 10052420 f   unity_dll.obj
 0001:00051480       ?stbi__pnm_skip_whitespace@@YAXPAUstbi__context@@PAD@Z 10052480 f   unity_dll.obj
 0001:00051520       ?stbi__pnm_isdigit@@YAHD@Z 10052520 f   unity_dll.obj
 0001:00051550       ?stbi__pnm_getinteger@@YAHPAUstbi__context@@PAD@Z 10052550 f   unity_dll.obj
 0001:000515b0       ?stbi__info_main@@YAHPAUstbi__context@@PAH11@Z 100525b0 f   unity_dll.obj
 0001:00054e80       ?ttUSHORT@@YAGPBE@Z        10055e80 f   unity_dll.obj
 0001:00054eb0       ?ttSHORT@@YAFPBE@Z         10055eb0 f   unity_dll.obj
 0001:00054ee0       ?ttULONG@@YAIPBE@Z         10055ee0 f   unity_dll.obj
 0001:00054f30       ?ttLONG@@YAHPBE@Z          10055f30 f   unity_dll.obj
 0001:00054f80       ?stbtt__isfont@@YAHPBE@Z   10055f80 f   unity_dll.obj
 0001:00055150       ?stbtt__find_table@@YAIPAEIPBD@Z 10056150 f   unity_dll.obj
 0001:00055260       ?stbtt_setvertex@@YAXPAUstbtt_vertex@@EHHHH@Z 10056260 f   unity_dll.obj
 0001:000552a0       ?stbtt__GetGlyfOffset@@YAHPBUstbtt_fontinfo@@H@Z 100562a0 f   unity_dll.obj
 0001:000553a0       ?stbtt__close_shape@@YAHPAUstbtt_vertex@@HHHHHHHHH@Z 100563a0 f   unity_dll.obj
 0001:00055490       ?stbtt__hheap_alloc@@YAPAXPAUstbtt__hheap@@IPAX@Z 10056490 f   unity_dll.obj
 0001:00055560       ?stbtt__hheap_free@@YAXPAUstbtt__hheap@@PAX@Z 10056560 f   unity_dll.obj
 0001:00055580       ?stbtt__hheap_cleanup@@YAXPAUstbtt__hheap@@PAX@Z 10056580 f   unity_dll.obj
 0001:000555c0       ?stbtt__new_active@@YAPAUstbtt__active_edge@@PAUstbtt__hheap@@PAUstbtt__edge@@HMPAX@Z 100565c0 f   unity_dll.obj
 0001:00055710       ?stbtt__handle_clipped_edge@@YAXPAMHPAUstbtt__active_edge@@MMMM@Z 10056710 f   unity_dll.obj
 0001:00055a90       ?stbtt__fill_active_edges_new@@YAXPAM0HPAUstbtt__active_edge@@M@Z 10056a90 f   unity_dll.obj
 0001:000565d0       ?stbtt__rasterize_sorted_edges@@YAXPAUstbtt__bitmap@@PAUstbtt__edge@@HHHHPAX@Z 100575d0 f   unity_dll.obj
 0001:00056a70       ?stbtt__sort_edges_ins_sort@@YAXPAUstbtt__edge@@H@Z 10057a70 f   unity_dll.obj
 0001:00056b90       ?stbtt__sort_edges_quicksort@@YAXPAUstbtt__edge@@H@Z 10057b90 f   unity_dll.obj
 0001:00056ee0       ?stbtt__sort_edges@@YAXPAUstbtt__edge@@H@Z 10057ee0 f   unity_dll.obj
 0001:00056f10       ?stbtt__rasterize@@YAXPAUstbtt__bitmap@@PAUstbtt__point@@PAHHMMMMHHHPAX@Z 10057f10 f   unity_dll.obj
 0001:000571e0       ?stbtt__add_point@@YAXPAUstbtt__point@@HMM@Z 100581e0 f   unity_dll.obj
 0001:00057210       ?stbtt__tesselate_curve@@YAHPAUstbtt__point@@PAHMMMMMMMH@Z 10058210 f   unity_dll.obj
 0001:00057410       ?stbtt_FlattenCurves@@YAPAUstbtt__point@@PAUstbtt_vertex@@HMPAPAHPAHPAX@Z 10058410 f   unity_dll.obj
 0001:00057760       ?stbrp_init_target@@YAXPAUstbrp_context@@HHPAUstbrp_node@@H@Z 10058760 f   unity_dll.obj
 0001:000577a0       ?stbrp_pack_rects@@YAXPAUstbrp_context@@PAUstbrp_rect@@H@Z 100587a0 f   unity_dll.obj
 0001:000578b0       ?stbtt__h_prefilter@@YAXPAEHHHI@Z 100588b0 f   unity_dll.obj
 0001:00057b88       $LN32                      10058b88     unity_dll.obj
 0001:00057ba0       ?stbtt__v_prefilter@@YAXPAEHHHI@Z 10058ba0 f   unity_dll.obj
 0001:00057ed0       $LN32                      10058ed0     unity_dll.obj
 0001:00057ee0       ?stbtt__oversample_shift@@YAMH@Z 10058ee0 f   unity_dll.obj
 0001:00057f20       ?stbtt__CompareUTF8toUTF16_bigendian_prefix@@YAHPBEH0H@Z 10058f20 f   unity_dll.obj
 0001:00058290       ?stbtt__matchpair@@YAHPAEI0HHH@Z 10059290 f   unity_dll.obj
 0001:00058530       ?stbtt__matches@@YAHPAEI0H@Z 10059530 f   unity_dll.obj
 0001:000586f0       ?_zt_guiDebugConsoleAddLoggingCallbacks@@YAXXZ 100596f0 f   unity_dll.obj
 0001:00058710       ?_zt_guiDebugConsoleRemoveLoggingCallbacks@@YAXXZ 10059710 f   unity_dll.obj
 0001:00058750       ?_zt_guiLoadDefaultTexture@@YAPAEPAH@Z 10059750 f   unity_dll.obj
 0001:000587a0       ?_zt_guiLoadDefaultFont@@YAHH@Z 100597a0 f   unity_dll.obj
 0001:000587f0       ?_zt_guiItemFree@@YAXPAUztGuiManager@@PAUztGuiItem@@@Z 100597f0 f   unity_dll.obj
 0001:00058ac0       ?_zt_guiItemReposition@@YAXPAUztGuiManager@@PAUztGuiItem@@@Z 10059ac0 f   unity_dll.obj
 0001:00058cf0       ?mouseIntersecting@local@?EC@??zt_guiManagerHandleInput@@YA_NHQAUztInputKeys@@QAW4ztInputKeys_Enum@@PAUztInputMouse@@@Z@SA_NPAUztGuiItem@@ABUztVec2@@@Z 10059cf0 f   unity_dll.obj
 0001:00058de0       ?processMouseFocusEvent@local@?EC@??zt_guiManagerHandleInput@@YA_NHQAUztInputKeys@@QAW4ztInputKeys_Enum@@PAUztInputMouse@@@Z@SA_NPAUztGuiManager@@PAUztGuiItem@@2ABUztVec2@@@Z 10059de0 f   unity_dll.obj
 0001:00059150       ?mouseProcessNonFocusEvent@local@?EC@??zt_guiManagerHandleInput@@YA_NHQAUztInputKeys@@QAW4ztInputKeys_Enum@@PAUztInputMouse@@@Z@SA_NPAUztGuiManager@@PAUztGuiItem@@2ABUztVec2@@@Z 1005a150 f   unity_dll.obj
 0001:000592e0       ?renderItem@local@?L@??zt_guiManagerRender@@YAXHPAUztDrawList@@@Z@SAXPAUztGuiManager@@PAUztGuiItem@@0ABUztVec2@@@Z 1005a2e0 f   unity_dll.obj
 0001:000595a0       ?_zt_guiProcessDrag@@YA_NPAUztDragState@ztGuiItem@@PAUztGuiManager@@PAUztVec2@@PAUztInputMouse@@@Z 1005a5a0 f   unity_dll.obj
 0001:000596a0       ?_zt_guiMakeItemBase@@YAPAUztGuiItem@@PAUztGuiManager@@HW4ztGuiItemType_Enum@@HPAHH@Z 1005a6a0 f   unity_dll.obj
 0001:000599c0       ?_zt_guiWindowRender@@YAXHPAUztDrawList@@PAUztGuiTheme@@ABUztVec2@@_NPAX@Z 1005a9c0 f   unity_dll.obj
 0001:00059f10       ?_zt_guiWindowOnButtonClose@@YAXHPAX@Z 1005af10 f   unity_dll.obj
 0001:0005a170       ?_zt_guiWindowOnButtonToggle@@YAXHPAX@Z 1005b170 f   unity_dll.obj
 0001:0005a450       ?_zt_guiWindowInputMouse@@YA_NHPAUztInputMouse@@PAX@Z 1005b450 f   unity_dll.obj
 0001:0005a940       ?_zt_guiPanelRender@@YAXHPAUztDrawList@@PAUztGuiTheme@@ABUztVec2@@_NPAX@Z 1005b940 f   unity_dll.obj
 0001:0005ab00       ?_zt_guiCollapsingPanelUpdate@@YAXHMPAX@Z 1005bb00 f   unity_dll.obj
 0001:0005af20       ?_zt_guiCollapsingPanelRender@@YAXHPAUztDrawList@@PAUztGuiTheme@@ABUztVec2@@_NPAX@Z 1005bf20 f   unity_dll.obj
 0001:0005b300       ?_zt_guiCollapsingPanelOnToggle@@YAXHPAX@Z 1005c300 f   unity_dll.obj
 0001:0005b5b0       ?_zt_guiCollapsingPanelBestSize@@YAXHPAUztVec2@@00PAUztGuiTheme@@PAX@Z 1005c5b0 f   unity_dll.obj
 0001:0005b820       ?_zt_guiStaticTextRender@@YAXHPAUztDrawList@@PAUztGuiTheme@@ABUztVec2@@_NPAX@Z 1005c820 f   unity_dll.obj
 0001:0005bbe0       ?_zt_guiStaticTextBestSize@@YAXHPAUztVec2@@00PAUztGuiTheme@@PAX@Z 1005cbe0 f   unity_dll.obj
 0001:0005bdc0       ?_zt_guiButtonBaseUpdate@@YAXHMPAX@Z 1005cdc0 f   unity_dll.obj
 0001:0005bfc0       ?_zt_guiButtonBaseRender@@YAXHPAUztDrawList@@PAUztGuiTheme@@ABUztVec2@@_NPAX@Z 1005cfc0 f   unity_dll.obj
 0001:0005ccb0       ?_zt_guiButtonBaseCleanup@@YAXHPAX@Z 1005dcb0 f   unity_dll.obj
 0001:0005cd00       ?_zt_guiButtonBaseInputMouse@@YA_NHPAUztInputMouse@@PAX@Z 1005dd00 f   unity_dll.obj
 0001:0005d020       ?_zt_guiButtonBaseBestSize@@YAXHPAUztVec2@@00PAUztGuiTheme@@PAX@Z 1005e020 f   unity_dll.obj
 0001:0005d5a0       ?_zt_guiMakeButtonBase@@YAHHPBDHPA_N@Z 1005e5a0 f   unity_dll.obj
 0001:0005db70       ?_zt_guiSliderBaseGetHandleSize@@YAMPAUztGuiItem@@PAUztGuiTheme@@@Z 1005eb70 f   unity_dll.obj
 0001:0005dc50       ?_zt_guiSliderBaseGetHandlePos@@YAMPAUztGuiItem@@PAUztGuiTheme@@@Z 1005ec50 f   unity_dll.obj
 0001:0005de10       ?_zt_guiSliderBaseUpdate@@YAXHMPAX@Z 1005ee10 f   unity_dll.obj
 0001:0005e0a0       ?_zt_guiSliderBaseRender@@YAXHPAUztDrawList@@PAUztGuiTheme@@ABUztVec2@@_NPAX@Z 1005f0a0 f   unity_dll.obj
 0001:0005e840       ?_zt_guiItemSliderMouseOverButton@@YAHPAUztGuiManager@@PAUztGuiItem@@PAUztGuiTheme@@AAUztVec2@@@Z 1005f840 f   unity_dll.obj
 0001:0005e930       ?_zt_guiItemSliderProcessDragReturn@@YAXPAUztGuiManager@@PAUztGuiItem@@PAUztGuiTheme@@PAUztInputMouse@@@Z 1005f930 f   unity_dll.obj
 0001:0005eee0       ?_zt_guiItemSliderInputMouse@@YA_NHPAUztInputMouse@@PAX@Z 1005fee0 f   unity_dll.obj
 0001:0005f550       ?_zt_guiItemSliderBestSize@@YAXHPAUztVec2@@00PAUztGuiTheme@@PAX@Z 10060550 f   unity_dll.obj
 0001:0005f6f0       ?_zt_guiMakeSliderBase@@YAHHW4ztGuiItemOrient_Enum@@PAM_N@Z 100606f0 f   unity_dll.obj
 0001:0005f9f0       ?_zt_guiScrollContainerCalcViewportSizePos@@YAXPAUztGuiManager@@PAUztGuiItem@@PAUztVec2@@2@Z 100609f0 f   unity_dll.obj
 0001:0005ff40       ?_zt_guiScrollContainerUpdate@@YAXHMPAX@Z 10060f40 f   unity_dll.obj
 0001:000604f0       ?_zt_guiScrollContainerInputMouse@@YA_NHPAUztInputMouse@@PAX@Z 100614f0 f   unity_dll.obj
 0001:000606b0       ?_zt_guiScrollContainerInputKey@@YA_NHQAUztInputKeys@@QAW4ztInputKeys_Enum@@PAX@Z 100616b0 f   unity_dll.obj
 0001:00060930       ?_zt_guiScrollContainerBestSize@@YAXHPAUztVec2@@00PAUztGuiTheme@@PAX@Z 10061930 f   unity_dll.obj
 0001:00060990       ?_zt_guiTextEditGetCharacterPos@@YA?AUztVec2@@PAUztGuiItem@@HPAUztGuiTheme@@_N@Z 10061990 f   unity_dll.obj
 0001:00060ae0       ?_zt_guiTextEditGetTextStartPos@@YA?AUztVec2@@PAUztGuiItem@@PAUztGuiTheme@@PAUztGuiManager@@@Z 10061ae0 f   unity_dll.obj
 0001:00060d30       ?_zt_guiTextEditSizeContent@@YAXPAUztGuiItem@@PAUztGuiTheme@@@Z 10061d30 f   unity_dll.obj
 0001:000612d0       ?_zt_guiTextEditAdjustViewForCursor@@YAXPAUztGuiItem@@@Z 100622d0 f   unity_dll.obj
 0001:00061b90       ?_zt_guiTextEditCacheText@@YAXPAUztGuiItem@@@Z 10062b90 f   unity_dll.obj
 0001:00061bf0       ?_zt_guiTextEditGetCurrentLineInfo@@YAXPAUztGuiItem@@PAH1H@Z 10062bf0 f   unity_dll.obj
 0001:00061d20       ?_zt_guiTextEditRecalcCursor@@YAXPAUztGuiItem@@@Z 10062d20 f   unity_dll.obj
 0001:00061e20       ?_zt_guiTextEditUpdate@@YAXHMPAX@Z 10062e20 f   unity_dll.obj
 0001:00062010       ?_zt_guiTextEditRender@@YAXHPAUztDrawList@@PAUztGuiTheme@@ABUztVec2@@_NPAX@Z 10063010 f   unity_dll.obj
 0001:00062370       ?_zt_guiTextEditCleanup@@YAXHPAX@Z 10063370 f   unity_dll.obj
 0001:000623b0       ?_zt_guiTextEditPosNextWord@@YAHPAUztGuiItem@@H@Z 100633b0 f   unity_dll.obj
 0001:000624a0       ?_zt_guiTextEditPosPrevWord@@YAHPAUztGuiItem@@H@Z 100634a0 f   unity_dll.obj
 0001:00062550       ?_zt_guiTextEditPosAboveChar@@YAHPAUztGuiItem@@@Z 10063550 f   unity_dll.obj
 0001:00062610       ?_zt_guiTextEditPosBelowChar@@YAHPAUztGuiItem@@H@Z 10063610 f   unity_dll.obj
 0001:000626d0       ?_zt_guiTextEditSelectBeg@@YAXPAUztGuiItem@@_N@Z 100636d0 f   unity_dll.obj
 0001:00062710       ?_zt_guiTextEditSelectEnd@@YAXPAUztGuiItem@@@Z 10063710 f   unity_dll.obj
 0001:00062730       ?_zt_guiTextEditInputKey@@YA_NHQAUztInputKeys@@QAW4ztInputKeys_Enum@@PAX@Z 10063730 f   unity_dll.obj
 0001:00063360       ?_zt_guiTextEditGetCursorIndexAtPosition@@YAHPAUztGuiItem@@UztVec2@@@Z 10064360 f   unity_dll.obj
 0001:00063670       ?_zt_guiTextEditInputMouse@@YA_NHPAUztInputMouse@@PAX@Z 10064670 f   unity_dll.obj
 0001:00063900       ?_zt_guiTextEditBestSize@@YAXHPAUztVec2@@00PAUztGuiTheme@@PAX@Z 10064900 f   unity_dll.obj
 0001:00063930       ?_zt_guiMenuClose@@YAXPAUztGuiItem@@@Z 10064930 f   unity_dll.obj
 0001:00063960       ?_zt_guiMenuCloseAll@@YAXXZ 10064960 f   unity_dll.obj
 0001:00063a10       ?_zt_guiMenuBaseUpdate@@YAXHMPAX@Z 10064a10 f   unity_dll.obj
 0001:00063c10       ?_zt_guiMenuBaseRender@@YAXHPAUztDrawList@@PAUztGuiTheme@@ABUztVec2@@_NPAX@Z 10064c10 f   unity_dll.obj
 0001:00064170       ?_zt_guiMenuCleanup@@YAXHPAX@Z 10065170 f   unity_dll.obj
 0001:00064200       ?_zt_guiMenuInputMouse@@YA_NHPAUztInputMouse@@PAX@Z 10065200 f   unity_dll.obj
 0001:000646c0       ?_zt_guiMenuBestSize@@YAXHPAUztVec2@@00PAUztGuiTheme@@PAX@Z 100656c0 f   unity_dll.obj
 0001:000649c0       ?_zt_guiMakeMenuBase@@YAHH@Z 100659c0 f   unity_dll.obj
 0001:00064bb0       ?_zt_guiTreeCalculateSize@@YAXPAUztGuiItem@@@Z 10065bb0 f   unity_dll.obj
 0001:00064dd0       ?hideAll@local@?7??_zt_guiTreeCalculateSize@@YAXPAUztGuiItem@@@Z@SAXPAUztTreeItem@3@@Z 10065dd0 f   unity_dll.obj
 0001:00064e20       ?addToSize@local@?7??_zt_guiTreeCalculateSize@@YAXPAUztGuiItem@@@Z@SAXPAUztTreeItem@3@PAUztGuiTheme@@PAUztVec2@@MPAH@Z 10065e20 f   unity_dll.obj
 0001:00065030       ?reposition@local@?7??_zt_guiTreeCalculateSize@@YAXPAUztGuiItem@@@Z@SAXPAUztTreeItem@3@PAUztGuiTheme@@MPAMMM@Z 10066030 f   unity_dll.obj
 0001:000652c0       ?_zt_guiTreeUpdate@@YAXHMPAX@Z 100662c0 f   unity_dll.obj
 0001:00065510       ?_zt_guiTreeRender@@YAXHPAUztDrawList@@PAUztGuiTheme@@ABUztVec2@@_NPAX@Z 10066510 f   unity_dll.obj
 0001:000656a0       ?_zt_guiTreeCleanup@@YAXHPAX@Z 100666a0 f   unity_dll.obj
 0001:000656e0       ?_zt_guiTreeMouseIntersecting@@YAPAUztTreeItem@ztGuiItem@@PAU12@AAUztVec2@@11@Z 100666e0 f   unity_dll.obj
 0001:00065830       ?_zt_guiTreeInputMouse@@YA_NHPAUztInputMouse@@PAX@Z 10066830 f   unity_dll.obj
 0001:00065c60       ?_zt_guiTreeBestSize@@YAXHPAUztVec2@@00PAUztGuiTheme@@PAX@Z 10066c60 f   unity_dll.obj
 0001:00065cf0       ?_zt_guiTreeToggleItem@@YA_NPAUztGuiItem@@PAUztTreeItem@1@H@Z 10066cf0 f   unity_dll.obj
 0001:00065dc0       ?_zt_guiTreeOnToggle@@YAXHPAX@Z 10066dc0 f   unity_dll.obj
 0001:00065df0       ?appendItem@local@?1??zt_guiTreeAppend@@YAHHHPAXH@Z@SAPAUztTreeItem@ztGuiItem@@PAU4@PAU34@H@Z 10066df0 f   unity_dll.obj
 0001:00065fb0       ?findAndSelect@local@?1??zt_guiTreeSetSelected@@YAXHH@Z@SA_NPAUztGuiItem@@PAUztTreeItem@3@H@Z 10066fb0 f   unity_dll.obj
 0001:00066010       ?clear@local@?P@??zt_guiTreeClear@@YAXH@Z@SAXPAUztMemoryArena@@PAUztTreeItem@ztGuiItem@@@Z 10067010 f   unity_dll.obj
 0001:000660c0       ?_zt_guiComboBoxRender@@YAXHPAUztDrawList@@PAUztGuiTheme@@ABUztVec2@@_NPAX@Z 100670c0 f   unity_dll.obj
 0001:00066260       ?_zt_guiComboBoxCleanup@@YAXHPAX@Z 10067260 f   unity_dll.obj
 0001:00066320       ?_zt_guiComboBoxInputMouse@@YA_NHPAUztInputMouse@@PAX@Z 10067320 f   unity_dll.obj
 0001:00066600       ?_zt_guiComboBoxInputKey@@YA_NHQAUztInputKeys@@QAW4ztInputKeys_Enum@@PAX@Z 10067600 f   unity_dll.obj
 0001:00066870       ?_zt_guiComboBoxBestSize@@YAXHPAUztVec2@@00PAUztGuiTheme@@PAX@Z 10067870 f   unity_dll.obj
 0001:000668b0       ?_zt_guiComboBoxMenuSelected@@YAXHHPAX@Z 100678b0 f   unity_dll.obj
 0001:00066a80       ?_zt_guiSpriteDisplayRender@@YAXHPAUztDrawList@@PAUztGuiTheme@@ABUztVec2@@_NPAX@Z 10067a80 f   unity_dll.obj
 0001:00066ae0       ?_zt_guiSpriteDisplayCleanup@@YAXHPAX@Z 10067ae0 f   unity_dll.obj
 0001:00066b20       ?_zt_guiSpriteDisplayBestSize@@YAXHPAUztVec2@@00PAUztGuiTheme@@PAX@Z 10067b20 f   unity_dll.obj
 0001:00066b70       ?_zt_guiSizerMinSize@@YA?AUztVec2@@PAUztGuiItem@@@Z 10067b70 f   unity_dll.obj
 0001:00066d10       ?_zt_sizerUpdate@@YAXHMPAX@Z 10067d10 f   unity_dll.obj
 0001:000678b0       ?_zt_guiSizerCleanup@@YAXHPAX@Z 100688b0 f   unity_dll.obj
 0001:00067920       ?_zt_guiSizerBestSize@@YAXHPAUztVec2@@00PAUztGuiTheme@@PAX@Z 10068920 f   unity_dll.obj
 0001:00067980       ?_zt_guiSizerRecalc@@YAXPAUztGuiItem@@@Z 10068980 f   unity_dll.obj
 0001:00067a00       ?_zt_guiSizerRecalcImmediately@@YAXPAUztGuiItem@@@Z 10068a00 f   unity_dll.obj
 0001:00067a60       ?_zt_guiItemFindByName@@YAPAUztGuiItem@@PBDPAU1@@Z 10068a60 f   unity_dll.obj
 0001:00067b20       ?_zt_guiDebugFpsDisplayUpdate@@YAXHMPAX@Z 10068b20 f   unity_dll.obj
 0001:00067d90       ?_zt_guiDebugFpsDisplayCleanup@@YAXHPAX@Z 10068d90 f   unity_dll.obj
 0001:00067f30       ?_zt_guiDebugFpsDisplayButtonClose@@YAXHPAX@Z 10068f30 f   unity_dll.obj
 0001:00067f50       ?_zt_guiDebugFpsDisplay@@YAXXZ 10068f50 f   unity_dll.obj
 0001:000683b0       ?_zt_guiDebugRenderingDetailsUpdate@@YAXHMPAX@Z 100693b0 f   unity_dll.obj
 0001:00068530       ?_zt_guiDebugRenderingDetailsCleanup@@YAXHPAX@Z 10069530 f   unity_dll.obj
 0001:000686d0       ?_zt_guiDebugRenderingDetailsOnClose@@YAXHPAX@Z 100696d0 f   unity_dll.obj
 0001:000686f0       ?_zt_guiDebugRenderingDetails@@YAXXZ 100696f0 f   unity_dll.obj
 0001:00068bb0       ?_zt_guiDebugConsoleInputKey@@YAXHQAUztInputKeys@@QAW4ztInputKeys_Enum@@PA_N@Z 10069bb0 f   unity_dll.obj
 0001:000692c0       ?_zt_guiDebugConsoleLogMessageCallback@@YAXW4ztLogMessageLevel_Enum@@PBD@Z 1006a2c0 f   unity_dll.obj
 0001:0006930c       $LN8                       1006a30c     unity_dll.obj
 0001:00069320       ?_zt_guiDebugConsoleCommand_List@@YAXQAY0BAA@DH@Z 1006a320 f   unity_dll.obj
 0001:00069370       ?_zt_guiDebugConsoleCommand_Help@@YAXQAY0BAA@DH@Z 1006a370 f   unity_dll.obj
 0001:00069440       ?_zt_guiDebugConsoleCommandAutoComplete_Help@@YAXPAPADHPADH@Z 1006a440 f   unity_dll.obj
 0001:00069450       ?_zt_guiDebugConsoleCommand_Exit@@YAXQAY0BAA@DH@Z 1006a450 f   unity_dll.obj
 0001:00069460       ?_zt_guiDebugConsole@@YAXXZ 1006a460 f   unity_dll.obj
 0001:00069920       ?_zt_debugConsoleLogRaw@@YAXW4ztDebugConsoleLevel_Enum@@PBD@Z 1006a920 f   unity_dll.obj
 0001:00069cd4       $LN21                      1006acd4     unity_dll.obj
 0001:00069cf0       ?_zt_guiDebugGuiHierarchyAppend@@YAXPAUztDebugGuiHierarchy@@PAUztGuiItem@@H@Z 1006acf0 f   unity_dll.obj
 0001:00069e00       ?_zt_guiDebugGuiHierarchyPopulate@@YAXPAUztDebugGuiHierarchy@@@Z 1006ae00 f   unity_dll.obj
 0001:00069f30       ?_zt_guiDebugGuiHierarchyPopulateItem@@YAXPAUztDebugGuiHierarchy@@PAUztGuiItem@@@Z 1006af30 f   unity_dll.obj
 0001:0006a1c0       ?_zt_guiDebugGuiHierarchyOnTreeSel@@YAXHHPAX@Z 1006b1c0 f   unity_dll.obj
 0001:0006a2c0       ?_zt_guiDebugGuiHierarchyOnRefreshTree@@YAXHPAX@Z 1006b2c0 f   unity_dll.obj
 0001:0006a3a0       ?_zt_guiDebugGuiHierarchyOnToggleHighlight@@YAXHPAX@Z 1006b3a0 f   unity_dll.obj
 0001:0006a6e0       ?_zt_guiDebugGuiHierarchy@@YAXXZ 1006b6e0 f   unity_dll.obj
 0001:0006ab40       ?_zt_guiDebugTextureViewerRefresh@@YAXXZ 1006bb40 f   unity_dll.obj
 0001:0006aee0       ?_zt_guiDebugTextureViewerLoadTexture@@YAXH@Z 1006bee0 f   unity_dll.obj
 0001:0006afd0       ?_zt_guiDebugTextureViewerOnRefresh@@YAXHPAX@Z 1006bfd0 f   unity_dll.obj
 0001:0006afe0       ?_zt_guiDebugTextureViewerOnComboBox@@YAXHHPAX@Z 1006bfe0 f   unity_dll.obj
 0001:0006b000       ?_zt_guiDebugTextureViewer@@YAXXZ 1006c000 f   unity_dll.obj
 0001:0006b2c0       ?_zt_guiInitDebugOnMenuItem@@YAXHHPAX@Z 1006c2c0 f   unity_dll.obj
 0001:0006b300       $LN10                      1006c300     unity_dll.obj
 0001:0006b320       ?_zt_guiInitDebugOnOpenMenu@@YAXHPAX@Z 1006c320 f   unity_dll.obj
 0001:0006b360       ?log@local@?1??zt_debugLogGuiHierarchy@@YAXH@Z@SAXPAUztGuiItem@@H@Z 1006c360 f   unity_dll.obj
 0001:0006b624       $LN32                      1006c624     unity_dll.obj
 0001:0006db74       $LN26                      1006eb74     unity_dll.obj
 0001:0006e100       $$000000                   1006f100     LIBCMTD:strncmp.obj
 0001:0006e930       ?strtoxl@@YAKPAUlocaleinfo_struct@@PBDPAPBDHH@Z 1006f930 f   LIBCMTD:strtol.obj
 0001:00071c80       _swprintf                  10072c80 f   LIBCMTD:wassert.obj
 0001:00071cd0       $$000000                   10072cd0     LIBCMTD:87ctriga.obj
 0001:00071cf0       $$000000                   10072cf0     LIBCMTD:lldiv.obj
 0001:00071da0       $$000000                   10072da0     LIBCMTD:llmul.obj
 0001:00071de0       $$000000                   10072de0     LIBCMTD:chkstk.obj
 0001:00071e10       $$000000                   10072e10     LIBCMTD:ftol2.obj
 0001:00071ec0       $$000000                   10072ec0     LIBCMTD:acos_sse2_precise.obj
 0001:000723e0       $$000000                   100733e0     LIBCMTD:asin_sse2_precise.obj
 0001:00072930       $$000000                   10073930     LIBCMTD:cos_sse2_precise.obj
 0001:00072af0       $$000000                   10073af0     LIBCMTD:pow_sse2_precise.obj
 0001:00073660       $$000000                   10074660     LIBCMTD:sin_sse2_precise.obj
 0001:00073830       $$000000                   10074830     LIBCMTD:sqrt_sse2_precise.obj
 0001:00073930       $$000000                   10074930     LIBCMTD:tan_sse2_precise.obj
 0001:00073ba0       $$000000                   10074ba0     LIBCMTD:ftol3.obj
 0001:00073f70       $$000000                   10074f70     LIBCMTD:ceil_pentium4.obj
 0001:00074090       $$000000                   10075090     LIBCMTD:floor_pentium4.obj
 0001:000741c0       $$000000                   100751c0     LIBCMTD:memcpy.obj
 0001:00074410       LeadUpVec                  10075410     LIBCMTD:memcpy.obj
 0001:0007448c       UnwindUpVec                1007548c     LIBCMTD:memcpy.obj
 0001:000744f8       TrailUpVec                 100754f8     LIBCMTD:memcpy.obj
 0001:0007459c       LeadDownVec                1007559c     LIBCMTD:memcpy.obj
 0001:00074628       UnwindDownVec              10075628     LIBCMTD:memcpy.obj
 0001:00074694       TrailDownVec               10075694     LIBCMTD:memcpy.obj
 0001:00074810       $$000000                   10075810     LIBCMTD:memset.obj
 0001:00074c00       ___DllMainCRTStartup       10075c00 f   LIBCMTD:dllcrt0.obj
 0001:00074e10       ___IsPackagedAppHelper     10075e10 f   LIBCMTD:winapisupp.obj
 0001:00075c50       ?_CrtMemDumpAllObjectsSince_stat@@YAXPBU_CrtMemState@@PAUlocaleinfo_struct@@@Z 10076c50 f   LIBCMTD:dbgheap.obj
 0001:00075f60       ?__crtIsBadReadPtr@@YAHPBXI@Z 10076f60 f   LIBCMTD:dbgheap.obj
 0001:00076090       _CheckBytes                10077090 f   LIBCMTD:dbgheap.obj
 0001:00076524       $LN51                      10077524     LIBCMTD:dbgheap.obj
 0001:000770c0       __heap_alloc_dbg_impl      100780c0 f   LIBCMTD:dbgheap.obj
 0001:00077740       __nh_malloc_dbg_impl       10078740 f   LIBCMTD:dbgheap.obj
 0001:000777c0       __printMemBlockData        100787c0 f   LIBCMTD:dbgheap.obj
 0001:00077ac0       _realloc_help              10078ac0 f   LIBCMTD:dbgheap.obj
 0001:00078eb0       ?CPtoLocaleName@@YAPB_WH@Z 10079eb0 f   LIBCMTD:mbctype.obj
 0001:00078f24       $LN10                      10079f24     LIBCMTD:mbctype.obj
 0001:00078f38       $LN9                       10079f38     LIBCMTD:mbctype.obj
 0001:00078f60       ?getSystemCP@@YAHH@Z       10079f60 f   LIBCMTD:mbctype.obj
 0001:00079070       ?setSBCS@@YAXPAUthreadmbcinfostruct@@@Z 1007a070 f   LIBCMTD:mbctype.obj
 0001:00079150       ?setSBUpLow@@YAXPAUthreadmbcinfostruct@@@Z 1007a150 f   LIBCMTD:mbctype.obj
 0001:00079e50       ?CatchGuardHandler@@YA?AW4_EXCEPTION_DISPOSITION@@PAUEHExceptionRecord@@PAUCatchGuardRN@@PAX2@Z 1007ae50 f   LIBCMTD:_trnsctrl_.obj
 0001:00079ea0       ?TranslatorGuardHandler@@YA?AW4_EXCEPTION_DISPOSITION@@PAUEHExceptionRecord@@PAUTranslatorGuardRN@@PAX2@Z 1007aea0 f   LIBCMTD:_trnsctrl_.obj
 0001:0007a5c0       $$000000                   1007b5c0     LIBCMTD:ulldiv.obj
 0001:0007a630       $$000000                   1007b630     LIBCMTD:ullrem.obj
 0001:0007af30       _flsall                    1007bf30 f   LIBCMTD:fflush.obj
 0001:0007b0d0       _ValidateLocalCookies      1007c0d0 f   LIBCMTD:chandler4.obj
 0001:0007bc94       $LN92                      1007cc94     LIBCMTD:_open.obj
 0001:0007bcc8       $LN91                      1007ccc8     LIBCMTD:_open.obj
 0001:0007bd20       $$000000                   1007cd20     LIBCMTD:exsup4.obj
 0001:0007bdb0       __unwind_handler4          1007cdb0 f   LIBCMTD:exsup4.obj
 0001:0007f550       __get_fname                10080550 f   LIBCMTD:fpexcept.obj
 0001:0007ff14       $LN55                      10080f14     LIBCMTD:fpexcept.obj
 0001:000808f0       __isindst_nolock           100818f0 f   LIBCMTD:tzset.obj
 0001:00080c70       __tzset_nolock             10081c70 f   LIBCMTD:tzset.obj
 0001:00081220       _cvtdate                   10082220 f   LIBCMTD:tzset.obj
 0001:000814e0       $$000000                   100824e0     LIBCMTD:llrem.obj
 0001:00082770       __initterm                 10083770 f   LIBCMTD:crt0dat.obj
 0001:00082800       _doexit                    10083800 f   LIBCMTD:crt0dat.obj
 0001:00082b80       _xtow_s@20                 10083b80 f   LIBCMTD:xtows.obj
 0001:00083e3c       $LN41                      10084e3c     LIBCMTD:winsig.obj
 0001:00083e54       $LN39                      10084e54     LIBCMTD:winsig.obj
 0001:00083e70       _siglookup                 10084e70 f   LIBCMTD:winsig.obj
 0001:00084670       $$000000                   10085670     LIBCMTD:87triga.obj
 0001:00084720       $$000000                   10085720     LIBCMTD:87cdisp.obj
 0001:00085700       $LN68                      10086700     LIBCMTD:libm_error.obj
 0001:00085744       $LN67                      10086744     LIBCMTD:libm_error.obj
 0001:000857ec       $LN69                      100867ec     LIBCMTD:libm_error.obj
 0001:00085820       $$000000                   10086820     LIBCMTD:acos.obj
 0001:00085970       $$000000                   10086970     LIBCMTD:asin.obj
 0001:00085ac0       $$000000                   10086ac0     LIBCMTD:cos.obj
 0001:00085bf0       $$000000                   10086bf0     LIBCMTD:pow.obj
 0001:00085e80       $$000000                   10086e80     LIBCMTD:sin.obj
 0001:00085fb0       $$000000                   10086fb0     LIBCMTD:sqrt.obj
 0001:00086070       $$000000                   10087070     LIBCMTD:tan.obj
 0001:00086ec0       __cftoe2_l                 10087ec0 f   LIBCMTD:cvt.obj
 0001:00087500       __cftof2_l                 10088500 f   LIBCMTD:cvt.obj
 0001:00087ef0       __shift                    10088ef0 f   LIBCMTD:cvt.obj
 0001:000881d0       _xcptlookup                100891d0 f   LIBCMTD:winxfltr.obj
 0001:000883c0       _parse_cmdline             100893c0 f   LIBCMTD:stdargv.obj
 0001:0008a2a0       __is_LFH_enabled           1008b2a0 f   LIBCMTD:expand.obj
 0001:0008c068       $LN137                     1008d068     LIBCMTD:strgtold.obj
 0001:0008c098       $LN138                     1008d098     LIBCMTD:strgtold.obj
 0001:0008c0a8       $LN134                     1008d0a8     LIBCMTD:strgtold.obj
 0001:0008c0e4       $LN139                     1008d0e4     LIBCMTD:strgtold.obj
 0001:0008c0f0       $LN135                     1008d0f0     LIBCMTD:strgtold.obj
 0001:0008c12c       $LN140                     1008d12c     LIBCMTD:strgtold.obj
 0001:0008c138       $LN136                     1008d138     LIBCMTD:strgtold.obj
 0001:0008cd10       ?__crtLCMapStringA_stat@@YAHPAUlocaleinfo_struct@@PB_WKPBDHPADHHH@Z 1008dd10 f   LIBCMTD:a_map.obj
 0001:0008d110       ?__crtGetStringTypeA_stat@@YAHPAUlocaleinfo_struct@@KPBDHPAGHH@Z 1008e110 f   LIBCMTD:a_str.obj
 0001:0008d310       $$000000                   1008e310     LIBCMTD:lowhelpr.obj
 0001:0008d690       ?CallCatchBlock@@YAPAXPAUEHExceptionRecord@@PAUEHRegistrationNode@@PAU_CONTEXT@@PBU_s_FuncInfo@@PAXHK@Z 1008e690 f   LIBCMTD:frame.obj
 0001:0008d920       ?CallUnexpected@@YAXPBU_s_ESTypeList@@@Z 1008e920 f   LIBCMTD:frame.obj
 0001:0008d96a       __catch$?CallUnexpected@@YAXPBU_s_ESTypeList@@@Z$0 1008e96a f   LIBCMTD:frame.obj
 0001:0008d9b0       ?CatchIt@@YAXPAUEHExceptionRecord@@PAUEHRegistrationNode@@PAU_CONTEXT@@PAXPBU_s_FuncInfo@@PBU_s_HandlerType@@PBU_s_CatchableType@@PBU_s_TryBlockMapEntry@@H1E@Z 1008e9b0 f   LIBCMTD:frame.obj
 0001:0008da70       ?ExFilterRethrow@@YAHPAU_EXCEPTION_POINTERS@@@Z 1008ea70 f   LIBCMTD:frame.obj
 0001:0008dae0       ?FindHandler@@YAXPAUEHExceptionRecord@@PAUEHRegistrationNode@@PAU_CONTEXT@@PAXPBU_s_FuncInfo@@EH1@Z 1008eae0 f   LIBCMTD:frame.obj
 0001:0008dfb0       ?FindHandlerForForeignException@@YAXPAUEHExceptionRecord@@PAUEHRegistrationNode@@PAU_CONTEXT@@PAXPBU_s_FuncInfo@@HH1@Z 1008efb0 f   LIBCMTD:frame.obj
 0001:0008e140       ?IsInExceptionSpec@@YAEPAUEHExceptionRecord@@PBU_s_ESTypeList@@@Z 1008f140 f   LIBCMTD:frame.obj
 0001:0008e200       ?Is_bad_exception_allowed@@YAEPBU_s_ESTypeList@@@Z 1008f200 f   LIBCMTD:frame.obj
 0001:00091a60       $$000000                   10092a60     LIBCMTD:exsup.obj
 0001:00091a80       __unwind_handler           10092a80 f   LIBCMTD:exsup.obj
 0001:00093438       $LN180                     10094438     LIBCMTD:outputs.obj
 0001:00093458       $LN181                     10094458     LIBCMTD:outputs.obj
 0001:00093470       $LN176                     10094470     LIBCMTD:outputs.obj
 0001:00093484       $LN182                     10094484     LIBCMTD:outputs.obj
 0001:00093498       $LN177                     10094498     LIBCMTD:outputs.obj
 0001:000934c8       $LN183                     100944c8     LIBCMTD:outputs.obj
 0001:00093504       $LN178                     10094504     LIBCMTD:outputs.obj
 0001:00093540       _write_char                10094540 f   LIBCMTD:outputs.obj
 0001:000935e0       _write_multi_char          100945e0 f   LIBCMTD:outputs.obj
 0001:00093620       _write_string              10094620 f   LIBCMTD:outputs.obj
 0001:000936e0       $$000000                   100946e0     LIBCMTD:strlen.obj
 0001:00093e40       $$000000                   10094e40     LIBCMTD:strcmp.obj
 0001:000940d0       __onexit_nolock            100950d0 f   LIBCMTD:onexit.obj
 0001:000957e0       $LN160                     100967e0     LIBCMTD:woutput.obj
 0001:00095800       $LN161                     10096800     LIBCMTD:woutput.obj
 0001:00095818       $LN156                     10096818     LIBCMTD:woutput.obj
 0001:0009582c       $LN162                     1009682c     LIBCMTD:woutput.obj
 0001:00095840       $LN157                     10096840     LIBCMTD:woutput.obj
 0001:00095870       $LN163                     10096870     LIBCMTD:woutput.obj
 0001:000958ac       $LN158                     100968ac     LIBCMTD:woutput.obj
 0001:000958f0       _write_char                100968f0 f   LIBCMTD:woutput.obj
 0001:000958f0       _write_char                100968f0 f   LIBCMTD:woutput.obj
 0001:00095950       _write_multi_char          10096950 f   LIBCMTD:woutput.obj
 0001:00095950       _write_multi_char          10096950 f   LIBCMTD:woutput.obj
 0001:00095990       _write_string              10096990 f   LIBCMTD:woutput.obj
 0001:00095990       _write_string              10096990 f   LIBCMTD:woutput.obj
 0001:00096f38       $LN169                     10097f38     LIBCMTD:woutputs.obj
 0001:00096f58       $LN170                     10097f58     LIBCMTD:woutputs.obj
 0001:00096f70       $LN165                     10097f70     LIBCMTD:woutputs.obj
 0001:00096f84       $LN171                     10097f84     LIBCMTD:woutputs.obj
 0001:00096f98       $LN166                     10097f98     LIBCMTD:woutputs.obj
 0001:00096fc8       $LN172                     10097fc8     LIBCMTD:woutputs.obj
 0001:00097004       $LN167                     10098004     LIBCMTD:woutputs.obj
 0001:00097040       $$000000                   10098040     LIBCMTD:87disp.obj
 0001:000973e4       $LN19                      100983e4     LIBCMTD:87except.obj
 0001:00097410       $$000000                   10098410     LIBCMTD:acos_pentium4.obj
 0001:00097970       $$000000                   10098970     LIBCMTD:genexcep.obj
 0001:000979d0       $$000000                   100989d0     LIBCMTD:common.obj
 0001:00097b60       $$000000                   10098b60     LIBCMTD:asin_pentium4.obj
 0001:000980e0       $$000000                   100990e0     LIBCMTD:cos_pentium4.obj
 0001:00098290       $$000000                   10099290     LIBCMTD:pow_pentium4.obj
 0001:00098df0       $$000000                   10099df0     LIBCMTD:87tran.obj
 0001:00099230       $$000000                   1009a230     LIBCMTD:sin_pentium4.obj
 0001:00099400       $$000000                   1009a400     LIBCMTD:tan_pentium4.obj
 0001:000999c0       $$000000                   1009a9c0     LIBCMTD:memmove.obj
 0001:00099c10       LeadUpVec                  1009ac10     LIBCMTD:memmove.obj
 0001:00099c8c       UnwindUpVec                1009ac8c     LIBCMTD:memmove.obj
 0001:00099cf8       TrailUpVec                 1009acf8     LIBCMTD:memmove.obj
 0001:00099d9c       LeadDownVec                1009ad9c     LIBCMTD:memmove.obj
 0001:00099e28       UnwindDownVec              1009ae28     LIBCMTD:memmove.obj
 0001:00099e94       TrailDownVec               1009ae94     LIBCMTD:memmove.obj
 0001:0009a010       $$000000                   1009b010     LIBCMTD:strrchr.obj
 0001:0009a680       $$000000                   1009b680     LIBCMTD:llshl.obj
 0001:0009a6a0       $$000000                   1009b6a0     LIBCMTD:ullshr.obj
 0001:0009a7c0       ?x_ismbbtype_l@@YAHPAUlocaleinfo_struct@@IHH@Z 1009b7c0 f   LIBCMTD:ismbbyte.obj
 0001:0009ad00       _xtoa_s@20                 1009bd00 f   LIBCMTD:xtoas.obj
 0001:0009b860       ?wcsncnt@@YAIPB_WI@Z       1009c860 f   LIBCMTD:wcstombs.obj
 0001:0009ca40       ___createFile              1009da40 f   LIBCMTD:wopen.obj
 0001:0009daac       $LN137                     1009eaac     LIBCMTD:wopen.obj
 0001:0009dac4       $LN136                     1009eac4     LIBCMTD:wopen.obj
 0001:0009db38       $LN138                     1009eb38     LIBCMTD:wopen.obj
 0001:0009db4c       $LN139                     1009eb4c     LIBCMTD:wopen.obj
 0001:0009ec90       ___abstract_cw_sse2        1009fc90 f   LIBCMTD:ieee87.obj
 0001:0009ede0       ___control87_sse2          1009fde0 f   LIBCMTD:ieee87.obj
 0001:0009ee60       ___hw_cw_sse2              1009fe60 f   LIBCMTD:ieee87.obj
 0001:0009efb0       __abstract_cw              1009ffb0 f   LIBCMTD:ieee87.obj
 0001:0009f1b0       __hw_cw                    100a01b0 f   LIBCMTD:ieee87.obj
 0001:0009fa40       $$000000                   100a0a40     LIBCMTD:_strnicm.obj
 0001:0009ffd0       _copy_environ              100a0fd0 f   LIBCMTD:setenv.obj
 0001:000a0100       _findenv                   100a1100 f   LIBCMTD:setenv.obj
 0001:000a0430       ?__crtCompareStringA_stat@@YAHPAUlocaleinfo_struct@@PB_WKPBDH2HH@Z 100a1430 f   LIBCMTD:a_cmp.obj
 0001:000a0850       ?strncnt@@YAHPBDH@Z        100a1850 f   LIBCMTD:a_cmp.obj
 0001:000a0850       ?strncnt@@YAHPBDH@Z        100a1850 f   LIBCMTD:a_cmp.obj
 0001:000a0db0       $$000000                   100a1db0     LIBCMTD:strchr.obj
 0001:000a0ef0       __unwindfunclet$?strtoxl@@YAKPAUlocaleinfo_struct@@PBDPAPBDHH@Z$0 100a1ef0 f   LIBCMTD:strtol.obj
 0001:000a0ef8       __ehhandler$?strtoxl@@YAKPAUlocaleinfo_struct@@PBDPAPBDHH@Z 100a1ef8 f   LIBCMTD:strtol.obj
 0001:000a0f20       __unwindfunclet$?getSystemCP@@YAHH@Z$0 100a1f20 f   LIBCMTD:mbctype.obj
 0001:000a0f28       __ehhandler$?getSystemCP@@YAHH@Z 100a1f28 f   LIBCMTD:mbctype.obj
 0001:000a0f50       __ehhandler$?CallUnexpected@@YAXPBU_s_ESTypeList@@@Z 100a1f50 f   LIBCMTD:frame.obj
 0001:000a0f70       __unwindfunclet$?x_ismbbtype_l@@YAHPAUlocaleinfo_struct@@IHH@Z$0 100a1f70 f   LIBCMTD:ismbbyte.obj
 0001:000a0f78       __ehhandler$?x_ismbbtype_l@@YAHPAUlocaleinfo_struct@@IHH@Z 100a1f78 f   LIBCMTD:ismbbyte.obj
 0002:0000028c       _zt_local$initializer$     100a228c     unity_dll.obj
 0002:00000290       ?zero$initializer$@ztVec2@@2P6AXXZA 100a2290     unity_dll.obj
 0002:00000294       ?one$initializer$@ztVec2@@2P6AXXZA 100a2294     unity_dll.obj
 0002:00000298       ?zero$initializer$@ztVec3@@2P6AXXZA 100a2298     unity_dll.obj
 0002:0000029c       ?one$initializer$@ztVec3@@2P6AXXZA 100a229c     unity_dll.obj
 0002:000002a0       ?zero$initializer$@ztVec4@@2P6AXXZA 100a22a0     unity_dll.obj
 0002:000002a4       ?one$initializer$@ztVec4@@2P6AXXZA 100a22a4     unity_dll.obj
 0002:000002a8       ?zero$initializer$@ztMat4@@2P6AXXZA 100a22a8     unity_dll.obj
 0002:000002ac       ?identity$initializer$@ztMat4@@2P6AXXZA 100a22ac     unity_dll.obj
 0002:000002b0       ?identity$initializer$@ztQuat@@2P6AXXZA 100a22b0     unity_dll.obj
 0002:000002b4       _zt_gui_local$initializer$ 100a22b4     unity_dll.obj
 0002:000002b8       __zt_guiWindowRender_FunctionID$initializer$ 100a22b8     unity_dll.obj
 0002:000002bc       __zt_guiWindowOnButtonClose_FunctionID$initializer$ 100a22bc     unity_dll.obj
 0002:000002c0       __zt_guiWindowOnButtonToggle_FunctionID$initializer$ 100a22c0     unity_dll.obj
 0002:000002c4       __zt_guiWindowInputMouse_FunctionID$initializer$ 100a22c4     unity_dll.obj
 0002:000002c8       __zt_guiPanelRender_FunctionID$initializer$ 100a22c8     unity_dll.obj
 0002:000002cc       __zt_guiCollapsingPanelUpdate_FunctionID$initializer$ 100a22cc     unity_dll.obj
 0002:000002d0       __zt_guiCollapsingPanelRender_FunctionID$initializer$ 100a22d0     unity_dll.obj
 0002:000002d4       __zt_guiCollapsingPanelOnToggle_FunctionID$initializer$ 100a22d4     unity_dll.obj
 0002:000002d8       __zt_guiCollapsingPanelBestSize_FunctionID$initializer$ 100a22d8     unity_dll.obj
 0002:000002dc       __zt_guiStaticTextRender_FunctionID$initializer$ 100a22dc     unity_dll.obj
 0002:000002e0       __zt_guiStaticTextBestSize_FunctionID$initializer$ 100a22e0     unity_dll.obj
 0002:000002e4       __zt_guiButtonBaseUpdate_FunctionID$initializer$ 100a22e4     unity_dll.obj
 0002:000002e8       __zt_guiButtonBaseRender_FunctionID$initializer$ 100a22e8     unity_dll.obj
 0002:000002ec       __zt_guiButtonBaseCleanup_FunctionID$initializer$ 100a22ec     unity_dll.obj
 0002:000002f0       __zt_guiButtonBaseInputMouse_FunctionID$initializer$ 100a22f0     unity_dll.obj
 0002:000002f4       __zt_guiButtonBaseBestSize_FunctionID$initializer$ 100a22f4     unity_dll.obj
 0002:000002f8       __zt_guiSliderBaseUpdate_FunctionID$initializer$ 100a22f8     unity_dll.obj
 0002:000002fc       __zt_guiSliderBaseRender_FunctionID$initializer$ 100a22fc     unity_dll.obj
 0002:00000300       __zt_guiItemSliderInputMouse_FunctionID$initializer$ 100a2300     unity_dll.obj
 0002:00000304       __zt_guiItemSliderBestSize_FunctionID$initializer$ 100a2304     unity_dll.obj
 0002:00000308       __zt_guiScrollContainerUpdate_FunctionID$initializer$ 100a2308     unity_dll.obj
 0002:0000030c       __zt_guiScrollContainerInputMouse_FunctionID$initializer$ 100a230c     unity_dll.obj
 0002:00000310       __zt_guiScrollContainerInputKey_FunctionID$initializer$ 100a2310     unity_dll.obj
 0002:00000314       __zt_guiScrollContainerBestSize_FunctionID$initializer$ 100a2314     unity_dll.obj
 0002:00000318       __zt_guiTextEditUpdate_FunctionID$initializer$ 100a2318     unity_dll.obj
 0002:0000031c       __zt_guiTextEditRender_FunctionID$initializer$ 100a231c     unity_dll.obj
 0002:00000320       __zt_guiTextEditCleanup_FunctionID$initializer$ 100a2320     unity_dll.obj
 0002:00000324       __zt_guiTextEditInputKey_FunctionID$initializer$ 100a2324     unity_dll.obj
 0002:00000328       __zt_guiTextEditInputMouse_FunctionID$initializer$ 100a2328     unity_dll.obj
 0002:0000032c       __zt_guiTextEditBestSize_FunctionID$initializer$ 100a232c     unity_dll.obj
 0002:00000330       __zt_guiMenuBaseUpdate_FunctionID$initializer$ 100a2330     unity_dll.obj
 0002:00000334       __zt_guiMenuBaseRender_FunctionID$initializer$ 100a2334     unity_dll.obj
 0002:00000338       __zt_guiMenuCleanup_FunctionID$initializer$ 100a2338     unity_dll.obj
 0002:0000033c       __zt_guiMenuInputMouse_FunctionID$initializer$ 100a233c     unity_dll.obj
 0002:00000340       __zt_guiMenuBestSize_FunctionID$initializer$ 100a2340     unity_dll.obj
 0002:00000344       __zt_guiTreeUpdate_FunctionID$initializer$ 100a2344     unity_dll.obj
 0002:00000348       __zt_guiTreeRender_FunctionID$initializer$ 100a2348     unity_dll.obj
 0002:0000034c       __zt_guiTreeCleanup_FunctionID$initializer$ 100a234c     unity_dll.obj
 0002:00000350       __zt_guiTreeInputMouse_FunctionID$initializer$ 100a2350     unity_dll.obj
 0002:00000354       __zt_guiTreeBestSize_FunctionID$initializer$ 100a2354     unity_dll.obj
 0002:00000358       __zt_guiTreeOnToggle_FunctionID$initializer$ 100a2358     unity_dll.obj
 0002:0000035c       __zt_guiComboBoxRender_FunctionID$initializer$ 100a235c     unity_dll.obj
 0002:00000360       __zt_guiComboBoxCleanup_FunctionID$initializer$ 100a2360     unity_dll.obj
 0002:00000364       __zt_guiComboBoxInputMouse_FunctionID$initializer$ 100a2364     unity_dll.obj
 0002:00000368       __zt_guiComboBoxInputKey_FunctionID$initializer$ 100a2368     unity_dll.obj
 0002:0000036c       __zt_guiComboBoxBestSize_FunctionID$initializer$ 100a236c     unity_dll.obj
 0002:00000370       __zt_guiComboBoxMenuSelected_FunctionID$initializer$ 100a2370     unity_dll.obj
 0002:00000374       __zt_guiSpriteDisplayRender_FunctionID$initializer$ 100a2374     unity_dll.obj
 0002:00000378       __zt_guiSpriteDisplayCleanup_FunctionID$initializer$ 100a2378     unity_dll.obj
 0002:0000037c       __zt_guiSpriteDisplayBestSize_FunctionID$initializer$ 100a237c     unity_dll.obj
 0002:00000380       __zt_sizerUpdate_FunctionID$initializer$ 100a2380     unity_dll.obj
 0002:00000384       __zt_guiSizerCleanup_FunctionID$initializer$ 100a2384     unity_dll.obj
 0002:00000388       __zt_guiSizerBestSize_FunctionID$initializer$ 100a2388     unity_dll.obj
 0002:0000038c       __zt_guiDebugFpsDisplayUpdate_FunctionID$initializer$ 100a238c     unity_dll.obj
 0002:00000390       __zt_guiDebugFpsDisplayCleanup_FunctionID$initializer$ 100a2390     unity_dll.obj
 0002:00000394       __zt_guiDebugFpsDisplayButtonClose_FunctionID$initializer$ 100a2394     unity_dll.obj
 0002:00000398       __zt_guiDebugRenderingDetailsUpdate_FunctionID$initializer$ 100a2398     unity_dll.obj
 0002:0000039c       __zt_guiDebugRenderingDetailsCleanup_FunctionID$initializer$ 100a239c     unity_dll.obj
 0002:000003a0       __zt_guiDebugRenderingDetailsOnClose_FunctionID$initializer$ 100a23a0     unity_dll.obj
 0002:000003a4       __zt_guiDebugConsoleCleanup_FunctionID$initializer$ 100a23a4     unity_dll.obj
 0002:000003a8       __zt_guiDebugConsoleInputKey_FunctionID$initializer$ 100a23a8     unity_dll.obj
 0002:000003ac       __zt_guiDebugConsoleLogMessageCallback_FunctionID$initializer$ 100a23ac     unity_dll.obj
 0002:000003b0       __zt_guiDebugConsoleCommand_List_FunctionID$initializer$ 100a23b0     unity_dll.obj
 0002:000003b4       __zt_guiDebugConsoleCommand_Help_FunctionID$initializer$ 100a23b4     unity_dll.obj
 0002:000003b8       __zt_guiDebugConsoleCommandAutoComplete_Help_FunctionID$initializer$ 100a23b8     unity_dll.obj
 0002:000003bc       __zt_guiDebugConsoleCommand_Exit_FunctionID$initializer$ 100a23bc     unity_dll.obj
 0002:000003c0       __zt_guiDebugGuiHierarchyOnTreeSel_FunctionID$initializer$ 100a23c0     unity_dll.obj
 0002:000003c4       __zt_guiDebugGuiHierarchyOnRefreshTree_FunctionID$initializer$ 100a23c4     unity_dll.obj
 0002:000003c8       __zt_guiDebugGuiHierarchyOnToggleHighlight_FunctionID$initializer$ 100a23c8     unity_dll.obj
 0002:000003cc       __zt_guiDebugGuiHierarchyCleanup_FunctionID$initializer$ 100a23cc     unity_dll.obj
 0002:000003d0       __zt_guiDebugTextureViewerOnRefresh_FunctionID$initializer$ 100a23d0     unity_dll.obj
 0002:000003d4       __zt_guiDebugTextureViewerOnComboBox_FunctionID$initializer$ 100a23d4     unity_dll.obj
 0002:000003d8       __zt_guiInitDebugOnMenuItem_FunctionID$initializer$ 100a23d8     unity_dll.obj
 0002:000003dc       __zt_guiInitDebugOnOpenMenu_FunctionID$initializer$ 100a23dc     unity_dll.obj
 0002:000003e8       _pinit                     100a23e8     LIBCMTD:mbctype.obj
 0002:000003ec       _pinit                     100a23ec     LIBCMTD:_file.obj
 0002:000003f0       _pinit                     100a23f0     LIBCMTD:cpu_disp.obj
 0002:000003f4       _pinit                     100a23f4     LIBCMTD:mathfcns.obj
 0002:000003f8       _pinit                     100a23f8     LIBCMTD:onexit.obj
 0002:00000404       _pterm                     100a2404     LIBCMTD:wsetloca.obj
 0002:00000408       _pterm                     100a2408     LIBCMTD:initcon.obj
 0002:0000040c       _pterm                     100a240c     LIBCMTD:_file.obj
 0002:00000458       $SG136192                  100a2458     unity_dll.obj
 0002:0000048c       $SG115712                  100a248c     unity_dll.obj
 0002:000004bc       $SG137217                  100a24bc     unity_dll.obj
 0002:000004f0       $SG136193                  100a24f0     unity_dll.obj
 0002:0000056c       $SG106498                  100a256c     unity_dll.obj
 0002:0000059d       $SG128096                  100a259d     unity_dll.obj
 0002:0000059e       $SG138540                  100a259e     unity_dll.obj
 0002:0000059f       $SG138818                  100a259f     unity_dll.obj
 0002:000005a0       $SG137218                  100a25a0     unity_dll.obj
 0002:0000063a       $SG115687                  100a263a     unity_dll.obj
 0002:0000063c       $SG116738                  100a263c     unity_dll.obj
 0002:0000064c       $SG117763                  100a264c     unity_dll.obj
 0002:0000067c       $SG104451                  100a267c     unity_dll.obj
 0002:000006b0       $SG138244                  100a26b0     unity_dll.obj
 0002:000006b8       $SG117764                  100a26b8     unity_dll.obj
 0002:000006fc       $SG115716                  100a26fc     unity_dll.obj
 0002:0000072c       $SG111620                  100a272c     unity_dll.obj
 0002:0000073c       $SG104452                  100a273c     unity_dll.obj
 0002:0000075c       $SG136197                  100a275c     unity_dll.obj
 0002:00000790       $SG128005                  100a2790     unity_dll.obj
 0002:0000079c       $SG114693                  100a279c     unity_dll.obj
 0002:000007cc       $SG111621                  100a27cc     unity_dll.obj
 0002:000007dc       $SG106501                  100a27dc     unity_dll.obj
 0002:000007e4       $SG111622                  100a27e4     unity_dll.obj
 0002:000007f0       $SG136198                  100a27f0     unity_dll.obj
 0002:0000088c       $SG114694                  100a288c     unity_dll.obj
 0002:00000894       $SG134151                  100a2894     unity_dll.obj
 0002:000008c8       $SG116743                  100a28c8     unity_dll.obj
 0002:000008d4       $SG111623                  100a28d4     unity_dll.obj
 0002:000008e8       $SG106503                  100a28e8     unity_dll.obj
 0002:000008ec       $SG108552                  100a28ec     unity_dll.obj
 0002:00000918       $SG134152                  100a2918     unity_dll.obj
 0002:00000994       $SG111624                  100a2994     unity_dll.obj
 0002:000009a4       $SG135177                  100a29a4     unity_dll.obj
 0002:000009e0       $SG128009                  100a29e0     unity_dll.obj
 0002:000009ec       $SG111625                  100a29ec     unity_dll.obj
 0002:00000a08       $SG137226                  100a2a08     unity_dll.obj
 0002:00000a3c       $SG133131                  100a2a3c     unity_dll.obj
 0002:00000a70       $SG138251                  100a2a70     unity_dll.obj
 0002:00000abc       $SG117771                  100a2abc     unity_dll.obj
 0002:00000aec       $SG134156                  100a2aec     unity_dll.obj
 0002:00000b20       $SG137227                  100a2b20     unity_dll.obj
 0002:00000b9c       $SG134157                  100a2b9c     unity_dll.obj
 0002:00000bc8       $SG111627                  100a2bc8     unity_dll.obj
 0002:00001138       $SG133132                  100a3138     unity_dll.obj
 0002:000011b4       $SG104461                  100a31b4     unity_dll.obj
 0002:000011e8       $SG117772                  100a31e8     unity_dll.obj
 0002:0000122c       $SG136206                  100a322c     unity_dll.obj
 0002:00001260       $SG111628                  100a3260     unity_dll.obj
 0002:00001a00       $SG111629                  100a3a00     unity_dll.obj
 0002:00003ee4       $SG112655                  100a5ee4     unity_dll.obj
 0002:00003f14       $SG133136                  100a5f14     unity_dll.obj
 0002:00003f48       $SG111630                  100a5f48     unity_dll.obj
 0002:000069fc       $SG104462                  100a89fc     unity_dll.obj
 0002:00006a2c       $SG126992                  100a8a2c     unity_dll.obj
 0002:00006a38       $SG136207                  100a8a38     unity_dll.obj
 0002:00006ab4       $SG133140                  100a8ab4     unity_dll.obj
 0002:00006ae8       $SG111631                  100a8ae8     unity_dll.obj
 0002:000070d8       $SG112656                  100a90d8     unity_dll.obj
 0002:000070f8       $SG111632                  100a90f8     unity_dll.obj
 0002:0000751c       $SG134165                  100a951c     unity_dll.obj
 0002:00007550       $SG133137                  100a9550     unity_dll.obj
 0002:000075ec       $SG116753                  100a95ec     unity_dll.obj
 0002:0000761c       $SG116754                  100a961c     unity_dll.obj
 0002:00007624       $SG138259                  100a9624     unity_dll.obj
 0002:0000762c       $SG117779                  100a962c     unity_dll.obj
 0002:0000765c       $SG138260                  100a965c     unity_dll.obj
 0002:00007674       $SG115733                  100a9674     unity_dll.obj
 0002:0000767c       $SG106518                  100a967c     unity_dll.obj
 0002:000076b0       $SG117780                  100a96b0     unity_dll.obj
 0002:000076f4       $SG138261                  100a96f4     unity_dll.obj
 0002:0000771c       $SG133141                  100a971c     unity_dll.obj
 0002:00007724       $SG114710                  100a9724     unity_dll.obj
 0002:00007754       $SG137239                  100a9754     unity_dll.obj
 0002:00007788       $SG134166                  100a9788     unity_dll.obj
 0002:00007804       $SG116758                  100a9804     unity_dll.obj
 0002:00007814       $SG114711                  100a9814     unity_dll.obj
 0002:0000781c       $SG106520                  100a981c     unity_dll.obj
 0002:00007824       $SG115737                  100a9824     unity_dll.obj
 0002:00007828       $SG137240                  100a9828     unity_dll.obj
 0002:000078a4       $SG134170                  100a98a4     unity_dll.obj
 0002:000078d8       $SG116762                  100a98d8     unity_dll.obj
 0002:000078ec       $SG106522                  100a98ec     unity_dll.obj
 0002:000078f4       $SG117787                  100a98f4     unity_dll.obj
 0002:00007924       $SG137244                  100a9924     unity_dll.obj
 0002:00007958       $SG134171                  100a9958     unity_dll.obj
 0002:000079f4       $SG112669                  100a99f4     unity_dll.obj
 0002:00007a24       $SG104479                  100a9a24     unity_dll.obj
 0002:00007a58       $SG117788                  100a9a58     unity_dll.obj
 0002:00007a9c       $SG116766                  100a9a9c     unity_dll.obj
 0002:00007aac       $SG117791                  100a9aac     unity_dll.obj
 0002:00007adc       $SG117792                  100a9adc     unity_dll.obj
 0002:00007b00       $SG137245                  100a9b00     unity_dll.obj
 0002:00007b9c       $SG138272                  100a9b9c     unity_dll.obj
 0002:00007bb4       $SG136228                  100a9bb4     unity_dll.obj
 0002:00007bf0       $SG132125                  100a9bf0     unity_dll.obj
 0002:00007c34       $SG138270                  100a9c34     unity_dll.obj
 0002:00007c3c       $SG112670                  100a9c3c     unity_dll.obj
 0002:00007c44       $SG104480                  100a9c44     unity_dll.obj
 0002:00007c5c       $SG112673                  100a9c5c     unity_dll.obj
 0002:00007c8c       $SG106529                  100a9c8c     unity_dll.obj
 0002:00007c94       $SG112674                  100a9c94     unity_dll.obj
 0002:00007cbc       $SG106531                  100a9cbc     unity_dll.obj
 0002:00007cc4       $SG137253                  100a9cc4     unity_dll.obj
 0002:00007cf8       $SG134181                  100a9cf8     unity_dll.obj
 0002:00007d2c       $SG127015                  100a9d2c     unity_dll.obj
 0002:00007d38       $SG137254                  100a9d38     unity_dll.obj
 0002:00007db4       $SG115751                  100a9db4     unity_dll.obj
 0002:00007db8       $SG134182                  100a9db8     unity_dll.obj
 0002:00007e34       $SG132137                  100a9e34     unity_dll.obj
 0002:00007e68       $SG138281                  100a9e68     unity_dll.obj
 0002:00007ecc       $SG134186                  100a9ecc     unity_dll.obj
 0002:00007f00       $SG132138                  100a9f00     unity_dll.obj
 0002:00007f7c       $SG115754                  100a9f7c     unity_dll.obj
 0002:00007f80       $SG112682                  100a9f80     unity_dll.obj
 0002:00007fb0       $SG134187                  100a9fb0     unity_dll.obj
 0002:00007fdc       $SG112683                  100a9fdc     unity_dll.obj
 0002:00007fe4       $SG108587                  100a9fe4     unity_dll.obj
 0002:00008010       $SG135212                  100aa010     unity_dll.obj
 0002:00008044       $SG117804                  100aa044     unity_dll.obj
 0002:00008054       $SG135213                  100aa054     unity_dll.obj
 0002:0000805c       $SG114733                  100aa05c     unity_dll.obj
 0002:0000808c       $SG104493                  100aa08c     unity_dll.obj
 0002:000080c0       $SG132142                  100aa0c0     unity_dll.obj
 0002:000080f4       $SG115758                  100aa0f4     unity_dll.obj
 0002:000080f8       $SG114734                  100aa0f8     unity_dll.obj
 0002:00008100       $SG112686                  100aa100     unity_dll.obj
 0002:00008130       $SG108590                  100aa130     unity_dll.obj
 0002:0000815c       $SG106542                  100aa15c     unity_dll.obj
 0002:00008190       $SG132143                  100aa190     unity_dll.obj
 0002:0000822c       $SG112687                  100aa22c     unity_dll.obj
 0002:00008254       $SG106543                  100aa254     unity_dll.obj
 0002:0000825c       $SG108593                  100aa25c     unity_dll.obj
 0002:00008288       $SG137266                  100aa288     unity_dll.obj
 0002:000082bc       $SG115762                  100aa2bc     unity_dll.obj
 0002:000082c4       $SG106546                  100aa2c4     unity_dll.obj
 0002:000082f8       $SG137267                  100aa2f8     unity_dll.obj
 0002:00008374       $SG106547                  100aa374     unity_dll.obj
 0002:0000837c       $SG133172                  100aa37c     unity_dll.obj
 0002:000083b0       $SG108596                  100aa3b0     unity_dll.obj
 0002:000083e4       $SG133173                  100aa3e4     unity_dll.obj
 0002:000083ec       $SG137271                  100aa3ec     unity_dll.obj
 0002:00008420       $SG138295                  100aa420     unity_dll.obj
 0002:0000846c       $SG132151                  100aa46c     unity_dll.obj
 0002:000084a0       $SG115767                  100aa4a0     unity_dll.obj
 0002:000084a8       $SG137272                  100aa4a8     unity_dll.obj
 0002:00008544       $SG136248                  100aa544     unity_dll.obj
 0002:00008578       $SG134200                  100aa578     unity_dll.obj
 0002:000085ac       $SG108601                  100aa5ac     unity_dll.obj
 0002:000085e0       $SG132152                  100aa5e0     unity_dll.obj
 0002:0000865c       $SG136249                  100aa65c     unity_dll.obj
 0002:00008664       $SG116793                  100aa664     unity_dll.obj
 0002:00008694       $SG133180                  100aa694     unity_dll.obj
 0002:000086c8       $SG134201                  100aa6c8     unity_dll.obj
 0002:00008744       $SG117817                  100aa744     unity_dll.obj
 0002:00008754       $SG117818                  100aa754     unity_dll.obj
 0002:00008764       $SG117819                  100aa764     unity_dll.obj
 0002:00008774       $SG106555                  100aa774     unity_dll.obj
 0002:000087b4       $SG115772                  100aa7b4     unity_dll.obj
 0002:000087c0       $SG134205                  100aa7c0     unity_dll.obj
 0002:000087f4       $SG134206                  100aa7f4     unity_dll.obj
 0002:00008820       $SG133181                  100aa820     unity_dll.obj
 0002:0000889c       $SG108606                  100aa89c     unity_dll.obj
 0002:000088d0       $SG115775                  100aa8d0     unity_dll.obj
 0002:000088dc       $SG137280                  100aa8dc     unity_dll.obj
 0002:00008910       $SG106560                  100aa910     unity_dll.obj
 0002:00008950       $SG137281                  100aa950     unity_dll.obj
 0002:000089cc       $SG136257                  100aa9cc     unity_dll.obj
 0002:00008a00       $SG132161                  100aaa00     unity_dll.obj
 0002:00008a34       $SG135234                  100aaa34     unity_dll.obj
 0002:00008a68       $SG132162                  100aaa68     unity_dll.obj
 0002:00008ae4       $SG115778                  100aaae4     unity_dll.obj
 0002:00008af0       $SG127042                  100aaaf0     unity_dll.obj
 0002:00008b50       $SG127043                  100aab50     unity_dll.obj
 0002:00008b74       $SG116803                  100aab74     unity_dll.obj
 0002:00008ba4       $SG138309                  100aaba4     unity_dll.obj
 0002:00008bac       $SG133189                  100aabac     unity_dll.obj
 0002:00008be0       $SG117829                  100aabe0     unity_dll.obj
 0002:00008bf0       $SG112709                  100aabf0     unity_dll.obj
 0002:00008c20       $SG111685                  100aac20     unity_dll.obj
 0002:00008c28       $SG133190                  100aac28     unity_dll.obj
 0002:00008ca4       $SG112710                  100aaca4     unity_dll.obj
 0002:00008cac       $SG106566                  100aacac     unity_dll.obj
 0002:00008cec       $SG138311                  100aacec     unity_dll.obj
 0002:00008cfc       $SG117831                  100aacfc     unity_dll.obj
 0002:00008d0c       $SG111687                  100aad0c     unity_dll.obj
 0002:00008d18       $SG116809                  100aad18     unity_dll.obj
 0002:00008d48       $SG113737                  100aad48     unity_dll.obj
 0002:00008d78       $SG112713                  100aad78     unity_dll.obj
 0002:00008da8       $SG111689                  100aada8     unity_dll.obj
 0002:00008db4       $SG138314                  100aadb4     unity_dll.obj
 0002:00008de8       $SG133194                  100aade8     unity_dll.obj
 0002:00008e1c       $SG112714                  100aae1c     unity_dll.obj
 0002:00008e44       $SG134220                  100aae44     unity_dll.obj
 0002:00008e48       $SG138315                  100aae48     unity_dll.obj
 0002:00008ee4       $SG115787                  100aaee4     unity_dll.obj
 0002:00008f1c       $SG113741                  100aaf1c     unity_dll.obj
 0002:00008f4c       $SG137294                  100aaf4c     unity_dll.obj
 0002:00008f80       $SG133195                  100aaf80     unity_dll.obj
 0002:0000901c       $SG111691                  100ab01c     unity_dll.obj
 0002:00009024       $SG133198                  100ab024     unity_dll.obj
 0002:00009058       $SG132172                  100ab058     unity_dll.obj
 0002:0000909c       $SG108620                  100ab09c     unity_dll.obj
 0002:000090ac       $SG115789                  100ab0ac     unity_dll.obj
 0002:000090d4       $SG111693                  100ab0d4     unity_dll.obj
 0002:000090e4       $SG108622                  100ab0e4     unity_dll.obj
 0002:000090f8       $SG137295                  100ab0f8     unity_dll.obj
 0002:00009174       $SG111695                  100ab174     unity_dll.obj
 0002:00009180       $SG136271                  100ab180     unity_dll.obj
 0002:000091c4       $SG133199                  100ab1c4     unity_dll.obj
 0002:000091cc       $SG138321                  100ab1cc     unity_dll.obj
 0002:00009200       $SG111697                  100ab200     unity_dll.obj
 0002:0000920c       $SG108625                  100ab20c     unity_dll.obj
 0002:00009234       $SG106577                  100ab234     unity_dll.obj
 0002:00009274       $SG134226                  100ab274     unity_dll.obj
 0002:00009278       $SG133202                  100ab278     unity_dll.obj
 0002:000092ac       $SG137299                  100ab2ac     unity_dll.obj
 0002:000092e0       $SG133203                  100ab2e0     unity_dll.obj
 0002:000092e8       $SG111699                  100ab2e8     unity_dll.obj
 0002:000092f0       $SG108627                  100ab2f0     unity_dll.obj
 0002:00009308       $SG137300                  100ab308     unity_dll.obj
 0002:000093a4       $SG112724                  100ab3a4     unity_dll.obj
 0002:000093d4       $SG133205                  100ab3d4     unity_dll.obj
 0002:00009408       $SG112725                  100ab408     unity_dll.obj
 0002:00009410       $SG111701                  100ab410     unity_dll.obj
 0002:00009414       $SG108630                  100ab414     unity_dll.obj
 0002:00009448       $SG133206                  100ab448     unity_dll.obj
 0002:00009498       $SG111703                  100ab498     unity_dll.obj
 0002:000094a0       $SG132184                  100ab4a0     unity_dll.obj
 0002:000094d4       $SG112728                  100ab4d4     unity_dll.obj
 0002:00009504       $SG133211                  100ab504     unity_dll.obj
 0002:00009538       $SG132185                  100ab538     unity_dll.obj
 0002:000095b4       $SG114777                  100ab5b4     unity_dll.obj
 0002:000095e4       $SG112729                  100ab5e4     unity_dll.obj
 0002:0000960c       $SG111705                  100ab60c     unity_dll.obj
 0002:00009614       $SG114778                  100ab614     unity_dll.obj
 0002:0000964c       $SG108634                  100ab64c     unity_dll.obj
 0002:00009684       $SG128091                  100ab684     unity_dll.obj
 0002:0000968c       $SG111707                  100ab68c     unity_dll.obj
 0002:00009694       $SG137308                  100ab694     unity_dll.obj
 0002:000096c8       $SG136284                  100ab6c8     unity_dll.obj
 0002:000096fc       $SG132189                  100ab6fc     unity_dll.obj
 0002:00009730       $SG137309                  100ab730     unity_dll.obj
 0002:000097ac       $SG106589                  100ab7ac     unity_dll.obj
 0002:000097e0       $SG136285                  100ab7e0     unity_dll.obj
 0002:0000985c       $SG128093                  100ab85c     unity_dll.obj
 0002:00009864       $SG111709                  100ab864     unity_dll.obj
 0002:0000986c       $SG135264                  100ab86c     unity_dll.obj
 0002:000098a0       $SG132190                  100ab8a0     unity_dll.obj
 0002:0000993c       $SG113758                  100ab93c     unity_dll.obj
 0002:0000996c       $SG106590                  100ab96c     unity_dll.obj
 0002:00009974       $SG128095                  100ab974     unity_dll.obj
 0002:0000997c       $SG113759                  100ab97c     unity_dll.obj
 0002:00009984       $SG112735                  100ab984     unity_dll.obj
 0002:000099b4       $SG111711                  100ab9b4     unity_dll.obj
 0002:000099bc       $SG112736                  100ab9bc     unity_dll.obj
 0002:000099f8       $SG108640                  100ab9f8     unity_dll.obj
 0002:00009a2c       $SG136289                  100aba2c     unity_dll.obj
 0002:00009a60       $SG135265                  100aba60     unity_dll.obj
 0002:00009adc       $SG111713                  100abadc     unity_dll.obj
 0002:00009ae4       $SG138338                  100abae4     unity_dll.obj
 0002:00009aec       $SG135269                  100abaec     unity_dll.obj
 0002:00009b20       $SG136290                  100abb20     unity_dll.obj
 0002:00009bbc       $SG114786                  100abbbc     unity_dll.obj
 0002:00009bec       $SG108642                  100abbec     unity_dll.obj
 0002:00009c14       $SG114787                  100abc14     unity_dll.obj
 0002:00009c4c       $SG111715                  100abc4c     unity_dll.obj
 0002:00009c54       $SG111717                  100abc54     unity_dll.obj
 0002:00009c5c       $SG108645                  100abc5c     unity_dll.obj
 0002:00009c74       $SG135270                  100abc74     unity_dll.obj
 0002:00009c98       $SG133222                  100abc98     unity_dll.obj
 0002:00009ccc       $SG132198                  100abccc     unity_dll.obj
 0002:00009d00       $SG104550                  100abd00     unity_dll.obj
 0002:00009d34       $SG111719                  100abd34     unity_dll.obj
 0002:00009d3c       $SG138345                  100abd3c     unity_dll.obj
 0002:00009d70       $SG133223                  100abd70     unity_dll.obj
 0002:00009dec       $SG137321                  100abdec     unity_dll.obj
 0002:00009e20       $SG132199                  100abe20     unity_dll.obj
 0002:00009e9c       $SG136298                  100abe9c     unity_dll.obj
 0002:00009ed0       $SG104551                  100abed0     unity_dll.obj
 0002:00009f2c       $SG111721                  100abf2c     unity_dll.obj
 0002:00009f34       $SG108649                  100abf34     unity_dll.obj
 0002:00009f44       $SG115818                  100abf44     unity_dll.obj
 0002:00009f68       $SG138346                  100abf68     unity_dll.obj
 0002:00009fe4       $SG106602                  100abfe4     unity_dll.obj
 0002:0000a018       $SG137322                  100ac018     unity_dll.obj
 0002:0000a094       $SG134251                  100ac094     unity_dll.obj
 0002:0000a098       $SG136299                  100ac098     unity_dll.obj
 0002:0000a114       $SG111723                  100ac114     unity_dll.obj
 0002:0000a11c       $SG106603                  100ac11c     unity_dll.obj
 0002:0000a124       $SG113772                  100ac124     unity_dll.obj
 0002:0000a154       $SG137326                  100ac154     unity_dll.obj
 0002:0000a188       $SG104555                  100ac188     unity_dll.obj
 0002:0000a1d0       $SG108652                  100ac1d0     unity_dll.obj
 0002:0000a1f0       $SG138349                  100ac1f0     unity_dll.obj
 0002:0000a1f8       $SG113773                  100ac1f8     unity_dll.obj
 0002:0000a200       $SG111725                  100ac200     unity_dll.obj
 0002:0000a208       $SG135278                  100ac208     unity_dll.obj
 0002:0000a23c       $SG134254                  100ac23c     unity_dll.obj
 0002:0000a240       $SG108654                  100ac240     unity_dll.obj
 0002:0000a260       $SG137327                  100ac260     unity_dll.obj
 0002:0000a2fc       $SG133231                  100ac2fc     unity_dll.obj
 0002:0000a330       $SG135279                  100ac330     unity_dll.obj
 0002:0000a3ac       $SG111727                  100ac3ac     unity_dll.obj
 0002:0000a3b4       $SG132208                  100ac3b4     unity_dll.obj
 0002:0000a3e8       $SG133232                  100ac3e8     unity_dll.obj
 0002:0000a464       $SG113776                  100ac464     unity_dll.obj
 0002:0000a494       $SG135283                  100ac494     unity_dll.obj
 0002:0000a4c8       $SG132209                  100ac4c8     unity_dll.obj
 0002:0000a544       $SG113777                  100ac544     unity_dll.obj
 0002:0000a54c       $SG111729                  100ac54c     unity_dll.obj
 0002:0000a554       $SG108657                  100ac554     unity_dll.obj
 0002:0000a574       $SG138354                  100ac574     unity_dll.obj
 0002:0000a594       $SG138355                  100ac594     unity_dll.obj
 0002:0000a59c       $SG111731                  100ac59c     unity_dll.obj
 0002:0000a5a4       $SG108659                  100ac5a4     unity_dll.obj
 0002:0000a5bc       $SG138356                  100ac5bc     unity_dll.obj
 0002:0000a5c4       $SG133236                  100ac5c4     unity_dll.obj
 0002:0000a5f8       $SG135284                  100ac5f8     unity_dll.obj
 0002:0000a694       $SG138357                  100ac694     unity_dll.obj
 0002:0000a6a8       $SG134261                  100ac6a8     unity_dll.obj
 0002:0000a6dc       $SG111733                  100ac6dc     unity_dll.obj
 0002:0000a6e8       $SG133237                  100ac6e8     unity_dll.obj
 0002:0000a784       $SG127093                  100ac784     unity_dll.obj
 0002:0000a794       $SG138358                  100ac794     unity_dll.obj
 0002:0000a79c       $SG135286                  100ac79c     unity_dll.obj
 0002:0000a7d0       $SG134262                  100ac7d0     unity_dll.obj
 0002:0000a84c       $SG137335                  100ac84c     unity_dll.obj
 0002:0000a880       $SG138359                  100ac880     unity_dll.obj
 0002:0000a8ec       $SG135287                  100ac8ec     unity_dll.obj
 0002:0000a91c       $SG127095                  100ac91c     unity_dll.obj
 0002:0000a92c       $SG111735                  100ac92c     unity_dll.obj
 0002:0000a934       $SG133240                  100ac934     unity_dll.obj
 0002:0000a968       $SG137336                  100ac968     unity_dll.obj
 0002:0000a9e4       $SG115832                  100ac9e4     unity_dll.obj
 0002:0000aa14       $SG133241                  100aca14     unity_dll.obj
 0002:0000aa1c       $SG127097                  100aca1c     unity_dll.obj
 0002:0000aa28       $SG115833                  100aca28     unity_dll.obj
 0002:0000aa58       $SG111737                  100aca58     unity_dll.obj
 0002:0000aa64       $SG127099                  100aca64     unity_dll.obj
 0002:0000aa70       $SG111739                  100aca70     unity_dll.obj
 0002:0000aa78       $SG133244                  100aca78     unity_dll.obj
 0002:0000aaac       $SG108668                  100acaac     unity_dll.obj
 0002:0000aae0       $SG135293                  100acae0     unity_dll.obj
 0002:0000ab14       $SG133245                  100acb14     unity_dll.obj
 0002:0000ab1c       $SG127101                  100acb1c     unity_dll.obj
 0002:0000ab30       $SG132221                  100acb30     unity_dll.obj
 0002:0000ab74       $SG112765                  100acb74     unity_dll.obj
 0002:0000aba4       $SG111741                  100acba4     unity_dll.obj
 0002:0000abac       $SG136318                  100acbac     unity_dll.obj
 0002:0000abe0       $SG134270                  100acbe0     unity_dll.obj
 0002:0000ac14       $SG112766                  100acc14     unity_dll.obj
 0002:0000ac1c       $SG108670                  100acc1c     unity_dll.obj
 0002:0000ac40       $SG136319                  100acc40     unity_dll.obj
 0002:0000acbc       $SG133247                  100accbc     unity_dll.obj
 0002:0000acf0       $SG134271                  100accf0     unity_dll.obj
 0002:0000ad6c       $SG127103                  100acd6c     unity_dll.obj
 0002:0000ad78       $SG111743                  100acd78     unity_dll.obj
 0002:0000ad80       $SG133248                  100acd80     unity_dll.obj
 0002:0000add0       $SG116864                  100acdd0     unity_dll.obj
 0002:0000ae00       $SG113792                  100ace00     unity_dll.obj
 0002:0000ae30       $SG127105                  100ace30     unity_dll.obj
 0002:0000ae3c       $SG116865                  100ace3c     unity_dll.obj
 0002:0000ae74       $SG113793                  100ace74     unity_dll.obj
 0002:0000ae7c       $SG112769                  100ace7c     unity_dll.obj
 0002:0000aeac       $SG111745                  100aceac     unity_dll.obj
 0002:0000aeb0       $SG108673                  100aceb0     unity_dll.obj
 0002:0000aecc       $SG138370                  100acecc     unity_dll.obj
 0002:0000af00       $SG112770                  100acf00     unity_dll.obj
 0002:0000af28       $SG136323                  100acf28     unity_dll.obj
 0002:0000af5c       $SG111747                  100acf5c     unity_dll.obj
 0002:0000af64       $SG137348                  100acf64     unity_dll.obj
 0002:0000af98       $SG136324                  100acf98     unity_dll.obj
 0002:0000afc0       $SG113796                  100acfc0     unity_dll.obj
 0002:0000aff0       $SG137349                  100acff0     unity_dll.obj
 0002:0000b06c       $SG127109                  100ad06c     unity_dll.obj
 0002:0000b078       $SG113797                  100ad078     unity_dll.obj
 0002:0000b080       $SG111749                  100ad080     unity_dll.obj
 0002:0000b088       $SG127111                  100ad088     unity_dll.obj
 0002:0000b098       $SG115847                  100ad098     unity_dll.obj
 0002:0000b0c8       $SG111751                  100ad0c8     unity_dll.obj
 0002:0000b0cc       $SG115848                  100ad0cc     unity_dll.obj
 0002:0000b0fc       $SG137353                  100ad0fc     unity_dll.obj
 0002:0000b130       $SG134281                  100ad130     unity_dll.obj
 0002:0000b134       $SG127113                  100ad134     unity_dll.obj
 0002:0000b148       $SG111753                  100ad148     unity_dll.obj
 0002:0000b150       $SG137354                  100ad150     unity_dll.obj
 0002:0000b158       $SG132234                  100ad158     unity_dll.obj
 0002:0000b18c       $SG135307                  100ad18c     unity_dll.obj
 0002:0000b1c0       $SG132235                  100ad1c0     unity_dll.obj
 0002:0000b23c       $SG127115                  100ad23c     unity_dll.obj
 0002:0000b254       $SG111755                  100ad254     unity_dll.obj
 0002:0000b25c       $SG136332                  100ad25c     unity_dll.obj
 0002:0000b290       $SG135308                  100ad290     unity_dll.obj
 0002:0000b30c       $SG133260                  100ad30c     unity_dll.obj
 0002:0000b340       $SG124044                  100ad340     unity_dll.obj
 0002:0000b354       $SG113804                  100ad354     unity_dll.obj
 0002:0000b384       $SG112780                  100ad384     unity_dll.obj
 0002:0000b3b4       $SG132239                  100ad3b4     unity_dll.obj
 0002:0000b3e8       $SG136333                  100ad3e8     unity_dll.obj
 0002:0000b464       $SG135312                  100ad464     unity_dll.obj
 0002:0000b498       $SG133261                  100ad498     unity_dll.obj
 0002:0000b514       $SG113805                  100ad514     unity_dll.obj
 0002:0000b51c       $SG112781                  100ad51c     unity_dll.obj
 0002:0000b524       $SG111757                  100ad524     unity_dll.obj
 0002:0000b52c       $SG127118                  100ad52c     unity_dll.obj
 0002:0000b53c       $SG115854                  100ad53c     unity_dll.obj
 0002:0000b56c       $SG129167                  100ad56c     unity_dll.obj
 0002:0000b574       $SG115855                  100ad574     unity_dll.obj
 0002:0000b5a4       $SG111759                  100ad5a4     unity_dll.obj
 0002:0000b5ac       $SG113808                  100ad5ac     unity_dll.obj
 0002:0000b5dc       $SG136337                  100ad5dc     unity_dll.obj
 0002:0000b610       $SG132240                  100ad610     unity_dll.obj
 0002:0000b6ac       $SG129168                  100ad6ac     unity_dll.obj
 0002:0000b6b4       $SG112784                  100ad6b4     unity_dll.obj
 0002:0000b6e4       $SG135313                  100ad6e4     unity_dll.obj
 0002:0000b708       $SG133265                  100ad708     unity_dll.obj
 0002:0000b73c       $SG129169                  100ad73c     unity_dll.obj
 0002:0000b744       $SG127121                  100ad744     unity_dll.obj
 0002:0000b750       $SG113809                  100ad750     unity_dll.obj
 0002:0000b758       $SG112785                  100ad758     unity_dll.obj
 0002:0000b780       $SG111761                  100ad780     unity_dll.obj
 0002:0000b788       $SG136338                  100ad788     unity_dll.obj
 0002:0000b824       $SG133266                  100ad824     unity_dll.obj
 0002:0000b82c       $SG129170                  100ad82c     unity_dll.obj
 0002:0000b834       $SG112787                  100ad834     unity_dll.obj
 0002:0000b864       $SG111763                  100ad864     unity_dll.obj
 0002:0000b870       $SG104595                  100ad870     unity_dll.obj
 0002:0000b8a4       $SG133268                  100ad8a4     unity_dll.obj
 0002:0000b8d8       $SG129172                  100ad8d8     unity_dll.obj
 0002:0000b8e0       $SG113812                  100ad8e0     unity_dll.obj
 0002:0000b910       $SG112788                  100ad910     unity_dll.obj
 0002:0000b928       $SG108692                  100ad928     unity_dll.obj
 0002:0000b940       $SG104596                  100ad940     unity_dll.obj
 0002:0000b99c       $SG127125                  100ad99c     unity_dll.obj
 0002:0000b9a8       $SG133269                  100ad9a8     unity_dll.obj
 0002:0000ba4c       $SG129173                  100ada4c     unity_dll.obj
 0002:0000ba54       $SG113813                  100ada54     unity_dll.obj
 0002:0000ba5c       $SG111765                  100ada5c     unity_dll.obj
 0002:0000ba64       $SG108693                  100ada64     unity_dll.obj
 0002:0000ba90       $SG129174                  100ada90     unity_dll.obj
 0002:0000ba98       $SG108694                  100ada98     unity_dll.obj
 0002:0000babc       $SG129175                  100adabc     unity_dll.obj
 0002:0000bac4       $SG111767                  100adac4     unity_dll.obj
 0002:0000bacc       $SG134296                  100adacc     unity_dll.obj
 0002:0000bb00       $SG132248                  100adb00     unity_dll.obj
 0002:0000bb34       $SG127128                  100adb34     unity_dll.obj
 0002:0000bb44       $SG114840                  100adb44     unity_dll.obj
 0002:0000bb74       $SG135321                  100adb74     unity_dll.obj
 0002:0000bba8       $SG134297                  100adba8     unity_dll.obj
 0002:0000bc24       $SG137371                  100adc24     unity_dll.obj
 0002:0000bc58       $SG132249                  100adc58     unity_dll.obj
 0002:0000bcd4       $SG114841                  100adcd4     unity_dll.obj
 0002:0000bd0c       $SG111769                  100add0c     unity_dll.obj
 0002:0000bd14       $SG111771                  100add14     unity_dll.obj
 0002:0000bd18       $SG135322                  100add18     unity_dll.obj
 0002:0000bd94       $SG127130                  100add94     unity_dll.obj
 0002:0000bda4       $SG104603                  100adda4     unity_dll.obj
 0002:0000bdd8       $SG137372                  100addd8     unity_dll.obj
 0002:0000be54       $SG127132                  100ade54     unity_dll.obj
 0002:0000be64       $SG112796                  100ade64     unity_dll.obj
 0002:0000be94       $SG134301                  100ade94     unity_dll.obj
 0002:0000bec8       $SG104604                  100adec8     unity_dll.obj
 0002:0000bf10       $SG117917                  100adf10     unity_dll.obj
 0002:0000bf2c       $SG113821                  100adf2c     unity_dll.obj
 0002:0000bf5c       $SG112797                  100adf5c     unity_dll.obj
 0002:0000bf64       $SG111773                  100adf64     unity_dll.obj
 0002:0000bf68       $SG108701                  100adf68     unity_dll.obj
 0002:0000bf9c       $SG135326                  100adf9c     unity_dll.obj
 0002:0000bfd0       $SG134302                  100adfd0     unity_dll.obj
 0002:0000c06c       $SG113822                  100ae06c     unity_dll.obj
 0002:0000c074       $SG108702                  100ae074     unity_dll.obj
 0002:0000c07c       $SG116895                  100ae07c     unity_dll.obj
 0002:0000c0ac       $SG111775                  100ae0ac     unity_dll.obj
 0002:0000c0b0       $SG135327                  100ae0b0     unity_dll.obj
 0002:0000c14c       $SG104607                  100ae14c     unity_dll.obj
 0002:0000c18c       $SG137376                  100ae18c     unity_dll.obj
 0002:0000c1c0       $SG116896                  100ae1c0     unity_dll.obj
 0002:0000c1f0       $SG112800                  100ae1f0     unity_dll.obj
 0002:0000c220       $SG137377                  100ae220     unity_dll.obj
 0002:0000c2bc       $SG135329                  100ae2bc     unity_dll.obj
 0002:0000c2f0       $SG113825                  100ae2f0     unity_dll.obj
 0002:0000c2fc       $SG112801                  100ae2fc     unity_dll.obj
 0002:0000c324       $SG111777                  100ae324     unity_dll.obj
 0002:0000c328       $SG136354                  100ae328     unity_dll.obj
 0002:0000c35c       $SG135330                  100ae35c     unity_dll.obj
 0002:0000c38c       $SG127138                  100ae38c     unity_dll.obj
 0002:0000c39c       $SG114850                  100ae39c     unity_dll.obj
 0002:0000c3cc       $SG111779                  100ae3cc     unity_dll.obj
 0002:0000c3d0       $SG136355                  100ae3d0     unity_dll.obj
 0002:0000c44c       $SG114851                  100ae44c     unity_dll.obj
 0002:0000c484       $SG127140                  100ae484     unity_dll.obj
 0002:0000c494       $SG108708                  100ae494     unity_dll.obj
 0002:0000c4c8       $SG133285                  100ae4c8     unity_dll.obj
 0002:0000c4fc       $SG117925                  100ae4fc     unity_dll.obj
 0002:0000c52c       $SG111781                  100ae52c     unity_dll.obj
 0002:0000c530       $SG108709                  100ae530     unity_dll.obj
 0002:0000c538       $SG133286                  100ae538     unity_dll.obj
 0002:0000c5b4       $SG117926                  100ae5b4     unity_dll.obj
 0002:0000c5e0       $SG136359                  100ae5e0     unity_dll.obj
 0002:0000c614       $SG128167                  100ae614     unity_dll.obj
 0002:0000c624       $SG126119                  100ae624     unity_dll.obj
 0002:0000c634       $SG111783                  100ae634     unity_dll.obj
 0002:0000c638       $SG136360                  100ae638     unity_dll.obj
 0002:0000c660       $SG135336                  100ae660     unity_dll.obj
 0002:0000c694       $SG127144                  100ae694     unity_dll.obj
 0002:0000c6a8       $SG113832                  100ae6a8     unity_dll.obj
 0002:0000c6d8       $SG137385                  100ae6d8     unity_dll.obj
 0002:0000c70c       $SG113833                  100ae70c     unity_dll.obj
 0002:0000c714       $SG111785                  100ae714     unity_dll.obj
 0002:0000c718       $SG137386                  100ae718     unity_dll.obj
 0002:0000c794       $SG133290                  100ae794     unity_dll.obj
 0002:0000c7c8       $SG127146                  100ae7c8     unity_dll.obj
 0002:0000c7d8       $SG138411                  100ae7d8     unity_dll.obj
 0002:0000c80c       $SG133291                  100ae80c     unity_dll.obj
 0002:0000c814       $SG111787                  100ae814     unity_dll.obj
 0002:0000c818       $SG138412                  100ae818     unity_dll.obj
 0002:0000c894       $SG129196                  100ae894     unity_dll.obj
 0002:0000c89c       $SG128172                  100ae89c     unity_dll.obj
 0002:0000c8ac       $SG114860                  100ae8ac     unity_dll.obj
 0002:0000c8dc       $SG113836                  100ae8dc     unity_dll.obj
 0002:0000c90c       $SG108716                  100ae90c     unity_dll.obj
 0002:0000c940       $SG133293                  100ae940     unity_dll.obj
 0002:0000c974       $SG129197                  100ae974     unity_dll.obj
 0002:0000c97c       $SG114861                  100ae97c     unity_dll.obj
 0002:0000c9b4       $SG113837                  100ae9b4     unity_dll.obj
 0002:0000c9bc       $SG111789                  100ae9bc     unity_dll.obj
 0002:0000c9c0       $SG108717                  100ae9c0     unity_dll.obj
 0002:0000c9c8       $SG133294                  100ae9c8     unity_dll.obj
 0002:0000c9f0       $SG129198                  100ae9f0     unity_dll.obj
 0002:0000c9f8       $SG129199                  100ae9f8     unity_dll.obj
 0002:0000ca00       $SG111791                  100aea00     unity_dll.obj
 0002:0000ca04       $SG138416                  100aea04     unity_dll.obj
 0002:0000ca38       $SG127152                  100aea38     unity_dll.obj
 0002:0000ca48       $SG112816                  100aea48     unity_dll.obj
 0002:0000ca78       $SG110768                  100aea78     unity_dll.obj
 0002:0000ca84       $SG138417                  100aea84     unity_dll.obj
 0002:0000caac       $SG112817                  100aeaac     unity_dll.obj
 0002:0000cab4       $SG111793                  100aeab4     unity_dll.obj
 0002:0000cab8       $SG128178                  100aeab8     unity_dll.obj
 0002:0000cad0       $SG110770                  100aead0     unity_dll.obj
 0002:0000caec       $SG127155                  100aeaec     unity_dll.obj
 0002:0000cafc       $SG111795                  100aeafc     unity_dll.obj
 0002:0000cb00       $SG136373                  100aeb00     unity_dll.obj
 0002:0000cb34       $SG111797                  100aeb34     unity_dll.obj
 0002:0000cb38       $SG136374                  100aeb38     unity_dll.obj
 0002:0000cbb4       $SG135350                  100aebb4     unity_dll.obj
 0002:0000cbe8       $SG114870                  100aebe8     unity_dll.obj
 0002:0000cc18       $SG135351                  100aec18     unity_dll.obj
 0002:0000cc94       $SG132279                  100aec94     unity_dll.obj
 0002:0000ccc8       $SG114871                  100aecc8     unity_dll.obj
 0002:0000cd00       $SG111799                  100aed00     unity_dll.obj
 0002:0000cd04       $SG104631                  100aed04     unity_dll.obj
 0002:0000cd38       $SG132280                  100aed38     unity_dll.obj
 0002:0000cdb4       $SG128184                  100aedb4     unity_dll.obj
 0002:0000cdcc       $SG138425                  100aedcc     unity_dll.obj
 0002:0000cdd8       $SG104632                  100aedd8     unity_dll.obj
 0002:0000ce34       $SG133305                  100aee34     unity_dll.obj
 0002:0000ce68       $SG126137                  100aee68     unity_dll.obj
 0002:0000ce74       $SG113849                  100aee74     unity_dll.obj
 0002:0000cea4       $SG111801                  100aeea4     unity_dll.obj
 0002:0000cea8       $SG136378                  100aeea8     unity_dll.obj
 0002:0000cedc       $SG110778                  100aeedc     unity_dll.obj
 0002:0000cef0       $SG133306                  100aeef0     unity_dll.obj
 0002:0000cf6c       $SG113850                  100aef6c     unity_dll.obj
 0002:0000cf74       $SG108730                  100aef74     unity_dll.obj
 0002:0000cfa8       $SG104634                  100aefa8     unity_dll.obj
 0002:0000cfdc       $SG137403                  100aefdc     unity_dll.obj
 0002:0000d010       $SG136379                  100af010     unity_dll.obj
 0002:0000d038       $SG111803                  100af038     unity_dll.obj
 0002:0000d03c       $SG108731                  100af03c     unity_dll.obj
 0002:0000d044       $SG104635                  100af044     unity_dll.obj
 0002:0000d05c       $SG138428                  100af05c     unity_dll.obj
 0002:0000d068       $SG137404                  100af068     unity_dll.obj
 0002:0000d0e4       $SG132284                  100af0e4     unity_dll.obj
 0002:0000d118       $SG110780                  100af118     unity_dll.obj
 0002:0000d154       $SG111805                  100af154     unity_dll.obj
 0002:0000d158       $SG132285                  100af158     unity_dll.obj
 0002:0000d1f4       $SG138430                  100af1f4     unity_dll.obj
 0002:0000d200       $SG136382                  100af200     unity_dll.obj
 0002:0000d234       $SG133310                  100af234     unity_dll.obj
 0002:0000d268       $SG136383                  100af268     unity_dll.obj
 0002:0000d2a8       $SG133311                  100af2a8     unity_dll.obj
 0002:0000d2d4       $SG129215                  100af2d4     unity_dll.obj
 0002:0000d2dc       $SG127167                  100af2dc     unity_dll.obj
 0002:0000d2ec       $SG111807                  100af2ec     unity_dll.obj
 0002:0000d2f0       $SG138432                  100af2f0     unity_dll.obj
 0002:0000d2fc       $SG137408                  100af2fc     unity_dll.obj
 0002:0000d330       $SG132288                  100af330     unity_dll.obj
 0002:0000d364       $SG129216                  100af364     unity_dll.obj
 0002:0000d36c       $SG114880                  100af36c     unity_dll.obj
 0002:0000d39c       $SG112832                  100af39c     unity_dll.obj
 0002:0000d3cc       $SG110784                  100af3cc     unity_dll.obj
 0002:0000d3f0       $SG104640                  100af3f0     unity_dll.obj
 0002:0000d424       $SG132289                  100af424     unity_dll.obj
 0002:0000d42c       $SG127169                  100af42c     unity_dll.obj
 0002:0000d434       $SG111809                  100af434     unity_dll.obj
 0002:0000d438       $SG137409                  100af438     unity_dll.obj
 0002:0000d4d4       $SG129217                  100af4d4     unity_dll.obj
 0002:0000d4dc       $SG114881                  100af4dc     unity_dll.obj
 0002:0000d514       $SG113857                  100af514     unity_dll.obj
 0002:0000d544       $SG112833                  100af544     unity_dll.obj
 0002:0000d54c       $SG138434                  100af54c     unity_dll.obj
 0002:0000d558       $SG104641                  100af558     unity_dll.obj
 0002:0000d5e4       $SG129218                  100af5e4     unity_dll.obj
 0002:0000d5ec       $SG113858                  100af5ec     unity_dll.obj
 0002:0000d5f4       $SG134339                  100af5f4     unity_dll.obj
 0002:0000d5f8       $SG129219                  100af5f8     unity_dll.obj
 0002:0000d600       $SG111811                  100af600     unity_dll.obj
 0002:0000d604       $SG129220                  100af604     unity_dll.obj
 0002:0000d60c       $SG112836                  100af60c     unity_dll.obj
 0002:0000d63c       $SG131269                  100af63c     unity_dll.obj
 0002:0000d670       $SG129221                  100af670     unity_dll.obj
 0002:0000d678       $SG113861                  100af678     unity_dll.obj
 0002:0000d6a8       $SG112837                  100af6a8     unity_dll.obj
 0002:0000d6b0       $SG111813                  100af6b0     unity_dll.obj
 0002:0000d6b4       $SG110789                  100af6b4     unity_dll.obj
 0002:0000d6e0       $SG138438                  100af6e0     unity_dll.obj
 0002:0000d6f8       $SG126150                  100af6f8     unity_dll.obj
 0002:0000d704       $SG113862                  100af704     unity_dll.obj
 0002:0000d70c       $SG132295                  100af70c     unity_dll.obj
 0002:0000d720       $SG111815                  100af720     unity_dll.obj
 0002:0000d724       $SG134344                  100af724     unity_dll.obj
 0002:0000d728       $SG129224                  100af728     unity_dll.obj
 0002:0000d730       $SG138441                  100af730     unity_dll.obj
 0002:0000d734       $SG137417                  100af734     unity_dll.obj
 0002:0000d768       $SG136393                  100af768     unity_dll.obj
 0002:0000d79c       $SG135369                  100af79c     unity_dll.obj
 0002:0000d7d0       $SG111817                  100af7d0     unity_dll.obj
 0002:0000d7d4       $SG114890                  100af7d4     unity_dll.obj
 0002:0000d804       $SG110794                  100af804     unity_dll.obj
 0002:0000d838       $SG137418                  100af838     unity_dll.obj
 0002:0000d8b4       $SG111819                  100af8b4     unity_dll.obj
 0002:0000d8b8       $SG136394                  100af8b8     unity_dll.obj
 0002:0000d934       $SG124108                  100af934     unity_dll.obj
 0002:0000d938       $SG135370                  100af938     unity_dll.obj
 0002:0000d9b4       $SG111821                  100af9b4     unity_dll.obj
 0002:0000d9b8       $SG131274                  100af9b8     unity_dll.obj
 0002:0000f9f8       $SG114891                  100b19f8     unity_dll.obj
 0002:0000fa30       $SG138446                  100b1a30     unity_dll.obj
 0002:0000fa34       $SG136398                  100b1a34     unity_dll.obj
 0002:0000fa68       $SG135374                  100b1a68     unity_dll.obj
 0002:0000fa9c       $SG132302                  100b1a9c     unity_dll.obj
 0002:0000fad0       $SG110798                  100b1ad0     unity_dll.obj
 0002:0000fb0c       $SG135375                  100b1b0c     unity_dll.obj
 0002:0000fb30       $SG136399                  100b1b30     unity_dll.obj
 0002:0000fbcc       $SG111823                  100b1bcc     unity_dll.obj
 0002:0000fbd0       $SG132303                  100b1bd0     unity_dll.obj
 0002:0000fc4c       $SG127184                  100b1c4c     unity_dll.obj
 0002:0000fc58       $SG110800                  100b1c58     unity_dll.obj
 0002:0000fc80       $SG124113                  100b1c80     unity_dll.obj
 0002:0000fc8c       $SG115921                  100b1c8c     unity_dll.obj
 0002:0000fcbc       $SG111825                  100b1cbc     unity_dll.obj
 0002:0000fcc0       $SG133330                  100b1cc0     unity_dll.obj
 0002:0000fcf4       $SG127186                  100b1cf4     unity_dll.obj
 0002:0000fd00       $SG115922                  100b1d00     unity_dll.obj
 0002:0000fd30       $SG138451                  100b1d30     unity_dll.obj
 0002:0000fd64       $SG131283                  100b1d64     unity_dll.obj
 0002:0000fd98       $SG133331                  100b1d98     unity_dll.obj
 0002:0000fe14       $SG111827                  100b1e14     unity_dll.obj
 0002:0000fe18       $SG131284                  100b1e18     unity_dll.obj
 0002:0000fe20       $SG115924                  100b1e20     unity_dll.obj
 0002:0000fe24       $SG114900                  100b1e24     unity_dll.obj
 0002:0000fe54       $SG114901                  100b1e54     unity_dll.obj
 0002:0000fe8c       $SG111829                  100b1e8c     unity_dll.obj
 0002:0000fe90       $SG110805                  100b1e90     unity_dll.obj
 0002:0000fec4       $SG138454                  100b1ec4     unity_dll.obj
 0002:0000fec8       $SG137431                  100b1ec8     unity_dll.obj
 0002:0000fefc       $SG135383                  100b1efc     unity_dll.obj
 0002:0000ff30       $SG133335                  100b1f30     unity_dll.obj
 0002:0000ff64       $SG128215                  100b1f64     unity_dll.obj
 0002:0000ff70       $SG127191                  100b1f70     unity_dll.obj
 0002:0000ff80       $SG111831                  100b1f80     unity_dll.obj
 0002:0000ff84       $SG136409                  100b1f84     unity_dll.obj
 0002:0000ffb8       $SG137432                  100b1fb8     unity_dll.obj
 0002:00010034       $SG131289                  100b2034     unity_dll.obj
 0002:00010068       $SG135384                  100b2068     unity_dll.obj
 0002:000100e4       $SG133336                  100b20e4     unity_dll.obj
 0002:0001010c       $SG132312                  100b210c     unity_dll.obj
 0002:00010124       $SG111833                  100b2124     unity_dll.obj
 0002:00010128       $SG136410                  100b2128     unity_dll.obj
 0002:000101a4       $SG131290                  100b21a4     unity_dll.obj
 0002:000101d0       $SG127194                  100b21d0     unity_dll.obj
 0002:000101d8       $SG111835                  100b21d8     unity_dll.obj
 0002:000101dc       $SG137436                  100b21dc     unity_dll.obj
 0002:00010210       $SG135388                  100b2210     unity_dll.obj
 0002:00010244       $SG137437                  100b2244     unity_dll.obj
 0002:0001024c       $SG134365                  100b224c     unity_dll.obj
 0002:00010288       $SG135389                  100b2288     unity_dll.obj
 0002:00010324       $SG111837                  100b2324     unity_dll.obj
 0002:00010328       $SG136414                  100b2328     unity_dll.obj
 0002:0001035c       $SG114910                  100b235c     unity_dll.obj
 0002:0001038c       $SG136415                  100b238c     unity_dll.obj
 0002:000103b4       $SG132319                  100b23b4     unity_dll.obj
 0002:000103c4       $SG131295                  100b23c4     unity_dll.obj
 0002:000103e4       $SG114911                  100b23e4     unity_dll.obj
 0002:0001041c       $SG111839                  100b241c     unity_dll.obj
 0002:00010420       $SG111841                  100b2420     unity_dll.obj
 0002:00010424       $SG132322                  100b2424     unity_dll.obj
 0002:0001043c       $SG111843                  100b243c     unity_dll.obj
 0002:00010444       $SG133348                  100b2444     unity_dll.obj
 0002:00010478       $SG131300                  100b2478     unity_dll.obj
 0002:000104ac       $SG111845                  100b24ac     unity_dll.obj
 0002:000104b8       $SG133349                  100b24b8     unity_dll.obj
 0002:00010534       $SG111847                  100b2534     unity_dll.obj
 0002:0001053c       $SG114920                  100b253c     unity_dll.obj
 0002:0001056c       $SG104680                  100b256c     unity_dll.obj
 0002:000105a0       $SG135401                  100b25a0     unity_dll.obj
 0002:000105d4       $SG133353                  100b25d4     unity_dll.obj
 0002:00010608       $SG114921                  100b2608     unity_dll.obj
 0002:00010640       $SG111849                  100b2640     unity_dll.obj
 0002:00010648       $SG104681                  100b2648     unity_dll.obj
 0002:00010650       $SG136426                  100b2650     unity_dll.obj
 0002:00010684       $SG134378                  100b2684     unity_dll.obj
 0002:000106b8       $SG135402                  100b26b8     unity_dll.obj
 0002:00010734       $SG133354                  100b2734     unity_dll.obj
 0002:0001075c       $SG111851                  100b275c     unity_dll.obj
 0002:00010764       $SG137452                  100b2764     unity_dll.obj
 0002:00010798       $SG136427                  100b2798     unity_dll.obj
 0002:00010814       $SG135406                  100b2814     unity_dll.obj
 0002:00010848       $SG134379                  100b2848     unity_dll.obj
 0002:000108c4       $SG136431                  100b28c4     unity_dll.obj
 0002:000108f8       $SG137453                  100b28f8     unity_dll.obj
 0002:00010974       $SG111853                  100b2974     unity_dll.obj
 0002:0001097c       $SG135407                  100b297c     unity_dll.obj
 0002:000109a0       $SG110830                  100b29a0     unity_dll.obj
 0002:000109fc       $SG104686                  100b29fc     unity_dll.obj
 0002:00010a24       $SG134383                  100b2a24     unity_dll.obj
 0002:00010a58       $SG127215                  100b2a58     unity_dll.obj
 0002:00010a68       $SG111855                  100b2a68     unity_dll.obj
 0002:00010a70       $SG136432                  100b2a70     unity_dll.obj
 0002:00010a98       $SG134384                  100b2a98     unity_dll.obj
 0002:00010b34       $SG137457                  100b2b34     unity_dll.obj
 0002:00010b68       $SG129264                  100b2b68     unity_dll.obj
 0002:00010bc8       $SG131313                  100b2bc8     unity_dll.obj
 0002:00010be8       $SG129265                  100b2be8     unity_dll.obj
 0002:00010bec       $SG111857                  100b2bec     unity_dll.obj
 0002:00010bf4       $SG110834                  100b2bf4     unity_dll.obj
 0002:00010c20       $SG137458                  100b2c20     unity_dll.obj
 0002:00010cbc       $SG131315                  100b2cbc     unity_dll.obj
 0002:00010cdc       $SG111859                  100b2cdc     unity_dll.obj
 0002:00010ce4       $SG132341                  100b2ce4     unity_dll.obj
 0002:00010d18       $SG131317                  100b2d18     unity_dll.obj
 0002:00010d34       $SG111861                  100b2d34     unity_dll.obj
 0002:00010d3c       $SG104693                  100b2d3c     unity_dll.obj
 0002:00010d7c       $SG104694                  100b2d7c     unity_dll.obj
 0002:00010d90       $SG132342                  100b2d90     unity_dll.obj
 0002:00010e0c       $SG111863                  100b2e0c     unity_dll.obj
 0002:00010e14       $SG134392                  100b2e14     unity_dll.obj
 0002:00010e48       $SG128248                  100b2e48     unity_dll.obj
 0002:00010e60       $SG110840                  100b2e60     unity_dll.obj
 0002:00010e90       $SG104696                  100b2e90     unity_dll.obj
 0002:00010ec0       $SG134393                  100b2ec0     unity_dll.obj
 0002:00010f3c       $SG111865                  100b2f3c     unity_dll.obj
 0002:00010f44       $SG137466                  100b2f44     unity_dll.obj
 0002:00010f78       $SG132346                  100b2f78     unity_dll.obj
 0002:00010fac       $SG132347                  100b2fac     unity_dll.obj
 0002:00010fd0       $SG137467                  100b2fd0     unity_dll.obj
 0002:0001104c       $SG112891                  100b304c     unity_dll.obj
 0002:0001107c       $SG111867                  100b307c     unity_dll.obj
 0002:00011084       $SG112892                  100b3084     unity_dll.obj
 0002:00011090       $SG135421                  100b3090     unity_dll.obj
 0002:000110c4       $SG133373                  100b30c4     unity_dll.obj
 0002:000110f8       $SG111869                  100b30f8     unity_dll.obj
 0002:00011100       $SG136446                  100b3100     unity_dll.obj
 0002:00011134       $SG124158                  100b3134     unity_dll.obj
 0002:00011148       $SG135422                  100b3148     unity_dll.obj
 0002:000111c4       $SG111871                  100b31c4     unity_dll.obj
 0002:000111d0       $SG133374                  100b31d0     unity_dll.obj
 0002:0001124c       $SG116990                  100b324c     unity_dll.obj
 0002:0001127c       $SG111873                  100b327c     unity_dll.obj
 0002:00011280       $SG136447                  100b3280     unity_dll.obj
 0002:000112fc       $SG110849                  100b32fc     unity_dll.obj
 0002:00011330       $SG116991                  100b3330     unity_dll.obj
 0002:00011394       $SG135426                  100b3394     unity_dll.obj
 0002:000113c8       $SG133378                  100b33c8     unity_dll.obj
 0002:000113fc       $SG110850                  100b33fc     unity_dll.obj
 0002:00011404       $SG136451                  100b3404     unity_dll.obj
 0002:00011438       $SG135427                  100b3438     unity_dll.obj
 0002:0001145c       $SG133379                  100b345c     unity_dll.obj
 0002:00011484       $SG127235                  100b3484     unity_dll.obj
 0002:00011494       $SG111875                  100b3494     unity_dll.obj
 0002:000114a0       $SG136452                  100b34a0     unity_dll.obj
 0002:000114c8       $SG128260                  100b34c8     unity_dll.obj
 0002:000114dc       $SG111877                  100b34dc     unity_dll.obj
 0002:000114e8       $SG110853                  100b34e8     unity_dll.obj
 0002:0001151c       $SG137479                  100b351c     unity_dll.obj
 0002:00011550       $SG129286                  100b3550     unity_dll.obj
 0002:000115b0       $SG110854                  100b35b0     unity_dll.obj
 0002:000115b8       $SG134407                  100b35b8     unity_dll.obj
 0002:000115f4       $SG132359                  100b35f4     unity_dll.obj
 0002:0001162c       $SG111879                  100b362c     unity_dll.obj
 0002:00011634       $SG104714                  100b3634     unity_dll.obj
 0002:00011668       $SG129287                  100b3668     unity_dll.obj
 0002:000116dc       $SG111883                  100b36dc     unity_dll.obj
 0002:000116e0       $SG137480                  100b36e0     unity_dll.obj
 0002:0001175c       $SG111881                  100b375c     unity_dll.obj
 0002:00011764       $SG112906                  100b3764     unity_dll.obj
 0002:00011794       $SG112907                  100b3794     unity_dll.obj
 0002:000117a4       $SG104715                  100b37a4     unity_dll.obj
 0002:000117ac       $SG137484                  100b37ac     unity_dll.obj
 0002:000117e0       $SG137485                  100b37e0     unity_dll.obj
 0002:0001187c       $SG117005                  100b387c     unity_dll.obj
 0002:000118ac       $SG114957                  100b38ac     unity_dll.obj
 0002:000118c8       $SG111885                  100b38c8     unity_dll.obj
 0002:000118cc       $SG135438                  100b38cc     unity_dll.obj
 0002:00011900       $SG130318                  100b3900     unity_dll.obj
 0002:00011960       $SG135439                  100b3960     unity_dll.obj
 0002:000119dc       $SG133391                  100b39dc     unity_dll.obj
 0002:00011a10       $SG130319                  100b3a10     unity_dll.obj
 0002:00011a28       $SG111887                  100b3a28     unity_dll.obj
 0002:00011a2c       $SG114960                  100b3a2c     unity_dll.obj
 0002:00011a5c       $SG104720                  100b3a5c     unity_dll.obj
 0002:00011a90       $SG133392                  100b3a90     unity_dll.obj
 0002:00011b0c       $SG111889                  100b3b0c     unity_dll.obj
 0002:00011b10       $SG130321                  100b3b10     unity_dll.obj
 0002:00011b70       $SG114961                  100b3b70     unity_dll.obj
 0002:00011b78       $SG104721                  100b3b78     unity_dll.obj
 0002:00011bbc       $SG136466                  100b3bbc     unity_dll.obj
 0002:00011bf0       $SG130322                  100b3bf0     unity_dll.obj
 0002:00011c08       $SG117010                  100b3c08     unity_dll.obj
 0002:00011c38       $SG136467                  100b3c38     unity_dll.obj
 0002:00011cb4       $SG115987                  100b3cb4     unity_dll.obj
 0002:00011ce4       $SG111891                  100b3ce4     unity_dll.obj
 0002:00011ce8       $SG133396                  100b3ce8     unity_dll.obj
 0002:00011d1c       $SG115988                  100b3d1c     unity_dll.obj
 0002:00011d24       $SG137493                  100b3d24     unity_dll.obj
 0002:00011d58       $SG133397                  100b3d58     unity_dll.obj
 0002:00011d80       $SG128277                  100b3d80     unity_dll.obj
 0002:00011d90       $SG114965                  100b3d90     unity_dll.obj
 0002:00011dc0       $SG112917                  100b3dc0     unity_dll.obj
 0002:00011df0       $SG111893                  100b3df0     unity_dll.obj
 0002:00011df4       $SG114966                  100b3df4     unity_dll.obj
 0002:00011e28       $SG137494                  100b3e28     unity_dll.obj
 0002:00011ea4       $SG112918                  100b3ea4     unity_dll.obj
 0002:00011eb0       $SG104726                  100b3eb0     unity_dll.obj
 0002:00011ee4       $SG136471                  100b3ee4     unity_dll.obj
 0002:00011f18       $SG132375                  100b3f18     unity_dll.obj
 0002:00011f4c       $SG117015                  100b3f4c     unity_dll.obj
 0002:00011f7c       $SG115991                  100b3f7c     unity_dll.obj
 0002:00011fac       $SG111895                  100b3fac     unity_dll.obj
 0002:00011fb0       $SG104727                  100b3fb0     unity_dll.obj
 0002:00011fd8       $SG136472                  100b3fd8     unity_dll.obj
 0002:00012000       $SG132376                  100b4000     unity_dll.obj
 0002:0001207c       $SG115992                  100b407c     unity_dll.obj
 0002:000120ac       $SG114968                  100b40ac     unity_dll.obj
 0002:000120c8       $SG111897                  100b40c8     unity_dll.obj
 0002:000120cc       $SG124187                  100b40cc     unity_dll.obj
 0002:000120d0       $SG111899                  100b40d0     unity_dll.obj
 0002:000120d4       $SG132380                  100b40d4     unity_dll.obj
 0002:00012108       $SG132381                  100b4108     unity_dll.obj
 0002:000121a4       $SG117021                  100b41a4     unity_dll.obj
 0002:000121d4       $SG113949                  100b41d4     unity_dll.obj
 0002:000121e4       $SG111901                  100b41e4     unity_dll.obj
 0002:000121e8       $SG137502                  100b41e8     unity_dll.obj
 0002:0001221c       $SG137503                  100b421c     unity_dll.obj
 0002:00012248       $SG124191                  100b4248     unity_dll.obj
 0002:00012254       $SG111903                  100b4254     unity_dll.obj
 0002:00012258       $SG112928                  100b4258     unity_dll.obj
 0002:00012288       $SG112929                  100b4288     unity_dll.obj
 0002:000122a0       $SG111905                  100b42a0     unity_dll.obj
 0002:000122a4       $SG134434                  100b42a4     unity_dll.obj
 0002:000122a8       $SG129314                  100b42a8     unity_dll.obj
 0002:00012308       $SG114978                  100b4308     unity_dll.obj
 0002:00012338       $SG129315                  100b4338     unity_dll.obj
 0002:0001233c       $SG111907                  100b433c     unity_dll.obj
 0002:00012340       $SG126243                  100b4340     unity_dll.obj
 0002:000123a0       $SG136484                  100b43a0     unity_dll.obj
 0002:000123e0       $SG126244                  100b43e0     unity_dll.obj
 0002:000123f8       $SG132389                  100b43f8     unity_dll.obj
 0002:0001242c       $SG111909                  100b442c     unity_dll.obj
 0002:00012430       $SG137510                  100b4430     unity_dll.obj
 0002:00012464       $SG111911                  100b4464     unity_dll.obj
 0002:00012468       $SG132390                  100b4468     unity_dll.obj
 0002:000124e4       $SG137511                  100b44e4     unity_dll.obj
 0002:000124fc       $SG114984                  100b44fc     unity_dll.obj
 0002:0001251c       $SG137513                  100b451c     unity_dll.obj
 0002:00012550       $SG111913                  100b4550     unity_dll.obj
 0002:00012554       $SG137514                  100b4554     unity_dll.obj
 0002:0001256c       $SG106794                  100b456c     unity_dll.obj
 0002:000125a0       $SG111915                  100b45a0     unity_dll.obj
 0002:000125a4       $SG106795                  100b45a4     unity_dll.obj
 0002:000125ac       $SG111917                  100b45ac     unity_dll.obj
 0002:000125b0       $SG106798                  100b45b0     unity_dll.obj
 0002:000125e4       $SG114991                  100b45e4     unity_dll.obj
 0002:000125fc       $SG111919                  100b45fc     unity_dll.obj
 0002:00012600       $SG110895                  100b4600     unity_dll.obj
 0002:0001263c       $SG108847                  100b463c     unity_dll.obj
 0002:00012660       $SG106799                  100b4660     unity_dll.obj
 0002:00012668       $SG124209                  100b4668     unity_dll.obj
 0002:0001266c       $SG111921                  100b466c     unity_dll.obj
 0002:00012670       $SG128306                  100b4670     unity_dll.obj
 0002:0001267c       $SG108850                  100b467c     unity_dll.obj
 0002:0001269c       $SG106802                  100b469c     unity_dll.obj
 0002:000126d0       $SG111923                  100b46d0     unity_dll.obj
 0002:000126d4       $SG137524                  100b46d4     unity_dll.obj
 0002:00012708       $SG110899                  100b4708     unity_dll.obj
 0002:00012750       $SG106803                  100b4750     unity_dll.obj
 0002:00012758       $SG134452                  100b4758     unity_dll.obj
 0002:0001275c       $SG134453                  100b475c     unity_dll.obj
 0002:00012760       $SG137525                  100b4760     unity_dll.obj
 0002:000127dc       $SG111925                  100b47dc     unity_dll.obj
 0002:000127e0       $SG132406                  100b47e0     unity_dll.obj
 0002:00012814       $SG126262                  100b4814     unity_dll.obj
 0002:00012820       $SG110902                  100b4820     unity_dll.obj
 0002:00012850       $SG132407                  100b4850     unity_dll.obj
 0002:000128cc       $SG111927                  100b48cc     unity_dll.obj
 0002:000128d0       $SG110903                  100b48d0     unity_dll.obj
 0002:000128d8       $SG108855                  100b48d8     unity_dll.obj
 0002:0001290c       $SG110904                  100b490c     unity_dll.obj
 0002:00012940       $SG137529                  100b4940     unity_dll.obj
 0002:00012974       $SG115001                  100b4974     unity_dll.obj
 0002:00012998       $SG136505                  100b4998     unity_dll.obj
 0002:000129dc       $SG111929                  100b49dc     unity_dll.obj
 0002:000129e0       $SG110905                  100b49e0     unity_dll.obj
 0002:000129e8       $SG137530                  100b49e8     unity_dll.obj
